	.text
	.syntax unified
	.eabi_attribute	67, "2.09"	@ Tag_conformance
	.cpu	cortex-m0
	.eabi_attribute	6, 12	@ Tag_CPU_arch
	.eabi_attribute	7, 77	@ Tag_CPU_arch_profile
	.eabi_attribute	8, 0	@ Tag_ARM_ISA_use
	.eabi_attribute	9, 1	@ Tag_THUMB_ISA_use
	.eabi_attribute	34, 0	@ Tag_CPU_unaligned_access
	.eabi_attribute	17, 1	@ Tag_ABI_PCS_GOT_use
	.eabi_attribute	20, 2	@ Tag_ABI_FP_denormal
	.eabi_attribute	21, 0	@ Tag_ABI_FP_exceptions
	.eabi_attribute	23, 1	@ Tag_ABI_FP_number_model
	.eabi_attribute	24, 1	@ Tag_ABI_align_needed
	.eabi_attribute	25, 1	@ Tag_ABI_align_preserved
	.eabi_attribute	38, 1	@ Tag_ABI_FP_16bit_format
	.eabi_attribute	18, 2	@ Tag_ABI_PCS_wchar_t
	.eabi_attribute	26, 1	@ Tag_ABI_enum_size
	.eabi_attribute	14, 0	@ Tag_ABI_PCS_R9_use
	.file	"Boot.c"
	.file	1 "C:\\Keil_v5\\ARM\\ARMCLANG\\Bin\\..\\include" "stdint.h"
	.file	2 "D:\\Projects\\CCMSFloridaPhpr\\Application\\KEIL" "../Header\\Boot.h"
	.file	3 "D:\\Projects\\CCMSFloridaPhpr\\Application\\KEIL" "../Source/Boot.c"
	.file	4 "D:\\Projects\\CCMSFloridaPhpr\\Application\\KEIL" "../../Library/Device/Nuvoton/M031/Include/fmc_reg.h"
	.file	5 "D:\\Projects\\CCMSFloridaPhpr\\Application\\KEIL" "../../Library/Device/Nuvoton/M031/Include/sys_reg.h"
	.file	6 "D:\\Projects\\CCMSFloridaPhpr\\Application\\KEIL" "../../Library/CMSIS/Include\\core_cm0.h"
	.section	.text.JumpToBOOT,"ax",%progbits
	.hidden	JumpToBOOT                      @ -- Begin function JumpToBOOT
	.globl	JumpToBOOT
	.p2align	1
	.type	JumpToBOOT,%function
	.code	16                              @ @JumpToBOOT
	.thumb_func
JumpToBOOT:
.Lfunc_begin0:
	.loc	3 9 0                           @ ../Source/Boot.c:9:0
	.fnstart
	.cfi_sections .debug_frame
	.cfi_startproc
@ %bb.0:
	.save	{r7, lr}
	push	{r7, lr}
	.cfi_def_cfa_offset 8
	.cfi_offset lr, -4
	.cfi_offset r7, -8
	movs	r0, #100
.Ltmp0:
	.loc	3 10 2 prologue_end             @ ../Source/Boot.c:10:2
	bl	Delay
.Ltmp1:
	.file	7 "D:\\Projects\\CCMSFloridaPhpr\\Application\\KEIL" "../../Library/CMSIS/Include/cmsis_armcc_V6.h"
	.loc	7 63 3                          @ ../../Library/CMSIS/Include/cmsis_armcc_V6.h:63:3
	@APP
	cpsid i
	@NO_APP
.Ltmp2:
	.loc	3 13 2                          @ ../Source/Boot.c:13:2
	bl	SYS_UnlockReg
	movs	r0, #2
	.loc	3 15 2                          @ ../Source/Boot.c:15:2
	bl	CLK_EnableModuleClock
	.loc	3 16 2                          @ ../Source/Boot.c:16:2
	bl	FMC_Open
	movs	r0, #0
	.loc	3 19 2                          @ ../Source/Boot.c:19:2
	bl	FMC_SetVectorPageAddr
	.loc	3 21 2                          @ ../Source/Boot.c:21:2
	bl	NVIC_SystemReset
	.loc	3 23 1                          @ ../Source/Boot.c:23:1
	pop	{r7, pc}
.Ltmp3:
.Lfunc_end0:
	.size	JumpToBOOT, .Lfunc_end0-JumpToBOOT
	.cfi_endproc
	.cantunwind
	.fnend
                                        @ -- End function
	.section	.text.SYS_UnlockReg,"ax",%progbits
	.p2align	2                               @ -- Begin function SYS_UnlockReg
	.type	SYS_UnlockReg,%function
	.code	16                              @ @SYS_UnlockReg
	.thumb_func
SYS_UnlockReg:
.Lfunc_begin1:
	.file	8 "D:\\Projects\\CCMSFloridaPhpr\\Application\\KEIL" "../../Library/StdDriver/inc\\sys.h"
	.loc	8 1344 0                        @ ../../Library/StdDriver/inc\sys.h:1344:0
	.fnstart
	.cfi_startproc
@ %bb.0:
	.loc	8 1345 5 prologue_end           @ ../../Library/StdDriver/inc\sys.h:1345:5
	b	.LBB1_1
.LBB1_1:                                @ =>This Inner Loop Header: Depth=1
	.loc	8 0 5 is_stmt 0                 @ ../../Library/StdDriver/inc\sys.h:0:5
	ldr	r1, __arm_cp.1_0
	movs	r0, #89
.Ltmp4:
	.loc	8 1346 22 is_stmt 1             @ ../../Library/StdDriver/inc\sys.h:1346:22
	str	r0, [r1]
	movs	r0, #22
	.loc	8 1347 22                       @ ../../Library/StdDriver/inc\sys.h:1347:22
	str	r0, [r1]
	movs	r0, #136
	.loc	8 1348 22                       @ ../../Library/StdDriver/inc\sys.h:1348:22
	str	r0, [r1]
	.loc	8 1349 5                        @ ../../Library/StdDriver/inc\sys.h:1349:5
	b	.LBB1_2
.Ltmp5:
.LBB1_2:                                @   in Loop: Header=BB1_1 Depth=1
	.loc	8 0 5 is_stmt 0                 @ ../../Library/StdDriver/inc\sys.h:0:5
	ldr	r0, __arm_cp.1_0
	.loc	8 1349 19                       @ ../../Library/StdDriver/inc\sys.h:1349:19
	ldr	r0, [r0]
.Ltmp6:
	.loc	8 1349 5                        @ ../../Library/StdDriver/inc\sys.h:1349:5
	cmp	r0, #0
	beq	.LBB1_1
	b	.LBB1_3
.Ltmp7:
.LBB1_3:
	.loc	8 1350 1 is_stmt 1              @ ../../Library/StdDriver/inc\sys.h:1350:1
	bx	lr
.Ltmp8:
	.p2align	2
@ %bb.4:
	.loc	8 0 1 is_stmt 0                 @ ../../Library/StdDriver/inc\sys.h:0:1
__arm_cp.1_0:
	.long	1073742080                      @ 0x40000100
.Lcpi_end0:
	.size	__arm_cp.1_0, .Lcpi_end0-__arm_cp.1_0
.Lfunc_end1:
	.size	SYS_UnlockReg, .Lfunc_end1-SYS_UnlockReg
	.cfi_endproc
	.cantunwind
	.fnend
                                        @ -- End function
	.section	.text.FMC_SetVectorPageAddr,"ax",%progbits
	.p2align	2                               @ -- Begin function FMC_SetVectorPageAddr
	.type	FMC_SetVectorPageAddr,%function
	.code	16                              @ @FMC_SetVectorPageAddr
	.thumb_func
FMC_SetVectorPageAddr:
.Lfunc_begin2:
	.file	9 "D:\\Projects\\CCMSFloridaPhpr\\Application\\KEIL" "../../Library/StdDriver/inc\\fmc.h"
	.loc	9 298 0 is_stmt 1               @ ../../Library/StdDriver/inc\fmc.h:298:0
	.fnstart
	.cfi_startproc
@ %bb.0:
	.save	{r7, lr}
	push	{r7, lr}
	.cfi_def_cfa_offset 8
	.cfi_offset lr, -4
	.cfi_offset r7, -8
	.pad	#16
	sub	sp, #16
	.cfi_def_cfa_offset 24
	str	r0, [sp, #8]
.Ltmp9:
	.loc	9 299 22 prologue_end           @ ../../Library/StdDriver/inc\fmc.h:299:22
	ldr	r0, __arm_cp.2_0
	ldr	r0, [r0]
	movs	r1, #10
	bl	__aeabi_uidiv
	lsrs	r0, r0, #2
	.loc	9 299 15 is_stmt 0              @ ../../Library/StdDriver/inc\fmc.h:299:15
	str	r0, [sp, #4]
	.loc	9 301 22 is_stmt 1              @ ../../Library/StdDriver/inc\fmc.h:301:22
	ldr	r1, __arm_cp.2_1
	movs	r0, #0
	str	r0, [r1]
	ldr	r1, __arm_cp.2_2
	movs	r0, #46
	.loc	9 303 17                        @ ../../Library/StdDriver/inc\fmc.h:303:17
	str	r0, [r1]
	.loc	9 304 20                        @ ../../Library/StdDriver/inc\fmc.h:304:20
	ldr	r0, [sp, #8]
	ldr	r1, __arm_cp.2_3
	.loc	9 304 18 is_stmt 0              @ ../../Library/StdDriver/inc\fmc.h:304:18
	str	r0, [r1]
	ldr	r1, __arm_cp.2_4
	movs	r0, #1
	.loc	9 305 17 is_stmt 1              @ ../../Library/StdDriver/inc\fmc.h:305:17
	str	r0, [r1]
	.loc	9 309 5                         @ ../../Library/StdDriver/inc\fmc.h:309:5
	b	.LBB2_1
.LBB2_1:                                @ =>This Inner Loop Header: Depth=1
	.loc	9 309 16 is_stmt 0              @ ../../Library/StdDriver/inc\fmc.h:309:16
	ldr	r0, [sp, #4]
	subs	r1, r0, #1
	str	r1, [sp, #4]
	.loc	9 309 5                         @ ../../Library/StdDriver/inc\fmc.h:309:5
	cmp	r0, #0
	beq	.LBB2_5
	b	.LBB2_2
.LBB2_2:                                @   in Loop: Header=BB2_1 Depth=1
	.loc	9 0 5                           @ ../../Library/StdDriver/inc\fmc.h:0:5
	ldr	r0, __arm_cp.2_4
.Ltmp10:
	.loc	9 311 19 is_stmt 1              @ ../../Library/StdDriver/inc\fmc.h:311:19
	ldr	r0, [r0]
.Ltmp11:
	.loc	9 311 13 is_stmt 0              @ ../../Library/StdDriver/inc\fmc.h:311:13
	cmp	r0, #0
	bne	.LBB2_4
	b	.LBB2_3
.LBB2_3:
	.loc	9 0 13                          @ ../../Library/StdDriver/inc\fmc.h:0:13
	movs	r0, #0
.Ltmp12:
	.loc	9 312 13 is_stmt 1              @ ../../Library/StdDriver/inc\fmc.h:312:13
	str	r0, [sp, #12]
	b	.LBB2_6
.Ltmp13:
.LBB2_4:                                @   in Loop: Header=BB2_1 Depth=1
	.loc	9 309 5                         @ ../../Library/StdDriver/inc\fmc.h:309:5
	b	.LBB2_1
.LBB2_5:
	.loc	9 314 22                        @ ../../Library/StdDriver/inc\fmc.h:314:22
	ldr	r1, __arm_cp.2_1
	movs	r0, #0
	mvns	r0, r0
	str	r0, [r1]
	.loc	9 315 5                         @ ../../Library/StdDriver/inc\fmc.h:315:5
	str	r0, [sp, #12]
	b	.LBB2_6
.LBB2_6:
	.loc	9 316 1                         @ ../../Library/StdDriver/inc\fmc.h:316:1
	ldr	r0, [sp, #12]
	add	sp, #16
	pop	{r7, pc}
.Ltmp14:
	.p2align	2
@ %bb.7:
	.loc	9 0 1 is_stmt 0                 @ ../../Library/StdDriver/inc\fmc.h:0:1
__arm_cp.2_0:
	.long	SystemCoreClock
.Lcpi_end1:
	.size	__arm_cp.2_0, .Lcpi_end1-__arm_cp.2_0
__arm_cp.2_1:
	.long	g_FMC_i32ErrCode
.Lcpi_end2:
	.size	__arm_cp.2_1, .Lcpi_end2-__arm_cp.2_1
__arm_cp.2_2:
	.long	1073790988                      @ 0x4000c00c
.Lcpi_end3:
	.size	__arm_cp.2_2, .Lcpi_end3-__arm_cp.2_2
__arm_cp.2_3:
	.long	1073790980                      @ 0x4000c004
.Lcpi_end4:
	.size	__arm_cp.2_3, .Lcpi_end4-__arm_cp.2_3
__arm_cp.2_4:
	.long	1073790992                      @ 0x4000c010
.Lcpi_end5:
	.size	__arm_cp.2_4, .Lcpi_end5-__arm_cp.2_4
.Lfunc_end2:
	.size	FMC_SetVectorPageAddr, .Lfunc_end2-FMC_SetVectorPageAddr
	.cfi_endproc
	.cantunwind
	.fnend
                                        @ -- End function
	.section	.text.NVIC_SystemReset,"ax",%progbits
	.p2align	2                               @ -- Begin function NVIC_SystemReset
	.type	NVIC_SystemReset,%function
	.code	16                              @ @NVIC_SystemReset
	.thumb_func
NVIC_SystemReset:
.Lfunc_begin3:
	.loc	6 731 0 is_stmt 1               @ ../../Library/CMSIS/Include\core_cm0.h:731:0
	.fnstart
	.cfi_startproc
@ %bb.0:
	.loc	6 732 3 prologue_end            @ ../../Library/CMSIS/Include\core_cm0.h:732:3
	dsb	sy
	ldr	r1, __arm_cp.3_0
	ldr	r0, __arm_cp.3_1
	.loc	6 734 15                        @ ../../Library/CMSIS/Include\core_cm0.h:734:15
	str	r0, [r1]
	.loc	6 736 3                         @ ../../Library/CMSIS/Include\core_cm0.h:736:3
	dsb	sy
	.loc	6 738 3                         @ ../../Library/CMSIS/Include\core_cm0.h:738:3
	b	.LBB3_1
.LBB3_1:                                @ =>This Inner Loop Header: Depth=1
.Ltmp15:
	.loc	6 740 5                         @ ../../Library/CMSIS/Include\core_cm0.h:740:5
	nop
.Ltmp16:
	.loc	6 738 3                         @ ../../Library/CMSIS/Include\core_cm0.h:738:3
	b	.LBB3_1
.Ltmp17:
	.p2align	2
@ %bb.2:
	.loc	6 0 3 is_stmt 0                 @ ../../Library/CMSIS/Include\core_cm0.h:0:3
__arm_cp.3_0:
	.long	3758157068                      @ 0xe000ed0c
.Lcpi_end6:
	.size	__arm_cp.3_0, .Lcpi_end6-__arm_cp.3_0
__arm_cp.3_1:
	.long	100270084                       @ 0x5fa0004
.Lcpi_end7:
	.size	__arm_cp.3_1, .Lcpi_end7-__arm_cp.3_1
.Lfunc_end3:
	.size	NVIC_SystemReset, .Lfunc_end3-NVIC_SystemReset
	.cfi_endproc
	.cantunwind
	.fnend
                                        @ -- End function
	.section	.text.EraseNEWAPP,"ax",%progbits
	.hidden	EraseNEWAPP                     @ -- Begin function EraseNEWAPP
	.globl	EraseNEWAPP
	.p2align	2
	.type	EraseNEWAPP,%function
	.code	16                              @ @EraseNEWAPP
	.thumb_func
EraseNEWAPP:
.Lfunc_begin4:
	.loc	3 26 0 is_stmt 1                @ ../Source/Boot.c:26:0
	.fnstart
	.cfi_startproc
@ %bb.0:
	.save	{r7, lr}
	push	{r7, lr}
	.cfi_def_cfa_offset 8
	.cfi_offset lr, -4
	.cfi_offset r7, -8
	.pad	#8
	sub	sp, #8
	.cfi_def_cfa_offset 16
.Ltmp18:
	.loc	3 27 2 prologue_end             @ ../Source/Boot.c:27:2
	bl	SYS_UnlockReg
	.loc	3 28 2                          @ ../Source/Boot.c:28:2
	bl	FMC_Open
	ldr	r1, __arm_cp.4_0
	.loc	3 29 2                          @ ../Source/Boot.c:29:2
	str	r1, [sp, #4]                    @ 4-byte Spill
	ldr	r0, [r1]
	movs	r2, #8
	str	r2, [sp]                        @ 4-byte Spill
	orrs	r0, r2
	str	r0, [r1]
	movs	r0, #5
	lsls	r0, r0, #14
	movs	r1, #3
	lsls	r1, r1, #14
	.loc	3 30 2                          @ ../Source/Boot.c:30:2
	bl	EraseFMCData
	ldr	r2, [sp]                        @ 4-byte Reload
	ldr	r1, [sp, #4]                    @ 4-byte Reload
	.loc	3 31 2                          @ ../Source/Boot.c:31:2
	ldr	r0, [r1]
	bics	r0, r2
	str	r0, [r1]
	.loc	3 32 2                          @ ../Source/Boot.c:32:2
	bl	FMC_Close
	.loc	3 33 2                          @ ../Source/Boot.c:33:2
	bl	SYS_LockReg
	.loc	3 35 1                          @ ../Source/Boot.c:35:1
	add	sp, #8
	pop	{r7, pc}
.Ltmp19:
	.p2align	2
@ %bb.1:
	.loc	3 0 1 is_stmt 0                 @ ../Source/Boot.c:0:1
__arm_cp.4_0:
	.long	1073790976                      @ 0x4000c000
.Lcpi_end8:
	.size	__arm_cp.4_0, .Lcpi_end8-__arm_cp.4_0
.Lfunc_end4:
	.size	EraseNEWAPP, .Lfunc_end4-EraseNEWAPP
	.cfi_endproc
	.cantunwind
	.fnend
                                        @ -- End function
	.section	.text.SYS_LockReg,"ax",%progbits
	.p2align	2                               @ -- Begin function SYS_LockReg
	.type	SYS_LockReg,%function
	.code	16                              @ @SYS_LockReg
	.thumb_func
SYS_LockReg:
.Lfunc_begin5:
	.loc	8 1361 0 is_stmt 1              @ ../../Library/StdDriver/inc\sys.h:1361:0
	.fnstart
	.cfi_startproc
@ %bb.0:
	ldr	r1, __arm_cp.5_0
	movs	r0, #0
.Ltmp20:
	.loc	8 1362 18 prologue_end          @ ../../Library/StdDriver/inc\sys.h:1362:18
	str	r0, [r1]
	.loc	8 1363 1                        @ ../../Library/StdDriver/inc\sys.h:1363:1
	bx	lr
.Ltmp21:
	.p2align	2
@ %bb.1:
	.loc	8 0 1 is_stmt 0                 @ ../../Library/StdDriver/inc\sys.h:0:1
__arm_cp.5_0:
	.long	1073742080                      @ 0x40000100
.Lcpi_end9:
	.size	__arm_cp.5_0, .Lcpi_end9-__arm_cp.5_0
.Lfunc_end5:
	.size	SYS_LockReg, .Lfunc_end5-SYS_LockReg
	.cfi_endproc
	.cantunwind
	.fnend
                                        @ -- End function
	.section	.text.LoadBootConfig,"ax",%progbits
	.hidden	LoadBootConfig                  @ -- Begin function LoadBootConfig
	.globl	LoadBootConfig
	.p2align	2
	.type	LoadBootConfig,%function
	.code	16                              @ @LoadBootConfig
	.thumb_func
LoadBootConfig:
.Lfunc_begin6:
	.loc	3 38 0 is_stmt 1                @ ../Source/Boot.c:38:0
	.fnstart
	.cfi_startproc
@ %bb.0:
	.save	{r7, lr}
	push	{r7, lr}
	.cfi_def_cfa_offset 8
	.cfi_offset lr, -4
	.cfi_offset r7, -8
	.pad	#32
	sub	sp, #32
	.cfi_def_cfa_offset 40
.Ltmp22:
	.loc	3 42 2 prologue_end             @ ../Source/Boot.c:42:2
	bl	SYS_UnlockReg
	.loc	3 43 2                          @ ../Source/Boot.c:43:2
	bl	FMC_Open
	add	r0, sp, #28
	movs	r1, #18
	.loc	3 44 8                          @ ../Source/Boot.c:44:8
	strh	r1, [r0]
	.loc	3 45 82                         @ ../Source/Boot.c:45:82
	ldrh	r2, [r0]
	.loc	3 45 2 is_stmt 0                @ ../Source/Boot.c:45:2
	ldr	r0, __arm_cp.6_0
	str	r0, [sp, #24]                   @ 4-byte Spill
	ldr	r1, __arm_cp.6_1
	bl	ReadFMCDataBuffer
	ldr	r0, [sp, #24]                   @ 4-byte Reload
.Ltmp23:
	.loc	3 46 16 is_stmt 1               @ ../Source/Boot.c:46:16
	ldrh	r0, [r0, #16]
	ldr	r1, __arm_cp.6_2
.Ltmp24:
	.loc	3 46 5 is_stmt 0                @ ../Source/Boot.c:46:5
	cmp	r0, r1
	bne	.LBB6_4
	b	.LBB6_1
.LBB6_1:
.Ltmp25:
	.loc	3 49 17 is_stmt 1               @ ../Source/Boot.c:49:17
	ldr	r0, __arm_cp.6_0
	ldrh	r0, [r0, #14]
.Ltmp26:
	.loc	3 49 6 is_stmt 0                @ ../Source/Boot.c:49:6
	cmp	r0, #170
	bne	.LBB6_3
	b	.LBB6_2
.LBB6_2:
.Ltmp27:
	.loc	3 50 19 is_stmt 1               @ ../Source/Boot.c:50:19
	ldr	r1, __arm_cp.6_3
	movs	r0, #1
	strb	r0, [r1]
	.loc	3 50 4 is_stmt 0                @ ../Source/Boot.c:50:4
	b	.LBB6_3
.Ltmp28:
.LBB6_3:
	.loc	3 52 23 is_stmt 1               @ ../Source/Boot.c:52:23
	ldr	r1, __arm_cp.6_0
	str	r1, [sp, #8]                    @ 4-byte Spill
	movs	r0, #17
	strh	r0, [r1, #14]
	ldr	r1, __arm_cp.6_4
	.loc	3 53 3                          @ ../Source/Boot.c:53:3
	str	r1, [sp, #20]                   @ 4-byte Spill
	ldr	r0, [r1]
	movs	r2, #32
	str	r2, [sp, #16]                   @ 4-byte Spill
	orrs	r0, r2
	str	r0, [r1]
	add	r0, sp, #28
	.loc	3 54 54                         @ ../Source/Boot.c:54:54
	str	r0, [sp, #4]                    @ 4-byte Spill
	ldrh	r1, [r0]
	ldr	r0, __arm_cp.6_1
	.loc	3 54 3 is_stmt 0                @ ../Source/Boot.c:54:3
	str	r0, [sp, #12]                   @ 4-byte Spill
	bl	EraseFMCData
	ldr	r2, [sp, #4]                    @ 4-byte Reload
	ldr	r0, [sp, #8]                    @ 4-byte Reload
	ldr	r1, [sp, #12]                   @ 4-byte Reload
	.loc	3 55 78 is_stmt 1               @ ../Source/Boot.c:55:78
	ldrh	r2, [r2]
	.loc	3 55 3 is_stmt 0                @ ../Source/Boot.c:55:3
	bl	WriteFMCData
	ldr	r2, [sp, #4]                    @ 4-byte Reload
	ldr	r0, [sp, #8]                    @ 4-byte Reload
	ldr	r1, [sp, #12]                   @ 4-byte Reload
	.loc	3 56 83 is_stmt 1               @ ../Source/Boot.c:56:83
	ldrh	r2, [r2]
	.loc	3 56 3 is_stmt 0                @ ../Source/Boot.c:56:3
	bl	ReadFMCDataBuffer
	ldr	r2, [sp, #16]                   @ 4-byte Reload
	ldr	r1, [sp, #20]                   @ 4-byte Reload
	.loc	3 57 3 is_stmt 1                @ ../Source/Boot.c:57:3
	ldr	r0, [r1]
	bics	r0, r2
	str	r0, [r1]
	.loc	3 60 2                          @ ../Source/Boot.c:60:2
	b	.LBB6_4
.Ltmp29:
.LBB6_4:
	.loc	3 61 2                          @ ../Source/Boot.c:61:2
	bl	FMC_Close
	.loc	3 62 2                          @ ../Source/Boot.c:62:2
	bl	SYS_LockReg
	.loc	3 64 2                          @ ../Source/Boot.c:64:2
	add	sp, #32
	pop	{r7, pc}
.Ltmp30:
	.p2align	2
@ %bb.5:
	.loc	3 0 2 is_stmt 0                 @ ../Source/Boot.c:0:2
__arm_cp.6_0:
	.long	BootConfig
.Lcpi_end10:
	.size	__arm_cp.6_0, .Lcpi_end10-__arm_cp.6_0
__arm_cp.6_1:
	.long	1049600                         @ 0x100400
.Lcpi_end11:
	.size	__arm_cp.6_1, .Lcpi_end11-__arm_cp.6_1
__arm_cp.6_2:
	.long	23098                           @ 0x5a3a
.Lcpi_end12:
	.size	__arm_cp.6_2, .Lcpi_end12-__arm_cp.6_2
__arm_cp.6_3:
	.long	FirmWareUpdated
.Lcpi_end13:
	.size	__arm_cp.6_3, .Lcpi_end13-__arm_cp.6_3
__arm_cp.6_4:
	.long	1073790976                      @ 0x4000c000
.Lcpi_end14:
	.size	__arm_cp.6_4, .Lcpi_end14-__arm_cp.6_4
.Lfunc_end6:
	.size	LoadBootConfig, .Lfunc_end6-LoadBootConfig
	.cfi_endproc
	.cantunwind
	.fnend
                                        @ -- End function
	.hidden	BootConfig                      @ @BootConfig
	.type	BootConfig,%object
	.section	.bss.BootConfig,"aw",%nobits
	.globl	BootConfig
	.p2align	1
BootConfig:
	.zero	18
	.size	BootConfig, 18

	.hidden	FirmWareUpdated                 @ @FirmWareUpdated
	.type	FirmWareUpdated,%object
	.section	.bss.FirmWareUpdated,"aw",%nobits
	.globl	FirmWareUpdated
FirmWareUpdated:
	.byte	0                               @ 0x0
	.size	FirmWareUpdated, 1

	.section	".note.GNU-stack","",%progbits
	.eabi_attribute	30, 6	@ Tag_ABI_optimization_goals
	.ARM_attribute	16, 1	@ Tag_AV_eba