	.text
	.syntax unified
	.eabi_attribute	67, "2.09"	@ Tag_conformance
	.cpu	cortex-m0
	.eabi_attribute	6, 12	@ Tag_CPU_arch
	.eabi_attribute	7, 77	@ Tag_CPU_arch_profile
	.eabi_attribute	8, 0	@ Tag_ARM_ISA_use
	.eabi_attribute	9, 1	@ Tag_THUMB_ISA_use
	.eabi_attribute	34, 0	@ Tag_CPU_unaligned_access
	.eabi_attribute	17, 1	@ Tag_ABI_PCS_GOT_use
	.eabi_attribute	20, 2	@ Tag_ABI_FP_denormal
	.eabi_attribute	21, 0	@ Tag_ABI_FP_exceptions
	.eabi_attribute	23, 1	@ Tag_ABI_FP_number_model
	.eabi_attribute	24, 1	@ Tag_ABI_align_needed
	.eabi_attribute	25, 1	@ Tag_ABI_align_preserved
	.eabi_attribute	38, 1	@ Tag_ABI_FP_16bit_format
	.eabi_attribute	18, 2	@ Tag_ABI_PCS_wchar_t
	.eabi_attribute	26, 1	@ Tag_ABI_enum_size
	.eabi_attribute	14, 0	@ Tag_ABI_PCS_R9_use
	.file	"DS1307.c"
	.file	1 "C:\\Keil_v5\\ARM\\ARMCLANG\\Bin\\..\\include" "stdint.h"
	.file	2 "D:\\Projects\\CCMSFloridaPhpr\\Application\\KEIL" "../Source/DS1307.c"
	.file	3 "D:\\Projects\\CCMSFloridaPhpr\\Application\\KEIL" "../Header/Hardware.h"
	.file	4 "D:\\Projects\\CCMSFloridaPhpr\\Application\\KEIL" "../../Library/Device/Nuvoton/M031/Include/i2c_reg.h"
	.section	.text.DS1307_SetClockHalt,"ax",%progbits
	.hidden	DS1307_SetClockHalt             @ -- Begin function DS1307_SetClockHalt
	.globl	DS1307_SetClockHalt
	.p2align	2
	.type	DS1307_SetClockHalt,%function
	.code	16                              @ @DS1307_SetClockHalt
	.thumb_func
DS1307_SetClockHalt:
.Lfunc_begin0:
	.loc	2 29 0                          @ ../Source/DS1307.c:29:0
	.fnstart
	.cfi_sections .debug_frame
	.cfi_startproc
@ %bb.0:
	.save	{r4, r5, r7, lr}
	push	{r4, r5, r7, lr}
	.cfi_def_cfa_offset 16
	.cfi_offset lr, -4
	.cfi_offset r7, -8
	.cfi_offset r5, -12
	.cfi_offset r4, -16
	.pad	#24
	sub	sp, #24
	.cfi_def_cfa_offset 40
	mov	r1, r0
                                        @ kill: def $r0 killed $r1
	add	r0, sp, #20
	strb	r1, [r0]
.Ltmp0:
	.loc	2 30 16 prologue_end            @ ../Source/DS1307.c:30:16
	ldrb	r0, [r0]
	subs	r1, r0, #1
	sbcs	r0, r1
	lsls	r0, r0, #7
	add	r1, sp, #16
	.loc	2 30 10 is_stmt 0               @ ../Source/DS1307.c:30:10
	str	r1, [sp]                        @ 4-byte Spill
	strb	r0, [r1]
	ldr	r0, __arm_cp.0_0
	str	r0, [sp, #12]                   @ 4-byte Spill
	movs	r1, #104
	str	r1, [sp, #4]                    @ 4-byte Spill
	movs	r2, #0
	.loc	2 33 8 is_stmt 1                @ ../Source/DS1307.c:33:8
	str	r2, [sp, #8]                    @ 4-byte Spill
	bl	I2C_ReadByteOneReg
	ldr	r3, [sp]                        @ 4-byte Reload
	ldr	r1, [sp, #4]                    @ 4-byte Reload
	ldr	r2, [sp, #8]                    @ 4-byte Reload
	mov	r4, r0
	ldr	r0, [sp, #12]                   @ 4-byte Reload
	movs	r5, #127
	.loc	2 33 51 is_stmt 0               @ ../Source/DS1307.c:33:51
	ands	r4, r5
	.loc	2 33 6                          @ ../Source/DS1307.c:33:6
	ldr	r5, __arm_cp.0_1
	strb	r4, [r5]
	.loc	2 34 7 is_stmt 1                @ ../Source/DS1307.c:34:7
	ldr	r4, [sp, #16]
	.loc	2 34 12 is_stmt 0               @ ../Source/DS1307.c:34:12
	ldrb	r5, [r5]
	.loc	2 34 10                         @ ../Source/DS1307.c:34:10
	orrs	r4, r5
	.loc	2 34 5                          @ ../Source/DS1307.c:34:5
	strb	r4, [r3]
	.loc	2 35 45 is_stmt 1               @ ../Source/DS1307.c:35:45
	ldrb	r3, [r3]
	.loc	2 35 2 is_stmt 0                @ ../Source/DS1307.c:35:2
	bl	I2C_WriteByteOneReg
	.loc	2 36 1 is_stmt 1                @ ../Source/DS1307.c:36:1
	add	sp, #24
	pop	{r4, r5, r7, pc}
.Ltmp1:
	.p2align	2
@ %bb.1:
	.loc	2 0 1 is_stmt 0                 @ ../Source/DS1307.c:0:1
__arm_cp.0_0:
	.long	1074266112                      @ 0x40080000
.Lcpi_end0:
	.size	__arm_cp.0_0, .Lcpi_end0-__arm_cp.0_0
__arm_cp.0_1:
	.long	RVal
.Lcpi_end1:
	.size	__arm_cp.0_1, .Lcpi_end1-__arm_cp.0_1
.Lfunc_end0:
	.size	DS1307_SetClockHalt, .Lfunc_end0-DS1307_SetClockHalt
	.cfi_endproc
	.cantunwind
	.fnend
                                        @ -- End function
	.section	.text.CheckRTC,"ax",%progbits
	.hidden	CheckRTC                        @ -- Begin function CheckRTC
	.globl	CheckRTC
	.p2align	2
	.type	CheckRTC,%function
	.code	16                              @ @CheckRTC
	.thumb_func
CheckRTC:
.Lfunc_begin1:
	.loc	2 39 0 is_stmt 1                @ ../Source/DS1307.c:39:0
	.fnstart
	.cfi_startproc
@ %bb.0:
	.save	{r7, lr}
	push	{r7, lr}
	.cfi_def_cfa_offset 8
	.cfi_offset lr, -4
	.cfi_offset r7, -8
	.pad	#8
	sub	sp, #8
	.cfi_def_cfa_offset 16
	ldr	r0, __arm_cp.1_0
	movs	r1, #104
	movs	r2, #0
.Ltmp2:
	.loc	2 40 16 prologue_end            @ ../Source/DS1307.c:40:16
	bl	I2C_ReadByteOneReg
	mov	r1, sp
	.loc	2 40 10 is_stmt 0               @ ../Source/DS1307.c:40:10
	strb	r0, [r1]
.Ltmp3:
	.loc	2 41 5 is_stmt 1                @ ../Source/DS1307.c:41:5
	ldr	r0, __arm_cp.1_1
	ldr	r0, [r0]
.Ltmp4:
	.loc	2 41 5 is_stmt 0                @ ../Source/DS1307.c:41:5
	adds	r0, r0, #1
	cmp	r0, #0
	bne	.LBB1_2
	b	.LBB1_1
.LBB1_1:
	.loc	2 0 5                           @ ../Source/DS1307.c:0:5
	add	r1, sp, #4
	movs	r0, #0
.Ltmp5:
	.loc	2 42 3 is_stmt 1                @ ../Source/DS1307.c:42:3
	strb	r0, [r1]
	b	.LBB1_3
.LBB1_2:
	.loc	2 0 3 is_stmt 0                 @ ../Source/DS1307.c:0:3
	add	r1, sp, #4
	movs	r0, #1
	.loc	2 44 3 is_stmt 1                @ ../Source/DS1307.c:44:3
	strb	r0, [r1]
	b	.LBB1_3
.Ltmp6:
.LBB1_3:
	.loc	2 0 3 is_stmt 0                 @ ../Source/DS1307.c:0:3
	add	r0, sp, #4
	.loc	2 45 1 is_stmt 1                @ ../Source/DS1307.c:45:1
	ldrb	r0, [r0]
	add	sp, #8
	pop	{r7, pc}
.Ltmp7:
	.p2align	2
@ %bb.4:
	.loc	2 0 1 is_stmt 0                 @ ../Source/DS1307.c:0:1
__arm_cp.1_0:
	.long	1074266112                      @ 0x40080000
.Lcpi_end2:
	.size	__arm_cp.1_0, .Lcpi_end2-__arm_cp.1_0
__arm_cp.1_1:
	.long	g_I2C_i32ErrCode
.Lcpi_end3:
	.size	__arm_cp.1_1, .Lcpi_end3-__arm_cp.1_1
.Lfunc_end1:
	.size	CheckRTC, .Lfunc_end1-CheckRTC
	.cfi_endproc
	.cantunwind
	.fnend
                                        @ -- End function
	.section	.text.DS1307_Init,"ax",%progbits
	.hidden	DS1307_Init                     @ -- Begin function DS1307_Init
	.globl	DS1307_Init
	.p2align	1
	.type	DS1307_Init,%function
	.code	16                              @ @DS1307_Init
	.thumb_func
DS1307_Init:
.Lfunc_begin2:
	.loc	2 48 0 is_stmt 1                @ ../Source/DS1307.c:48:0
	.fnstart
	.cfi_startproc
@ %bb.0:
	.save	{r7, lr}
	push	{r7, lr}
	.cfi_def_cfa_offset 8
	.cfi_offset lr, -4
	.cfi_offset r7, -8
.Ltmp8:
	.loc	2 49 2 prologue_end             @ ../Source/DS1307.c:49:2
	bl	DS1307LowLevelInit
	movs	r0, #0
	.loc	2 50 2                          @ ../Source/DS1307.c:50:2
	bl	DS1307_SetClockHalt
	.loc	2 51 1                          @ ../Source/DS1307.c:51:1
	pop	{r7, pc}
.Ltmp9:
.Lfunc_end2:
	.size	DS1307_Init, .Lfunc_end2-DS1307_Init
	.cfi_endproc
	.cantunwind
	.fnend
                                        @ -- End function
	.section	.text.DS1307LowLevelInit,"ax",%progbits
	.p2align	2                               @ -- Begin function DS1307LowLevelInit
	.type	DS1307LowLevelInit,%function
	.code	16                              @ @DS1307LowLevelInit
	.thumb_func
DS1307LowLevelInit:
.Lfunc_begin3:
	.loc	2 22 0                          @ ../Source/DS1307.c:22:0
	.fnstart
	.cfi_startproc
@ %bb.0:
	.save	{r7, lr}
	push	{r7, lr}
	.cfi_def_cfa_offset 8
	.cfi_offset lr, -4
	.cfi_offset r7, -8
	.pad	#8
	sub	sp, #8
	.cfi_def_cfa_offset 16
	ldr	r0, __arm_cp.3_0
	str	r0, [sp, #4]                    @ 4-byte Spill
	ldr	r1, __arm_cp.3_1
.Ltmp10:
	.loc	2 23 2 prologue_end             @ ../Source/DS1307.c:23:2
	bl	I2C_Open
                                        @ kill: def $r1 killed $r0
	.loc	2 24 2                          @ ../Source/DS1307.c:24:2
	ldr	r0, [sp, #4]                    @ 4-byte Reload
	movs	r2, #104
	movs	r3, #0
	mov	r1, r3
	bl	I2C_SetSlaveAddr
	.loc	2 26 1                          @ ../Source/DS1307.c:26:1
	add	sp, #8
	pop	{r7, pc}
.Ltmp11:
	.p2align	2
@ %bb.1:
	.loc	2 0 1 is_stmt 0                 @ ../Source/DS1307.c:0:1
__arm_cp.3_0:
	.long	1074266112                      @ 0x40080000
.Lcpi_end4:
	.size	__arm_cp.3_0, .Lcpi_end4-__arm_cp.3_0
__arm_cp.3_1:
	.long	100000                          @ 0x186a0
.Lcpi_end5:
	.size	__arm_cp.3_1, .Lcpi_end5-__arm_cp.3_1
.Lfunc_end3:
	.size	DS1307LowLevelInit, .Lfunc_end3-DS1307LowLevelInit
	.cfi_endproc
	.cantunwind
	.fnend
                                        @ -- End function
	.section	.text.DS1307_GetTime,"ax",%progbits
	.hidden	DS1307_GetTime                  @ -- Begin function DS1307_GetTime
	.globl	DS1307_GetTime
	.p2align	2
	.type	DS1307_GetTime,%function
	.code	16                              @ @DS1307_GetTime
	.thumb_func
DS1307_GetTime:
.Lfunc_begin4:
	.loc	2 54 0 is_stmt 1                @ ../Source/DS1307.c:54:0
	.fnstart
	.cfi_startproc
@ %bb.0:
	.save	{r4, lr}
	push	{r4, lr}
	.cfi_def_cfa_offset 8
	.cfi_offset lr, -4
	.cfi_offset r4, -8
	.pad	#40
	sub	sp, #40
	.cfi_def_cfa_offset 48
	str	r0, [sp, #36]
	add	r0, sp, #32
	movs	r1, #0
.Ltmp12:
	.loc	2 55 11 prologue_end            @ ../Source/DS1307.c:55:11
	strb	r1, [r0]
	add	r3, sp, #24
	.loc	2 56 11                         @ ../Source/DS1307.c:56:11
	str	r3, [sp, #20]                   @ 4-byte Spill
	strb	r1, [r3, #6]
	strh	r1, [r3, #4]
	str	r1, [sp, #24]
	.loc	2 57 45                         @ ../Source/DS1307.c:57:45
	ldrb	r2, [r0]
	movs	r0, #7
	.loc	2 57 2 is_stmt 0                @ ../Source/DS1307.c:57:2
	str	r0, [sp, #12]                   @ 4-byte Spill
	str	r0, [sp]
	ldr	r0, __arm_cp.4_0
	movs	r1, #104
	bl	I2C_ReadMultiBytesOneReg
                                        @ kill: def $r1 killed $r0
	.loc	2 59 18 is_stmt 1               @ ../Source/DS1307.c:59:18
	ldr	r0, [sp, #20]                   @ 4-byte Reload
	ldrb	r0, [r0]
	movs	r1, #127
	.loc	2 59 28 is_stmt 0               @ ../Source/DS1307.c:59:28
	str	r1, [sp, #8]                    @ 4-byte Spill
	ands	r0, r1
	.loc	2 59 14                         @ ../Source/DS1307.c:59:14
	bl	B2D
	ldr	r1, [sp, #8]                    @ 4-byte Reload
	mov	r2, r0
	.loc	2 59 3                          @ ../Source/DS1307.c:59:3
	ldr	r0, [sp, #20]                   @ 4-byte Reload
	ldr	r3, [sp, #36]
	.loc	2 59 12                         @ ../Source/DS1307.c:59:12
	strb	r2, [r3, #7]
	.loc	2 60 18 is_stmt 1               @ ../Source/DS1307.c:60:18
	ldrb	r0, [r0, #1]
	.loc	2 60 28 is_stmt 0               @ ../Source/DS1307.c:60:28
	ands	r0, r1
	.loc	2 60 14                         @ ../Source/DS1307.c:60:14
	bl	B2D
	mov	r1, r0
	.loc	2 60 3                          @ ../Source/DS1307.c:60:3
	ldr	r0, [sp, #20]                   @ 4-byte Reload
	ldr	r2, [sp, #36]
	.loc	2 60 12                         @ ../Source/DS1307.c:60:12
	strb	r1, [r2, #6]
	.loc	2 61 19 is_stmt 1               @ ../Source/DS1307.c:61:19
	ldrb	r0, [r0, #2]
	movs	r1, #63
	.loc	2 61 29 is_stmt 0               @ ../Source/DS1307.c:61:29
	str	r1, [sp, #16]                   @ 4-byte Spill
	ands	r0, r1
	.loc	2 61 15                         @ ../Source/DS1307.c:61:15
	bl	B2D
	ldr	r3, [sp, #12]                   @ 4-byte Reload
	ldr	r1, [sp, #16]                   @ 4-byte Reload
	mov	r2, r0
	.loc	2 61 3                          @ ../Source/DS1307.c:61:3
	ldr	r0, [sp, #20]                   @ 4-byte Reload
	ldr	r4, [sp, #36]
	.loc	2 61 13                         @ ../Source/DS1307.c:61:13
	strb	r2, [r4, #5]
	.loc	2 62 21 is_stmt 1               @ ../Source/DS1307.c:62:21
	ldrb	r2, [r0, #3]
	.loc	2 62 31 is_stmt 0               @ ../Source/DS1307.c:62:31
	ands	r2, r3
	.loc	2 62 3                          @ ../Source/DS1307.c:62:3
	ldr	r3, [sp, #36]
	.loc	2 62 19                         @ ../Source/DS1307.c:62:19
	strb	r2, [r3, #4]
	.loc	2 63 19 is_stmt 1               @ ../Source/DS1307.c:63:19
	ldrb	r0, [r0, #4]
	.loc	2 63 29 is_stmt 0               @ ../Source/DS1307.c:63:29
	ands	r0, r1
	.loc	2 63 15                         @ ../Source/DS1307.c:63:15
	bl	B2D
	mov	r1, r0
	.loc	2 63 3                          @ ../Source/DS1307.c:63:3
	ldr	r0, [sp, #20]                   @ 4-byte Reload
	ldr	r2, [sp, #36]
	.loc	2 63 13                         @ ../Source/DS1307.c:63:13
	strb	r1, [r2, #3]
	.loc	2 64 20 is_stmt 1               @ ../Source/DS1307.c:64:20
	ldrb	r0, [r0, #5]
	movs	r1, #31
	.loc	2 64 30 is_stmt 0               @ ../Source/DS1307.c:64:30
	ands	r0, r1
	.loc	2 64 16                         @ ../Source/DS1307.c:64:16
	bl	B2D
	mov	r1, r0
	.loc	2 64 3                          @ ../Source/DS1307.c:64:3
	ldr	r0, [sp, #20]                   @ 4-byte Reload
	ldr	r2, [sp, #36]
	.loc	2 64 14                         @ ../Source/DS1307.c:64:14
	strb	r1, [r2, #2]
	.loc	2 65 19 is_stmt 1               @ ../Source/DS1307.c:65:19
	ldrb	r0, [r0, #6]
	.loc	2 65 15 is_stmt 0               @ ../Source/DS1307.c:65:15
	bl	B2D
	.loc	2 65 3                          @ ../Source/DS1307.c:65:3
	ldr	r1, [sp, #36]
	.loc	2 65 13                         @ ../Source/DS1307.c:65:13
	strh	r0, [r1]
	movs	r0, #1
	.loc	2 67 3 is_stmt 1                @ ../Source/DS1307.c:67:3
	add	sp, #40
	pop	{r4, pc}
.Ltmp13:
	.p2align	2
@ %bb.1:
	.loc	2 0 3 is_stmt 0                 @ ../Source/DS1307.c:0:3
__arm_cp.4_0:
	.long	1074266112                      @ 0x40080000
.Lcpi_end6:
	.size	__arm_cp.4_0, .Lcpi_end6-__arm_cp.4_0
.Lfunc_end4:
	.size	DS1307_GetTime, .Lfunc_end4-DS1307_GetTime
	.cfi_endproc
	.cantunwind
	.fnend
                                        @ -- End function
	.section	.text.B2D,"ax",%progbits
	.p2align	1                               @ -- Begin function B2D
	.type	B2D,%function
	.code	16                              @ @B2D
	.thumb_func
B2D:
.Lfunc_begin5:
	.loc	2 12 0 is_stmt 1                @ ../Source/DS1307.c:12:0
	.fnstart
	.cfi_startproc
@ %bb.0:
	.pad	#4
	sub	sp, #4
	.cfi_def_cfa_offset 4
	mov	r1, r0
                                        @ kill: def $r0 killed $r1
	mov	r0, sp
	strb	r1, [r0]
.Ltmp14:
	.loc	2 13 11 prologue_end            @ ../Source/DS1307.c:13:11
	ldrb	r1, [r0]
	.loc	2 13 15 is_stmt 0               @ ../Source/DS1307.c:13:15
	lsrs	r2, r1, #4
	movs	r0, #10
	.loc	2 13 21                         @ ../Source/DS1307.c:13:21
	muls	r0, r2, r0
	movs	r2, #15
	.loc	2 13 33                         @ ../Source/DS1307.c:13:33
	ands	r1, r2
	.loc	2 13 26                         @ ../Source/DS1307.c:13:26
	adds	r0, r0, r1
	.loc	2 13 3                          @ ../Source/DS1307.c:13:3
	uxtb	r0, r0
	add	sp, #4
	bx	lr
.Ltmp15:
.Lfunc_end5:
	.size	B2D, .Lfunc_end5-B2D
	.cfi_endproc
	.cantunwind
	.fnend
                                        @ -- End function
	.section	.text.DS1307_SetTime,"ax",%progbits
	.hidden	DS1307_SetTime                  @ -- Begin function DS1307_SetTime
	.globl	DS1307_SetTime
	.p2align	2
	.type	DS1307_SetTime,%function
	.code	16                              @ @DS1307_SetTime
	.thumb_func
DS1307_SetTime:
.Lfunc_begin6:
	.loc	2 72 0 is_stmt 1                @ ../Source/DS1307.c:72:0
	.fnstart
	.cfi_startproc
@ %bb.0:
	.save	{r7, lr}
	push	{r7, lr}
	.cfi_def_cfa_offset 8
	.cfi_offset lr, -4
	.cfi_offset r7, -8
	.pad	#32
	sub	sp, #32
	.cfi_def_cfa_offset 40
	str	r0, [sp, #28]
	add	r1, sp, #24
	str	r1, [sp, #12]                   @ 4-byte Spill
	movs	r0, #0
.Ltmp16:
	.loc	2 73 11 prologue_end            @ ../Source/DS1307.c:73:11
	strb	r0, [r1]
	.loc	2 75 18                         @ ../Source/DS1307.c:75:18
	ldr	r0, [sp, #28]
	.loc	2 75 23 is_stmt 0               @ ../Source/DS1307.c:75:23
	ldrb	r0, [r0, #7]
	.loc	2 75 14                         @ ../Source/DS1307.c:75:14
	bl	D2B
	add	r1, sp, #16
	.loc	2 75 12                         @ ../Source/DS1307.c:75:12
	str	r1, [sp, #8]                    @ 4-byte Spill
	strb	r0, [r1]
	.loc	2 76 18 is_stmt 1               @ ../Source/DS1307.c:76:18
	ldr	r0, [sp, #28]
	.loc	2 76 23 is_stmt 0               @ ../Source/DS1307.c:76:23
	ldrb	r0, [r0, #6]
	.loc	2 76 14                         @ ../Source/DS1307.c:76:14
	bl	D2B
	ldr	r1, [sp, #8]                    @ 4-byte Reload
	.loc	2 76 12                         @ ../Source/DS1307.c:76:12
	strb	r0, [r1, #1]
	.loc	2 77 18 is_stmt 1               @ ../Source/DS1307.c:77:18
	ldr	r0, [sp, #28]
	.loc	2 77 23 is_stmt 0               @ ../Source/DS1307.c:77:23
	ldrb	r0, [r0, #5]
	.loc	2 77 14                         @ ../Source/DS1307.c:77:14
	bl	D2B
	ldr	r1, [sp, #8]                    @ 4-byte Reload
	.loc	2 77 12                         @ ../Source/DS1307.c:77:12
	strb	r0, [r1, #2]
	.loc	2 78 18 is_stmt 1               @ ../Source/DS1307.c:78:18
	ldr	r0, [sp, #28]
	.loc	2 78 23 is_stmt 0               @ ../Source/DS1307.c:78:23
	ldrb	r0, [r0, #4]
	.loc	2 78 14                         @ ../Source/DS1307.c:78:14
	bl	D2B
	ldr	r1, [sp, #8]                    @ 4-byte Reload
	.loc	2 78 12                         @ ../Source/DS1307.c:78:12
	strb	r0, [r1, #3]
	.loc	2 79 18 is_stmt 1               @ ../Source/DS1307.c:79:18
	ldr	r0, [sp, #28]
	.loc	2 79 23 is_stmt 0               @ ../Source/DS1307.c:79:23
	ldrb	r0, [r0, #3]
	.loc	2 79 14                         @ ../Source/DS1307.c:79:14
	bl	D2B
	ldr	r1, [sp, #8]                    @ 4-byte Reload
	.loc	2 79 12                         @ ../Source/DS1307.c:79:12
	strb	r0, [r1, #4]
	.loc	2 80 18 is_stmt 1               @ ../Source/DS1307.c:80:18
	ldr	r0, [sp, #28]
	.loc	2 80 23 is_stmt 0               @ ../Source/DS1307.c:80:23
	ldrb	r0, [r0, #2]
	.loc	2 80 14                         @ ../Source/DS1307.c:80:14
	bl	D2B
	ldr	r1, [sp, #8]                    @ 4-byte Reload
	.loc	2 80 12                         @ ../Source/DS1307.c:80:12
	strb	r0, [r1, #5]
	.loc	2 81 18 is_stmt 1               @ ../Source/DS1307.c:81:18
	ldr	r0, [sp, #28]
	.loc	2 81 23 is_stmt 0               @ ../Source/DS1307.c:81:23
	ldrb	r0, [r0]
	.loc	2 81 14                         @ ../Source/DS1307.c:81:14
	bl	D2B
	ldr	r3, [sp, #8]                    @ 4-byte Reload
	mov	r1, r0
	.loc	2 81 12                         @ ../Source/DS1307.c:81:12
	ldr	r0, [sp, #12]                   @ 4-byte Reload
	strb	r1, [r3, #6]
	.loc	2 82 46 is_stmt 1               @ ../Source/DS1307.c:82:46
	ldrb	r2, [r0]
	movs	r0, #7
	.loc	2 82 2 is_stmt 0                @ ../Source/DS1307.c:82:2
	str	r0, [sp]
	ldr	r0, __arm_cp.6_0
	movs	r1, #104
	bl	I2C_WriteMultiBytesOneReg
	movs	r0, #1
	.loc	2 83 3 is_stmt 1                @ ../Source/DS1307.c:83:3
	add	sp, #32
	pop	{r7, pc}
.Ltmp17:
	.p2align	2
@ %bb.1:
	.loc	2 0 3 is_stmt 0                 @ ../Source/DS1307.c:0:3
__arm_cp.6_0:
	.long	1074266112                      @ 0x40080000
.Lcpi_end7:
	.size	__arm_cp.6_0, .Lcpi_end7-__arm_cp.6_0
.Lfunc_end6:
	.size	DS1307_SetTime, .Lfunc_end6-DS1307_SetTime
	.cfi_endproc
	.cantunwind
	.fnend
                                        @ -- End function
	.section	.text.D2B,"ax",%progbits
	.p2align	1                               @ -- Begin function D2B
	.type	D2B,%function
	.code	16                              @ @D2B
	.thumb_func
D2B:
.Lfunc_begin7:
	.loc	2 17 0 is_stmt 1                @ ../Source/DS1307.c:17:0
	.fnstart
	.cfi_startproc
@ %bb.0:
	.save	{r7, lr}
	push	{r7, lr}
	.cfi_def_cfa_offset 8
	.cfi_offset lr, -4
	.cfi_offset r7, -8
	.pad	#8
	sub	sp, #8
	.cfi_def_cfa_offset 16
	mov	r1, r0
                                        @ kill: def $r0 killed $r1
	add	r0, sp, #4
	strb	r1, [r0]
.Ltmp18:
	.loc	2 18 13 prologue_end            @ ../Source/DS1307.c:18:13
	ldrb	r0, [r0]
	movs	r1, #10
	.loc	2 18 44 is_stmt 0               @ ../Source/DS1307.c:18:44
	bl	__aeabi_uidivmod
	.loc	2 18 27                         @ ../Source/DS1307.c:18:27
	lsls	r0, r0, #4
	.loc	2 18 33                         @ ../Source/DS1307.c:18:33
	orrs	r0, r1
	.loc	2 18 3                          @ ../Source/DS1307.c:18:3
	uxtb	r0, r0
	add	sp, #8
	pop	{r7, pc}
.Ltmp19:
.Lfunc_end7:
	.size	D2B, .Lfunc_end7-D2B
	.cfi_endproc
	.cantunwind
	.fnend
                                        @ -- End function
	.hidden	RVal                            @ @RVal
	.type	RVal,%object
	.section	.bss.RVal,"aw",%nobits
	.globl	RVal
RVal:
	.byte	0                               @ 0x0
	.size	RVal, 1

	.hidden	RTCDateTime                     @ @RTCDateTime
	.type	RTCDateTime,%object
	.section	.bss.RTCDateTime,"aw",%nobits
	.globl	RTCDateTime
	.p2align	1
RTCDateTime:
	.zero	8
	.size	RTCDateTime, 8

	.section	".note.GNU-stack","",%progbits
	.eabi_attribute	30, 6	@ Tag_ABI_optimization_goals
	.ARM_attribute	16, 1	@ Tag_AV_eba