	.text
	.syntax unified
	.eabi_attribute	67, "2.09"	@ Tag_conformance
	.cpu	cortex-m0
	.eabi_attribute	6, 12	@ Tag_CPU_arch
	.eabi_attribute	7, 77	@ Tag_CPU_arch_profile
	.eabi_attribute	8, 0	@ Tag_ARM_ISA_use
	.eabi_attribute	9, 1	@ Tag_THUMB_ISA_use
	.eabi_attribute	34, 0	@ Tag_CPU_unaligned_access
	.eabi_attribute	17, 1	@ Tag_ABI_PCS_GOT_use
	.eabi_attribute	20, 2	@ Tag_ABI_FP_denormal
	.eabi_attribute	21, 0	@ Tag_ABI_FP_exceptions
	.eabi_attribute	23, 1	@ Tag_ABI_FP_number_model
	.eabi_attribute	24, 1	@ Tag_ABI_align_needed
	.eabi_attribute	25, 1	@ Tag_ABI_align_preserved
	.eabi_attribute	38, 1	@ Tag_ABI_FP_16bit_format
	.eabi_attribute	18, 2	@ Tag_ABI_PCS_wchar_t
	.eabi_attribute	26, 1	@ Tag_ABI_enum_size
	.eabi_attribute	14, 0	@ Tag_ABI_PCS_R9_use
	.file	"FMCUser.c"
	.file	1 "C:\\Keil_v5\\ARM\\ARMCLANG\\Bin\\..\\include" "stdint.h"
	.file	2 "D:\\Projects\\CCMSFloridaPhpr\\Application\\KEIL" "../../Library/Device/Nuvoton/M031/Include/fmc_reg.h"
	.file	3 "D:\\Projects\\CCMSFloridaPhpr\\Application\\KEIL" "../../Library/Device/Nuvoton/M031/Include/sys_reg.h"
	.section	.text.set_IAP_boot_mode,"ax",%progbits
	.hidden	set_IAP_boot_mode               @ -- Begin function set_IAP_boot_mode
	.globl	set_IAP_boot_mode
	.p2align	2
	.type	set_IAP_boot_mode,%function
	.code	16                              @ @set_IAP_boot_mode
	.thumb_func
set_IAP_boot_mode:
.Lfunc_begin0:
	.file	4 "D:\\Projects\\CCMSFloridaPhpr\\Application\\KEIL" "../Source/FMCUser.c"
	.loc	4 10 0                          @ ../Source/FMCUser.c:10:0
	.fnstart
	.cfi_sections .debug_frame
	.cfi_startproc
@ %bb.0:
	.save	{r7, lr}
	push	{r7, lr}
	.cfi_def_cfa_offset 8
	.cfi_offset lr, -4
	.cfi_offset r7, -8
	.pad	#16
	sub	sp, #16
	.cfi_def_cfa_offset 24
	add	r0, sp, #4
	movs	r1, #2
.Ltmp0:
	.loc	4 13 9 prologue_end             @ ../Source/FMCUser.c:13:9
	bl	FMC_ReadConfig
.Ltmp1:
	.loc	4 13 9 is_stmt 0                @ ../Source/FMCUser.c:13:9
	cmp	r0, #0
	bpl	.LBB0_2
	b	.LBB0_1
.LBB0_1:
	.loc	4 0 9                           @ ../Source/FMCUser.c:0:9
	movs	r0, #0
	mvns	r0, r0
.Ltmp2:
	.loc	4 16 9 is_stmt 1                @ ../Source/FMCUser.c:16:9
	str	r0, [sp, #12]
	b	.LBB0_7
.Ltmp3:
.LBB0_2:
	.loc	4 0 9 is_stmt 0                 @ ../Source/FMCUser.c:0:9
	add	r0, sp, #4
	.loc	4 26 9 is_stmt 1                @ ../Source/FMCUser.c:26:9
	ldrb	r0, [r0]
	lsls	r0, r0, #25
	cmp	r0, #0
	bpl	.LBB0_6
	b	.LBB0_3
.LBB0_3:
	.loc	4 0 9 is_stmt 0                 @ ../Source/FMCUser.c:0:9
	ldr	r1, __arm_cp.0_0
.Ltmp4:
	.loc	4 28 9 is_stmt 1                @ ../Source/FMCUser.c:28:9
	ldr	r0, [r1]
	movs	r2, #16
	orrs	r0, r2
	str	r0, [r1]
	.loc	4 29 23                         @ ../Source/FMCUser.c:29:23
	ldr	r0, [sp, #4]
	movs	r1, #64
	bics	r0, r1
	str	r0, [sp, #4]
	add	r0, sp, #4
	movs	r1, #2
.Ltmp5:
	.loc	4 31 13                         @ ../Source/FMCUser.c:31:13
	bl	FMC_WriteConfig
.Ltmp6:
	.loc	4 31 13 is_stmt 0               @ ../Source/FMCUser.c:31:13
	cmp	r0, #0
	beq	.LBB0_5
	b	.LBB0_4
.LBB0_4:
	.loc	4 0 13                          @ ../Source/FMCUser.c:0:13
	movs	r0, #0
	mvns	r0, r0
.Ltmp7:
	.loc	4 34 13 is_stmt 1               @ ../Source/FMCUser.c:34:13
	str	r0, [sp, #12]
	b	.LBB0_7
.Ltmp8:
.LBB0_5:
	.loc	4 0 13 is_stmt 0                @ ../Source/FMCUser.c:0:13
	ldr	r1, __arm_cp.0_1
	movs	r0, #1
	.loc	4 36 21 is_stmt 1               @ ../Source/FMCUser.c:36:21
	str	r0, [r1]
	.loc	4 37 5                          @ ../Source/FMCUser.c:37:5
	b	.LBB0_6
.Ltmp9:
.LBB0_6:
	.loc	4 0 5 is_stmt 0                 @ ../Source/FMCUser.c:0:5
	movs	r0, #0
	.loc	4 38 5 is_stmt 1                @ ../Source/FMCUser.c:38:5
	str	r0, [sp, #12]
	b	.LBB0_7
.LBB0_7:
	.loc	4 39 1                          @ ../Source/FMCUser.c:39:1
	ldr	r0, [sp, #12]
	add	sp, #16
	pop	{r7, pc}
.Ltmp10:
	.p2align	2
@ %bb.8:
	.loc	4 0 1 is_stmt 0                 @ ../Source/FMCUser.c:0:1
__arm_cp.0_0:
	.long	1073790976                      @ 0x4000c000
.Lcpi_end0:
	.size	__arm_cp.0_0, .Lcpi_end0-__arm_cp.0_0
__arm_cp.0_1:
	.long	1073741832                      @ 0x40000008
.Lcpi_end1:
	.size	__arm_cp.0_1, .Lcpi_end1-__arm_cp.0_1
.Lfunc_end0:
	.size	set_IAP_boot_mode, .Lfunc_end0-set_IAP_boot_mode
	.cfi_endproc
	.cantunwind
	.fnend
                                        @ -- End function
	.section	.text.ReadFMCDataBuffer,"ax",%progbits
	.hidden	ReadFMCDataBuffer               @ -- Begin function ReadFMCDataBuffer
	.globl	ReadFMCDataBuffer
	.p2align	1
	.type	ReadFMCDataBuffer,%function
	.code	16                              @ @ReadFMCDataBuffer
	.thumb_func
ReadFMCDataBuffer:
.Lfunc_begin1:
	.loc	4 43 0 is_stmt 1                @ ../Source/FMCUser.c:43:0
	.fnstart
	.cfi_startproc
@ %bb.0:
	.save	{r7, lr}
	push	{r7, lr}
	.cfi_def_cfa_offset 8
	.cfi_offset lr, -4
	.cfi_offset r7, -8
	.pad	#24
	sub	sp, #24
	.cfi_def_cfa_offset 32
	str	r0, [sp, #20]
	str	r1, [sp, #16]
	str	r2, [sp, #12]
.Ltmp11:
	.loc	4 48 15 prologue_end            @ ../Source/FMCUser.c:48:15
	ldr	r0, [sp, #16]
	.loc	4 48 13 is_stmt 0               @ ../Source/FMCUser.c:48:13
	str	r0, [sp, #8]
	.loc	4 48 6                          @ ../Source/FMCUser.c:48:6
	b	.LBB1_1
.LBB1_1:                                @ =>This Inner Loop Header: Depth=1
.Ltmp12:
	.loc	4 48 22                         @ ../Source/FMCUser.c:48:22
	ldr	r0, [sp, #8]
	.loc	4 48 32                         @ ../Source/FMCUser.c:48:32
	ldr	r1, [sp, #16]
	.loc	4 48 41                         @ ../Source/FMCUser.c:48:41
	ldr	r2, [sp, #12]
	.loc	4 48 39                         @ ../Source/FMCUser.c:48:39
	adds	r1, r1, r2
.Ltmp13:
	.loc	4 48 2                          @ ../Source/FMCUser.c:48:2
	cmp	r0, r1
	bhs	.LBB1_10
	b	.LBB1_2
.LBB1_2:                                @   in Loop: Header=BB1_1 Depth=1
.Ltmp14:
	.loc	4 50 22 is_stmt 1               @ ../Source/FMCUser.c:50:22
	ldr	r0, [sp, #8]
	.loc	4 50 13 is_stmt 0               @ ../Source/FMCUser.c:50:13
	bl	FMC_Read
	.loc	4 50 11                         @ ../Source/FMCUser.c:50:11
	str	r0, [sp, #4]
	add	r0, sp, #4
	.loc	4 51 29 is_stmt 1               @ ../Source/FMCUser.c:51:29
	ldrb	r0, [r0, #3]
	.loc	4 51 3 is_stmt 0                @ ../Source/FMCUser.c:51:3
	ldr	r1, [sp, #20]
	.loc	4 51 10                         @ ../Source/FMCUser.c:51:10
	ldr	r2, [sp, #8]
	.loc	4 51 17                         @ ../Source/FMCUser.c:51:17
	ldr	r3, [sp, #16]
	.loc	4 51 16                         @ ../Source/FMCUser.c:51:16
	subs	r2, r2, r3
	.loc	4 51 25                         @ ../Source/FMCUser.c:51:25
	strb	r0, [r1, r2]
.Ltmp15:
	.loc	4 52 7 is_stmt 1                @ ../Source/FMCUser.c:52:7
	ldr	r0, [sp, #8]
	.loc	4 52 14 is_stmt 0               @ ../Source/FMCUser.c:52:14
	ldr	r1, [sp, #16]
	.loc	4 52 13                         @ ../Source/FMCUser.c:52:13
	subs	r0, r0, r1
	.loc	4 52 20                         @ ../Source/FMCUser.c:52:20
	adds	r0, r0, #1
	.loc	4 52 26                         @ ../Source/FMCUser.c:52:26
	ldr	r1, [sp, #12]
.Ltmp16:
	.loc	4 52 6                          @ ../Source/FMCUser.c:52:6
	cmp	r0, r1
	bhs	.LBB1_4
	b	.LBB1_3
.LBB1_3:                                @   in Loop: Header=BB1_1 Depth=1
	.loc	4 0 6                           @ ../Source/FMCUser.c:0:6
	add	r0, sp, #4
.Ltmp17:
	.loc	4 53 31 is_stmt 1               @ ../Source/FMCUser.c:53:31
	ldrh	r0, [r0, #2]
	.loc	4 53 4 is_stmt 0                @ ../Source/FMCUser.c:53:4
	ldr	r2, [sp, #20]
	.loc	4 53 11                         @ ../Source/FMCUser.c:53:11
	ldr	r1, [sp, #8]
	.loc	4 53 18                         @ ../Source/FMCUser.c:53:18
	ldr	r3, [sp, #16]
	.loc	4 53 17                         @ ../Source/FMCUser.c:53:17
	subs	r1, r1, r3
	.loc	4 53 24                         @ ../Source/FMCUser.c:53:24
	adds	r1, r1, r2
	.loc	4 53 28                         @ ../Source/FMCUser.c:53:28
	strb	r0, [r1, #1]
	.loc	4 53 4                          @ ../Source/FMCUser.c:53:4
	b	.LBB1_4
.Ltmp18:
.LBB1_4:                                @   in Loop: Header=BB1_1 Depth=1
	.loc	4 56 7 is_stmt 1                @ ../Source/FMCUser.c:56:7
	ldr	r0, [sp, #8]
	.loc	4 56 14 is_stmt 0               @ ../Source/FMCUser.c:56:14
	ldr	r1, [sp, #16]
	.loc	4 56 13                         @ ../Source/FMCUser.c:56:13
	subs	r0, r0, r1
	.loc	4 56 20                         @ ../Source/FMCUser.c:56:20
	adds	r0, r0, #2
	.loc	4 56 26                         @ ../Source/FMCUser.c:56:26
	ldr	r1, [sp, #12]
.Ltmp19:
	.loc	4 56 6                          @ ../Source/FMCUser.c:56:6
	cmp	r0, r1
	bhs	.LBB1_6
	b	.LBB1_5
.LBB1_5:                                @   in Loop: Header=BB1_1 Depth=1
.Ltmp20:
	.loc	4 57 31 is_stmt 1               @ ../Source/FMCUser.c:57:31
	ldr	r0, [sp, #4]
	.loc	4 57 53 is_stmt 0               @ ../Source/FMCUser.c:57:53
	lsrs	r0, r0, #8
	.loc	4 57 4                          @ ../Source/FMCUser.c:57:4
	ldr	r2, [sp, #20]
	.loc	4 57 11                         @ ../Source/FMCUser.c:57:11
	ldr	r1, [sp, #8]
	.loc	4 57 18                         @ ../Source/FMCUser.c:57:18
	ldr	r3, [sp, #16]
	.loc	4 57 17                         @ ../Source/FMCUser.c:57:17
	subs	r1, r1, r3
	.loc	4 57 24                         @ ../Source/FMCUser.c:57:24
	adds	r1, r1, r2
	.loc	4 57 28                         @ ../Source/FMCUser.c:57:28
	strb	r0, [r1, #2]
	.loc	4 57 4                          @ ../Source/FMCUser.c:57:4
	b	.LBB1_6
.Ltmp21:
.LBB1_6:                                @   in Loop: Header=BB1_1 Depth=1
	.loc	4 60 7 is_stmt 1                @ ../Source/FMCUser.c:60:7
	ldr	r0, [sp, #8]
	.loc	4 60 14 is_stmt 0               @ ../Source/FMCUser.c:60:14
	ldr	r1, [sp, #16]
	.loc	4 60 13                         @ ../Source/FMCUser.c:60:13
	subs	r0, r0, r1
	.loc	4 60 20                         @ ../Source/FMCUser.c:60:20
	adds	r0, r0, #3
	.loc	4 60 26                         @ ../Source/FMCUser.c:60:26
	ldr	r1, [sp, #12]
.Ltmp22:
	.loc	4 60 6                          @ ../Source/FMCUser.c:60:6
	cmp	r0, r1
	bhs	.LBB1_8
	b	.LBB1_7
.LBB1_7:                                @   in Loop: Header=BB1_1 Depth=1
.Ltmp23:
	.loc	4 61 31 is_stmt 1               @ ../Source/FMCUser.c:61:31
	ldr	r0, [sp, #4]
	.loc	4 61 4 is_stmt 0                @ ../Source/FMCUser.c:61:4
	ldr	r2, [sp, #20]
	.loc	4 61 11                         @ ../Source/FMCUser.c:61:11
	ldr	r1, [sp, #8]
	.loc	4 61 18                         @ ../Source/FMCUser.c:61:18
	ldr	r3, [sp, #16]
	.loc	4 61 17                         @ ../Source/FMCUser.c:61:17
	subs	r1, r1, r3
	.loc	4 61 24                         @ ../Source/FMCUser.c:61:24
	adds	r1, r1, r2
	.loc	4 61 28                         @ ../Source/FMCUser.c:61:28
	strb	r0, [r1, #3]
	.loc	4 61 4                          @ ../Source/FMCUser.c:61:4
	b	.LBB1_8
.Ltmp24:
.LBB1_8:                                @   in Loop: Header=BB1_1 Depth=1
	.loc	4 63 2 is_stmt 1                @ ../Source/FMCUser.c:63:2
	b	.LBB1_9
.Ltmp25:
.LBB1_9:                                @   in Loop: Header=BB1_1 Depth=1
	.loc	4 48 54                         @ ../Source/FMCUser.c:48:54
	ldr	r0, [sp, #8]
	adds	r0, r0, #4
	str	r0, [sp, #8]
	.loc	4 48 2 is_stmt 0                @ ../Source/FMCUser.c:48:2
	b	.LBB1_1
.Ltmp26:
.LBB1_10:
	.loc	4 65 1 is_stmt 1                @ ../Source/FMCUser.c:65:1
	add	sp, #24
	pop	{r7, pc}
.Ltmp27:
.Lfunc_end1:
	.size	ReadFMCDataBuffer, .Lfunc_end1-ReadFMCDataBuffer
	.cfi_endproc
	.cantunwind
	.fnend
                                        @ -- End function
	.section	.text.EraseFMCData,"ax",%progbits
	.hidden	EraseFMCData                    @ -- Begin function EraseFMCData
	.globl	EraseFMCData
	.p2align	1
	.type	EraseFMCData,%function
	.code	16                              @ @EraseFMCData
	.thumb_func
EraseFMCData:
.Lfunc_begin2:
	.loc	4 68 0                          @ ../Source/FMCUser.c:68:0
	.fnstart
	.cfi_startproc
@ %bb.0:
	.save	{r7, lr}
	push	{r7, lr}
	.cfi_def_cfa_offset 8
	.cfi_offset lr, -4
	.cfi_offset r7, -8
	.pad	#16
	sub	sp, #16
	.cfi_def_cfa_offset 24
	str	r0, [sp, #12]
	str	r1, [sp, #8]
.Ltmp28:
	.loc	4 71 15 prologue_end            @ ../Source/FMCUser.c:71:15
	ldr	r0, [sp, #12]
	.loc	4 71 13 is_stmt 0               @ ../Source/FMCUser.c:71:13
	str	r0, [sp, #4]
	.loc	4 71 6                          @ ../Source/FMCUser.c:71:6
	b	.LBB2_1
.LBB2_1:                                @ =>This Inner Loop Header: Depth=1
.Ltmp29:
	.loc	4 71 23                         @ ../Source/FMCUser.c:71:23
	ldr	r0, [sp, #4]
	.loc	4 71 33                         @ ../Source/FMCUser.c:71:33
	ldr	r1, [sp, #12]
	.loc	4 71 40                         @ ../Source/FMCUser.c:71:40
	ldr	r2, [sp, #8]
	.loc	4 71 39                         @ ../Source/FMCUser.c:71:39
	adds	r1, r1, r2
.Ltmp30:
	.loc	4 71 2                          @ ../Source/FMCUser.c:71:2
	cmp	r0, r1
	bhs	.LBB2_6
	b	.LBB2_2
.LBB2_2:                                @   in Loop: Header=BB2_1 Depth=1
.Ltmp31:
	.loc	4 73 16 is_stmt 1               @ ../Source/FMCUser.c:73:16
	ldr	r0, [sp, #4]
	.loc	4 73 6 is_stmt 0                @ ../Source/FMCUser.c:73:6
	bl	FMC_Erase
.Ltmp32:
	.loc	4 73 6                          @ ../Source/FMCUser.c:73:6
	cmp	r0, #0
	bpl	.LBB2_4
	b	.LBB2_3
.LBB2_3:
	.loc	4 0 6                           @ ../Source/FMCUser.c:0:6
	movs	r0, #10
.Ltmp33:
	.loc	4 75 4 is_stmt 1                @ ../Source/FMCUser.c:75:4
	bl	Delay
	.loc	4 76 4                          @ ../Source/FMCUser.c:76:4
	b	.LBB2_12
.Ltmp34:
.LBB2_4:                                @   in Loop: Header=BB2_1 Depth=1
	.loc	4 78 2                          @ ../Source/FMCUser.c:78:2
	b	.LBB2_5
.Ltmp35:
.LBB2_5:                                @   in Loop: Header=BB2_1 Depth=1
	.loc	4 71 52                         @ ../Source/FMCUser.c:71:52
	ldr	r0, [sp, #4]
	movs	r1, #1
	lsls	r1, r1, #9
	adds	r0, r0, r1
	str	r0, [sp, #4]
	.loc	4 71 2 is_stmt 0                @ ../Source/FMCUser.c:71:2
	b	.LBB2_1
.Ltmp36:
.LBB2_6:
	.loc	4 79 15 is_stmt 1               @ ../Source/FMCUser.c:79:15
	ldr	r0, [sp, #12]
	.loc	4 79 13 is_stmt 0               @ ../Source/FMCUser.c:79:13
	str	r0, [sp, #4]
	.loc	4 79 6                          @ ../Source/FMCUser.c:79:6
	b	.LBB2_7
.LBB2_7:                                @ =>This Inner Loop Header: Depth=1
.Ltmp37:
	.loc	4 79 23                         @ ../Source/FMCUser.c:79:23
	ldr	r0, [sp, #4]
	.loc	4 79 33                         @ ../Source/FMCUser.c:79:33
	ldr	r1, [sp, #12]
	.loc	4 79 40                         @ ../Source/FMCUser.c:79:40
	ldr	r2, [sp, #8]
	.loc	4 79 39                         @ ../Source/FMCUser.c:79:39
	adds	r1, r1, r2
.Ltmp38:
	.loc	4 79 2                          @ ../Source/FMCUser.c:79:2
	cmp	r0, r1
	bhs	.LBB2_12
	b	.LBB2_8
.LBB2_8:                                @   in Loop: Header=BB2_7 Depth=1
.Ltmp39:
	.loc	4 81 22 is_stmt 1               @ ../Source/FMCUser.c:81:22
	ldr	r0, [sp, #4]
	.loc	4 81 13 is_stmt 0               @ ../Source/FMCUser.c:81:13
	bl	FMC_Read
	.loc	4 81 11                         @ ../Source/FMCUser.c:81:11
	str	r0, [sp]
.Ltmp40:
	.loc	4 82 6 is_stmt 1                @ ../Source/FMCUser.c:82:6
	ldr	r0, [sp]
.Ltmp41:
	.loc	4 82 6 is_stmt 0                @ ../Source/FMCUser.c:82:6
	adds	r0, r0, #1
	cmp	r0, #0
	beq	.LBB2_10
	b	.LBB2_9
.LBB2_9:
	.loc	4 0 6                           @ ../Source/FMCUser.c:0:6
	movs	r0, #10
.Ltmp42:
	.loc	4 84 4 is_stmt 1                @ ../Source/FMCUser.c:84:4
	bl	Delay
	.loc	4 85 4                          @ ../Source/FMCUser.c:85:4
	b	.LBB2_12
.Ltmp43:
.LBB2_10:                               @   in Loop: Header=BB2_7 Depth=1
	.loc	4 87 2                          @ ../Source/FMCUser.c:87:2
	b	.LBB2_11
.Ltmp44:
.LBB2_11:                               @   in Loop: Header=BB2_7 Depth=1
	.loc	4 79 52                         @ ../Source/FMCUser.c:79:52
	ldr	r0, [sp, #4]
	adds	r0, r0, #4
	str	r0, [sp, #4]
	.loc	4 79 2 is_stmt 0                @ ../Source/FMCUser.c:79:2
	b	.LBB2_7
.Ltmp45:
.LBB2_12:
	.loc	4 89 1 is_stmt 1                @ ../Source/FMCUser.c:89:1
	add	sp, #16
	pop	{r7, pc}
.Ltmp46:
.Lfunc_end2:
	.size	EraseFMCData, .Lfunc_end2-EraseFMCData
	.cfi_endproc
	.cantunwind
	.fnend
                                        @ -- End function
	.section	.text.WriteFMCData,"ax",%progbits
	.hidden	WriteFMCData                    @ -- Begin function WriteFMCData
	.globl	WriteFMCData
	.p2align	1
	.type	WriteFMCData,%function
	.code	16                              @ @WriteFMCData
	.thumb_func
WriteFMCData:
.Lfunc_begin3:
	.loc	4 92 0                          @ ../Source/FMCUser.c:92:0
	.fnstart
	.cfi_startproc
@ %bb.0:
	.save	{r7, lr}
	push	{r7, lr}
	.cfi_def_cfa_offset 8
	.cfi_offset lr, -4
	.cfi_offset r7, -8
	.pad	#24
	sub	sp, #24
	.cfi_def_cfa_offset 32
	str	r0, [sp, #20]
	str	r1, [sp, #16]
	str	r2, [sp, #12]
.Ltmp47:
	.loc	4 95 15 prologue_end            @ ../Source/FMCUser.c:95:15
	ldr	r0, [sp, #16]
	.loc	4 95 13 is_stmt 0               @ ../Source/FMCUser.c:95:13
	str	r0, [sp, #8]
	.loc	4 95 6                          @ ../Source/FMCUser.c:95:6
	b	.LBB3_1
.LBB3_1:                                @ =>This Inner Loop Header: Depth=1
.Ltmp48:
	.loc	4 95 22                         @ ../Source/FMCUser.c:95:22
	ldr	r0, [sp, #8]
	.loc	4 95 32                         @ ../Source/FMCUser.c:95:32
	ldr	r1, [sp, #16]
	.loc	4 95 41                         @ ../Source/FMCUser.c:95:41
	ldr	r2, [sp, #12]
	.loc	4 95 39                         @ ../Source/FMCUser.c:95:39
	adds	r1, r1, r2
.Ltmp49:
	.loc	4 95 2                          @ ../Source/FMCUser.c:95:2
	cmp	r0, r1
	bhs	.LBB3_10
	b	.LBB3_2
.LBB3_2:                                @   in Loop: Header=BB3_1 Depth=1
.Ltmp50:
	.loc	4 97 13 is_stmt 1               @ ../Source/FMCUser.c:97:13
	ldr	r0, [sp, #20]
	.loc	4 97 22 is_stmt 0               @ ../Source/FMCUser.c:97:22
	ldr	r1, [sp, #8]
	.loc	4 97 31                         @ ../Source/FMCUser.c:97:31
	ldr	r2, [sp, #16]
	.loc	4 97 29                         @ ../Source/FMCUser.c:97:29
	subs	r1, r1, r2
	.loc	4 97 13                         @ ../Source/FMCUser.c:97:13
	ldrb	r0, [r0, r1]
	.loc	4 97 39                         @ ../Source/FMCUser.c:97:39
	lsls	r0, r0, #24
	.loc	4 97 11                         @ ../Source/FMCUser.c:97:11
	str	r0, [sp, #4]
.Ltmp51:
	.loc	4 98 7 is_stmt 1                @ ../Source/FMCUser.c:98:7
	ldr	r0, [sp, #8]
	.loc	4 98 16 is_stmt 0               @ ../Source/FMCUser.c:98:16
	ldr	r1, [sp, #16]
	.loc	4 98 14                         @ ../Source/FMCUser.c:98:14
	subs	r0, r0, r1
	.loc	4 98 22                         @ ../Source/FMCUser.c:98:22
	adds	r0, r0, #1
	.loc	4 98 27                         @ ../Source/FMCUser.c:98:27
	ldr	r1, [sp, #12]
.Ltmp52:
	.loc	4 98 6                          @ ../Source/FMCUser.c:98:6
	cmp	r0, r1
	bhs	.LBB3_4
	b	.LBB3_3
.LBB3_3:                                @   in Loop: Header=BB3_1 Depth=1
.Ltmp53:
	.loc	4 99 14 is_stmt 1               @ ../Source/FMCUser.c:99:14
	ldr	r1, [sp, #20]
	.loc	4 99 23 is_stmt 0               @ ../Source/FMCUser.c:99:23
	ldr	r0, [sp, #8]
	.loc	4 99 30                         @ ../Source/FMCUser.c:99:30
	ldr	r2, [sp, #16]
	.loc	4 99 29                         @ ../Source/FMCUser.c:99:29
	subs	r0, r0, r2
	.loc	4 99 36                         @ ../Source/FMCUser.c:99:36
	adds	r0, r0, r1
	.loc	4 99 14                         @ ../Source/FMCUser.c:99:14
	ldrb	r0, [r0, #1]
	.loc	4 99 40                         @ ../Source/FMCUser.c:99:40
	lsls	r1, r0, #16
	.loc	4 99 11                         @ ../Source/FMCUser.c:99:11
	ldr	r0, [sp, #4]
	orrs	r0, r1
	str	r0, [sp, #4]
	.loc	4 99 4                          @ ../Source/FMCUser.c:99:4
	b	.LBB3_4
.Ltmp54:
.LBB3_4:                                @   in Loop: Header=BB3_1 Depth=1
	.loc	4 100 7 is_stmt 1               @ ../Source/FMCUser.c:100:7
	ldr	r0, [sp, #8]
	.loc	4 100 16 is_stmt 0              @ ../Source/FMCUser.c:100:16
	ldr	r1, [sp, #16]
	.loc	4 100 14                        @ ../Source/FMCUser.c:100:14
	subs	r0, r0, r1
	.loc	4 100 22                        @ ../Source/FMCUser.c:100:22
	adds	r0, r0, #2
	.loc	4 100 27                        @ ../Source/FMCUser.c:100:27
	ldr	r1, [sp, #12]
.Ltmp55:
	.loc	4 100 6                         @ ../Source/FMCUser.c:100:6
	cmp	r0, r1
	bhs	.LBB3_6
	b	.LBB3_5
.LBB3_5:                                @   in Loop: Header=BB3_1 Depth=1
.Ltmp56:
	.loc	4 101 14 is_stmt 1              @ ../Source/FMCUser.c:101:14
	ldr	r1, [sp, #20]
	.loc	4 101 23 is_stmt 0              @ ../Source/FMCUser.c:101:23
	ldr	r0, [sp, #8]
	.loc	4 101 30                        @ ../Source/FMCUser.c:101:30
	ldr	r2, [sp, #16]
	.loc	4 101 29                        @ ../Source/FMCUser.c:101:29
	subs	r0, r0, r2
	.loc	4 101 36                        @ ../Source/FMCUser.c:101:36
	adds	r0, r0, r1
	.loc	4 101 14                        @ ../Source/FMCUser.c:101:14
	ldrb	r0, [r0, #2]
	.loc	4 101 40                        @ ../Source/FMCUser.c:101:40
	lsls	r1, r0, #8
	.loc	4 101 11                        @ ../Source/FMCUser.c:101:11
	ldr	r0, [sp, #4]
	orrs	r0, r1
	str	r0, [sp, #4]
	.loc	4 101 4                         @ ../Source/FMCUser.c:101:4
	b	.LBB3_6
.Ltmp57:
.LBB3_6:                                @   in Loop: Header=BB3_1 Depth=1
	.loc	4 102 7 is_stmt 1               @ ../Source/FMCUser.c:102:7
	ldr	r0, [sp, #8]
	.loc	4 102 16 is_stmt 0              @ ../Source/FMCUser.c:102:16
	ldr	r1, [sp, #16]
	.loc	4 102 14                        @ ../Source/FMCUser.c:102:14
	subs	r0, r0, r1
	.loc	4 102 22                        @ ../Source/FMCUser.c:102:22
	adds	r0, r0, #3
	.loc	4 102 27                        @ ../Source/FMCUser.c:102:27
	ldr	r1, [sp, #12]
.Ltmp58:
	.loc	4 102 6                         @ ../Source/FMCUser.c:102:6
	cmp	r0, r1
	bhs	.LBB3_8
	b	.LBB3_7
.LBB3_7:                                @   in Loop: Header=BB3_1 Depth=1
.Ltmp59:
	.loc	4 103 14 is_stmt 1              @ ../Source/FMCUser.c:103:14
	ldr	r1, [sp, #20]
	.loc	4 103 23 is_stmt 0              @ ../Source/FMCUser.c:103:23
	ldr	r0, [sp, #8]
	.loc	4 103 30                        @ ../Source/FMCUser.c:103:30
	ldr	r2, [sp, #16]
	.loc	4 103 29                        @ ../Source/FMCUser.c:103:29
	subs	r0, r0, r2
	.loc	4 103 36                        @ ../Source/FMCUser.c:103:36
	adds	r0, r0, r1
	.loc	4 103 14                        @ ../Source/FMCUser.c:103:14
	ldrb	r1, [r0, #3]
	.loc	4 103 11                        @ ../Source/FMCUser.c:103:11
	ldr	r0, [sp, #4]
	orrs	r0, r1
	str	r0, [sp, #4]
	.loc	4 103 4                         @ ../Source/FMCUser.c:103:4
	b	.LBB3_8
.Ltmp60:
.LBB3_8:                                @   in Loop: Header=BB3_1 Depth=1
	.loc	4 105 13 is_stmt 1              @ ../Source/FMCUser.c:105:13
	ldr	r0, [sp, #8]
	.loc	4 105 21 is_stmt 0              @ ../Source/FMCUser.c:105:21
	ldr	r1, [sp, #4]
	.loc	4 105 3                         @ ../Source/FMCUser.c:105:3
	bl	FMC_Write
	.loc	4 106 2 is_stmt 1               @ ../Source/FMCUser.c:106:2
	b	.LBB3_9
.Ltmp61:
.LBB3_9:                                @   in Loop: Header=BB3_1 Depth=1
	.loc	4 95 54                         @ ../Source/FMCUser.c:95:54
	ldr	r0, [sp, #8]
	adds	r0, r0, #4
	str	r0, [sp, #8]
	.loc	4 95 2 is_stmt 0                @ ../Source/FMCUser.c:95:2
	b	.LBB3_1
.Ltmp62:
.LBB3_10:
	.loc	4 107 1 is_stmt 1               @ ../Source/FMCUser.c:107:1
	add	sp, #24
	pop	{r7, pc}
.Ltmp63:
.Lfunc_end3:
	.size	WriteFMCData, .Lfunc_end3-WriteFMCData
	.cfi_endproc
	.cantunwind
	.fnend
                                        @ -- End function
	.section	".note.GNU-stack","",%progbits
	.eabi_attribute	30, 6	@ Tag_ABI_optimization_goals
	.ARM_attribute	16, 1	@ Tag_AV_eba