	.text
	.syntax unified
	.eabi_attribute	67, "2.09"	@ Tag_conformance
	.cpu	cortex-m0
	.eabi_attribute	6, 12	@ Tag_CPU_arch
	.eabi_attribute	7, 77	@ Tag_CPU_arch_profile
	.eabi_attribute	8, 0	@ Tag_ARM_ISA_use
	.eabi_attribute	9, 1	@ Tag_THUMB_ISA_use
	.eabi_attribute	34, 0	@ Tag_CPU_unaligned_access
	.eabi_attribute	17, 1	@ Tag_ABI_PCS_GOT_use
	.eabi_attribute	20, 2	@ Tag_ABI_FP_denormal
	.eabi_attribute	21, 0	@ Tag_ABI_FP_exceptions
	.eabi_attribute	23, 1	@ Tag_ABI_FP_number_model
	.eabi_attribute	24, 1	@ Tag_ABI_align_needed
	.eabi_attribute	25, 1	@ Tag_ABI_align_preserved
	.eabi_attribute	38, 1	@ Tag_ABI_FP_16bit_format
	.eabi_attribute	18, 2	@ Tag_ABI_PCS_wchar_t
	.eabi_attribute	26, 1	@ Tag_ABI_enum_size
	.eabi_attribute	14, 0	@ Tag_ABI_PCS_R9_use
	.file	"Hardware.c"
	.file	1 "C:\\Keil_v5\\ARM\\ARMCLANG\\Bin\\..\\include" "stdint.h"
	.file	2 "D:\\Projects\\CCMSFloridaPhpr\\Application\\KEIL" "../Header/Hardware.h"
	.file	3 "D:\\Projects\\CCMSFloridaPhpr\\Application\\KEIL" "../Source/Hardware.c"
	.file	4 "D:\\Projects\\CCMSFloridaPhpr\\Application\\KEIL" "../../Library/Device/Nuvoton/M031/Include/clk_reg.h"
	.file	5 "D:\\Projects\\CCMSFloridaPhpr\\Application\\KEIL" "../../Library/Device/Nuvoton/M031/Include/sys_reg.h"
	.file	6 "D:\\Projects\\CCMSFloridaPhpr\\Application\\KEIL" "../../Library/Device/Nuvoton/M031/Include/gpio_reg.h"
	.file	7 "D:\\Projects\\CCMSFloridaPhpr\\Application\\KEIL" "../../Library/Device/Nuvoton/M031/Include/adc_reg.h"
	.section	.text.SYS_Init,"ax",%progbits
	.hidden	SYS_Init                        @ -- Begin function SYS_Init
	.globl	SYS_Init
	.p2align	2
	.type	SYS_Init,%function
	.code	16                              @ @SYS_Init
	.thumb_func
SYS_Init:
.Lfunc_begin0:
	.loc	3 40 0                          @ ../Source/Hardware.c:40:0
	.fnstart
	.cfi_sections .debug_frame
	.cfi_startproc
@ %bb.0:
	.save	{r4, lr}
	push	{r4, lr}
	.cfi_def_cfa_offset 8
	.cfi_offset lr, -4
	.cfi_offset r4, -8
	.pad	#40
	sub	sp, #40
	.cfi_def_cfa_offset 48
.Ltmp0:
	.loc	3 42 3 prologue_end             @ ../Source/Hardware.c:42:3
	bl	SYS_UnlockReg
	movs	r0, #12
	.loc	3 46 2                          @ ../Source/Hardware.c:46:2
	bl	CLK_EnableXtalRC
	movs	r0, #2
	.loc	3 47 2                          @ ../Source/Hardware.c:47:2
	str	r0, [sp, #20]                   @ 4-byte Spill
	bl	CLK_DisableXtalRC
	movs	r0, #24
	.loc	3 50 2                          @ ../Source/Hardware.c:50:2
	bl	CLK_WaitClockReady
	.loc	3 60 2                          @ ../Source/Hardware.c:60:2
	bl	CLK_DisablePLL
	ldr	r1, __arm_cp.0_0
	.loc	3 62 23                         @ ../Source/Hardware.c:62:23
	ldr	r0, [r1]
	ldr	r2, __arm_cp.0_1
	.loc	3 62 30 is_stmt 0               @ ../Source/Hardware.c:62:30
	ands	r0, r2
	ldr	r2, __arm_cp.0_2
	.loc	3 62 49                         @ ../Source/Hardware.c:62:49
	adds	r0, r0, r2
	.loc	3 62 15                         @ ../Source/Hardware.c:62:15
	str	r0, [r1]
	movs	r0, #4
	.loc	3 64 3 is_stmt 1                @ ../Source/Hardware.c:64:3
	str	r0, [sp, #4]                    @ 4-byte Spill
	bl	CLK_WaitClockReady
	movs	r0, #7
	movs	r1, #0
	.loc	3 69 2                          @ ../Source/Hardware.c:69:2
	str	r1, [sp, #24]                   @ 4-byte Spill
	bl	CLK_SetHCLK
	ldr	r0, [sp, #24]                   @ 4-byte Reload
	ldr	r1, __arm_cp.0_3
	.loc	3 73 15                         @ ../Source/Hardware.c:73:15
	str	r0, [r1]
	ldr	r0, __arm_cp.0_4
	.loc	3 80 2                          @ ../Source/Hardware.c:80:2
	str	r0, [sp]                        @ 4-byte Spill
	bl	CLK_EnableModuleClock
	ldr	r0, [sp]                        @ 4-byte Reload
	ldr	r2, [sp, #24]                   @ 4-byte Reload
	movs	r1, #32
	.loc	3 81 3                          @ ../Source/Hardware.c:81:3
	bl	CLK_SetModuleClock
	.loc	3 83 47                         @ ../Source/Hardware.c:83:47
	bl	CLK_GetHCLKFreq
	movs	r1, #125
	lsls	r1, r1, #3
	.loc	3 83 65 is_stmt 0               @ ../Source/Hardware.c:83:65
	bl	__aeabi_uidiv
	mov	r1, r0
	.loc	3 83 2                          @ ../Source/Hardware.c:83:2
	ldr	r0, [sp, #4]                    @ 4-byte Reload
	bl	CLK_EnableSysTick
	ldr	r0, __arm_cp.0_5
	.loc	3 88 2 is_stmt 1                @ ../Source/Hardware.c:88:2
	str	r0, [sp, #8]                    @ 4-byte Spill
	bl	CLK_EnableModuleClock
	ldr	r0, [sp, #8]                    @ 4-byte Reload
	ldr	r2, [sp, #24]                   @ 4-byte Reload
	movs	r1, #1
	str	r1, [sp, #12]                   @ 4-byte Spill
	lsls	r1, r1, #30
	.loc	3 89 3                          @ ../Source/Hardware.c:89:3
	bl	CLK_SetModuleClock
	ldr	r0, __arm_cp.0_6
	.loc	3 91 2                          @ ../Source/Hardware.c:91:2
	str	r0, [sp, #16]                   @ 4-byte Spill
	bl	CLK_EnableModuleClock
	ldr	r1, [sp, #12]                   @ 4-byte Reload
	ldr	r0, [sp, #16]                   @ 4-byte Reload
	ldr	r2, [sp, #24]                   @ 4-byte Reload
	lsls	r1, r1, #26
	.loc	3 92 3                          @ ../Source/Hardware.c:92:3
	bl	CLK_SetModuleClock
	ldr	r0, __arm_cp.0_7
	.loc	3 94 2                          @ ../Source/Hardware.c:94:2
	bl	CLK_EnableModuleClock
	ldr	r0, [sp, #20]                   @ 4-byte Reload
	.loc	3 96 1                          @ ../Source/Hardware.c:96:1
	bl	CLK_EnableModuleClock
	.loc	3 105 3                         @ ../Source/Hardware.c:105:3
	bl	SystemCoreClockUpdate
	ldr	r2, [sp, #24]                   @ 4-byte Reload
	ldr	r1, __arm_cp.0_8
	.loc	3 107 17                        @ ../Source/Hardware.c:107:17
	ldr	r0, [r1]
	movs	r3, #255
	bics	r0, r3
	str	r0, [r1]
	.loc	3 108 17                        @ ../Source/Hardware.c:108:17
	ldr	r0, [r1]
	movs	r4, #238
	str	r4, [sp, #28]                   @ 4-byte Spill
	orrs	r0, r4
	str	r0, [r1]
	ldr	r1, __arm_cp.0_9
	.loc	3 110 16                        @ ../Source/Hardware.c:110:16
	str	r1, [sp, #32]                   @ 4-byte Spill
	ldr	r0, [r1]
	lsls	r4, r3, #8
	bics	r0, r4
	str	r0, [r1]
	.loc	3 111 17                        @ ../Source/Hardware.c:111:17
	ldr	r0, [r1]
	movs	r4, #51
	lsls	r4, r4, #9
	orrs	r0, r4
	str	r0, [r1]
	.loc	3 113 16                        @ ../Source/Hardware.c:113:16
	ldr	r0, [r1]
	lsls	r3, r3, #16
	bics	r0, r3
	str	r0, [r1]
	.loc	3 114 17                        @ ../Source/Hardware.c:114:17
	ldr	r0, [r1]
	movs	r3, #221
	lsls	r3, r3, #16
	orrs	r0, r3
	str	r0, [r1]
	ldr	r1, __arm_cp.0_10
	.loc	3 116 24                        @ ../Source/Hardware.c:116:24
	ldr	r0, [r1]
	movs	r3, #153
	.loc	3 116 33 is_stmt 0              @ ../Source/Hardware.c:116:33
	orrs	r0, r3
	movs	r3, #6
	.loc	3 116 89                        @ ../Source/Hardware.c:116:89
	bics	r0, r3
	.loc	3 116 16                        @ ../Source/Hardware.c:116:16
	str	r0, [r1]
	ldr	r0, __arm_cp.0_11
	movs	r1, #3
	.loc	3 126 2 is_stmt 1               @ ../Source/Hardware.c:126:2
	str	r1, [sp, #36]                   @ 4-byte Spill
	bl	GPIO_SetMode
	ldr	r3, [sp, #28]                   @ 4-byte Reload
	ldr	r1, [sp, #32]                   @ 4-byte Reload
	ldr	r2, [sp, #36]                   @ 4-byte Reload
	.loc	3 127 24                        @ ../Source/Hardware.c:127:24
	ldr	r0, [r1]
	movs	r4, #17
	.loc	3 127 33 is_stmt 0              @ ../Source/Hardware.c:127:33
	orrs	r0, r4
	.loc	3 127 89                        @ ../Source/Hardware.c:127:89
	bics	r0, r3
	.loc	3 127 16                        @ ../Source/Hardware.c:127:16
	str	r0, [r1]
	ldr	r1, __arm_cp.0_12
	.loc	3 130 2 is_stmt 1               @ ../Source/Hardware.c:130:2
	ldr	r0, [r1]
	lsls	r2, r2, #16
	orrs	r0, r2
	str	r0, [r1]
	.loc	3 133 5                         @ ../Source/Hardware.c:133:5
	bl	SYS_LockReg
	.loc	3 134 1                         @ ../Source/Hardware.c:134:1
	add	sp, #40
	pop	{r4, pc}
.Ltmp1:
	.p2align	2
@ %bb.1:
	.loc	3 0 1 is_stmt 0                 @ ../Source/Hardware.c:0:1
__arm_cp.0_0:
	.long	1073742400                      @ 0x40000240
.Lcpi_end0:
	.size	__arm_cp.0_0, .Lcpi_end0-__arm_cp.0_0
__arm_cp.0_1:
	.long	4293918720                      @ 0xfff00000
.Lcpi_end1:
	.size	__arm_cp.0_1, .Lcpi_end1-__arm_cp.0_1
__arm_cp.0_2:
	.long	573502                          @ 0x8c03e
.Lcpi_end2:
	.size	__arm_cp.0_2, .Lcpi_end2-__arm_cp.0_2
__arm_cp.0_3:
	.long	1073742388                      @ 0x40000234
.Lcpi_end3:
	.size	__arm_cp.0_3, .Lcpi_end3-__arm_cp.0_3
__arm_cp.0_4:
	.long	1715470349                      @ 0x6640000d
.Lcpi_end4:
	.size	__arm_cp.0_4, .Lcpi_end4-__arm_cp.0_4
__arm_cp.0_5:
	.long	1606434193                      @ 0x5fc03d91
.Lcpi_end5:
	.size	__arm_cp.0_5, .Lcpi_end5-__arm_cp.0_5
__arm_cp.0_6:
	.long	2139896850                      @ 0x7f8c3c12
.Lcpi_end6:
	.size	__arm_cp.0_6, .Lcpi_end6-__arm_cp.0_6
__arm_cp.0_7:
	.long	1073741832                      @ 0x40000008
.Lcpi_end7:
	.size	__arm_cp.0_7, .Lcpi_end7-__arm_cp.0_7
__arm_cp.0_8:
	.long	1073741912                      @ 0x40000058
.Lcpi_end8:
	.size	__arm_cp.0_8, .Lcpi_end8-__arm_cp.0_8
__arm_cp.0_9:
	.long	1073741880                      @ 0x40000038
.Lcpi_end9:
	.size	__arm_cp.0_9, .Lcpi_end9-__arm_cp.0_9
__arm_cp.0_10:
	.long	1073741888                      @ 0x40000040
.Lcpi_end10:
	.size	__arm_cp.0_10, .Lcpi_end10-__arm_cp.0_10
__arm_cp.0_11:
	.long	1073758272                      @ 0x40004040
.Lcpi_end11:
	.size	__arm_cp.0_11, .Lcpi_end11-__arm_cp.0_11
__arm_cp.0_12:
	.long	1073758276                      @ 0x40004044
.Lcpi_end12:
	.size	__arm_cp.0_12, .Lcpi_end12-__arm_cp.0_12
.Lfunc_end0:
	.size	SYS_Init, .Lfunc_end0-SYS_Init
	.cfi_endproc
	.cantunwind
	.fnend
                                        @ -- End function
	.section	.text.SYS_UnlockReg,"ax",%progbits
	.p2align	2                               @ -- Begin function SYS_UnlockReg
	.type	SYS_UnlockReg,%function
	.code	16                              @ @SYS_UnlockReg
	.thumb_func
SYS_UnlockReg:
.Lfunc_begin1:
	.file	8 "D:\\Projects\\CCMSFloridaPhpr\\Application\\KEIL" "../../Library/StdDriver/inc\\sys.h"
	.loc	8 1344 0 is_stmt 1              @ ../../Library/StdDriver/inc\sys.h:1344:0
	.fnstart
	.cfi_startproc
@ %bb.0:
	.loc	8 1345 5 prologue_end           @ ../../Library/StdDriver/inc\sys.h:1345:5
	b	.LBB1_1
.LBB1_1:                                @ =>This Inner Loop Header: Depth=1
	.loc	8 0 5 is_stmt 0                 @ ../../Library/StdDriver/inc\sys.h:0:5
	ldr	r1, __arm_cp.1_0
	movs	r0, #89
.Ltmp2:
	.loc	8 1346 22 is_stmt 1             @ ../../Library/StdDriver/inc\sys.h:1346:22
	str	r0, [r1]
	movs	r0, #22
	.loc	8 1347 22                       @ ../../Library/StdDriver/inc\sys.h:1347:22
	str	r0, [r1]
	movs	r0, #136
	.loc	8 1348 22                       @ ../../Library/StdDriver/inc\sys.h:1348:22
	str	r0, [r1]
	.loc	8 1349 5                        @ ../../Library/StdDriver/inc\sys.h:1349:5
	b	.LBB1_2
.Ltmp3:
.LBB1_2:                                @   in Loop: Header=BB1_1 Depth=1
	.loc	8 0 5 is_stmt 0                 @ ../../Library/StdDriver/inc\sys.h:0:5
	ldr	r0, __arm_cp.1_0
	.loc	8 1349 19                       @ ../../Library/StdDriver/inc\sys.h:1349:19
	ldr	r0, [r0]
.Ltmp4:
	.loc	8 1349 5                        @ ../../Library/StdDriver/inc\sys.h:1349:5
	cmp	r0, #0
	beq	.LBB1_1
	b	.LBB1_3
.Ltmp5:
.LBB1_3:
	.loc	8 1350 1 is_stmt 1              @ ../../Library/StdDriver/inc\sys.h:1350:1
	bx	lr
.Ltmp6:
	.p2align	2
@ %bb.4:
	.loc	8 0 1 is_stmt 0                 @ ../../Library/StdDriver/inc\sys.h:0:1
__arm_cp.1_0:
	.long	1073742080                      @ 0x40000100
.Lcpi_end13:
	.size	__arm_cp.1_0, .Lcpi_end13-__arm_cp.1_0
.Lfunc_end1:
	.size	SYS_UnlockReg, .Lfunc_end1-SYS_UnlockReg
	.cfi_endproc
	.cantunwind
	.fnend
                                        @ -- End function
	.section	.text.SYS_LockReg,"ax",%progbits
	.p2align	2                               @ -- Begin function SYS_LockReg
	.type	SYS_LockReg,%function
	.code	16                              @ @SYS_LockReg
	.thumb_func
SYS_LockReg:
.Lfunc_begin2:
	.loc	8 1361 0 is_stmt 1              @ ../../Library/StdDriver/inc\sys.h:1361:0
	.fnstart
	.cfi_startproc
@ %bb.0:
	ldr	r1, __arm_cp.2_0
	movs	r0, #0
.Ltmp7:
	.loc	8 1362 18 prologue_end          @ ../../Library/StdDriver/inc\sys.h:1362:18
	str	r0, [r1]
	.loc	8 1363 1                        @ ../../Library/StdDriver/inc\sys.h:1363:1
	bx	lr
.Ltmp8:
	.p2align	2
@ %bb.1:
	.loc	8 0 1 is_stmt 0                 @ ../../Library/StdDriver/inc\sys.h:0:1
__arm_cp.2_0:
	.long	1073742080                      @ 0x40000100
.Lcpi_end14:
	.size	__arm_cp.2_0, .Lcpi_end14-__arm_cp.2_0
.Lfunc_end2:
	.size	SYS_LockReg, .Lfunc_end2-SYS_LockReg
	.cfi_endproc
	.cantunwind
	.fnend
                                        @ -- End function
	.section	.text.UpdateADC,"ax",%progbits
	.hidden	UpdateADC                       @ -- Begin function UpdateADC
	.globl	UpdateADC
	.p2align	2
	.type	UpdateADC,%function
	.code	16                              @ @UpdateADC
	.thumb_func
UpdateADC:
.Lfunc_begin3:
	.loc	3 161 0 is_stmt 1               @ ../Source/Hardware.c:161:0
	.fnstart
	.cfi_startproc
@ %bb.0:
	.pad	#4
	sub	sp, #4
	.cfi_def_cfa_offset 4
	ldr	r0, __arm_cp.3_0
	movs	r2, #1
.Ltmp9:
	.loc	3 163 2 prologue_end            @ ../Source/Hardware.c:163:2
	str	r2, [r0]
	ldr	r1, __arm_cp.3_1
	.loc	3 164 3                         @ ../Source/Hardware.c:164:3
	ldr	r0, [r1]
	lsls	r2, r2, #11
	orrs	r0, r2
	str	r0, [r1]
	.loc	3 165 2                         @ ../Source/Hardware.c:165:2
	b	.LBB3_1
.LBB3_1:                                @ =>This Inner Loop Header: Depth=1
	.loc	3 0 2 is_stmt 0                 @ ../Source/Hardware.c:0:2
	ldr	r0, __arm_cp.3_0
	.loc	3 165 9                         @ ../Source/Hardware.c:165:9
	ldr	r0, [r0]
	.loc	3 165 2                         @ ../Source/Hardware.c:165:2
	lsls	r0, r0, #31
	cmp	r0, #0
	bne	.LBB3_3
	b	.LBB3_2
.LBB3_2:                                @   in Loop: Header=BB3_1 Depth=1
	b	.LBB3_1
.LBB3_3:
	.loc	3 0 2                           @ ../Source/Hardware.c:0:2
	ldr	r1, __arm_cp.3_0
	movs	r0, #1
	.loc	3 166 2 is_stmt 1               @ ../Source/Hardware.c:166:2
	str	r0, [r1]
	mov	r1, sp
	movs	r0, #0
.Ltmp10:
	.loc	3 167 8                         @ ../Source/Hardware.c:167:8
	strh	r0, [r1]
	.loc	3 167 6 is_stmt 0               @ ../Source/Hardware.c:167:6
	b	.LBB3_4
.LBB3_4:                                @ =>This Inner Loop Header: Depth=1
	.loc	3 0 6                           @ ../Source/Hardware.c:0:6
	mov	r0, sp
.Ltmp11:
	.loc	3 167 13                        @ ../Source/Hardware.c:167:13
	ldrh	r0, [r0]
.Ltmp12:
	.loc	3 167 2                         @ ../Source/Hardware.c:167:2
	cmp	r0, #1
	bgt	.LBB3_7
	b	.LBB3_5
.LBB3_5:                                @   in Loop: Header=BB3_4 Depth=1
	.loc	3 0 2                           @ ../Source/Hardware.c:0:2
	mov	r1, sp
.Ltmp13:
	.loc	3 169 13 is_stmt 1              @ ../Source/Hardware.c:169:13
	ldrh	r0, [r1]
	lsls	r0, r0, #2
	ldr	r2, __arm_cp.3_2
	ldr	r0, [r0, r2]
	.loc	3 169 10 is_stmt 0              @ ../Source/Hardware.c:169:10
	ldrh	r1, [r1]
	.loc	3 169 3                         @ ../Source/Hardware.c:169:3
	lsls	r2, r1, #1
	ldr	r1, __arm_cp.3_3
	.loc	3 169 12                        @ ../Source/Hardware.c:169:12
	strh	r0, [r1, r2]
	.loc	3 170 2 is_stmt 1               @ ../Source/Hardware.c:170:2
	b	.LBB3_6
.Ltmp14:
.LBB3_6:                                @   in Loop: Header=BB3_4 Depth=1
	.loc	3 167 18                        @ ../Source/Hardware.c:167:18
	ldr	r0, [sp]
	adds	r0, r0, #1
	mov	r1, sp
	strh	r0, [r1]
	.loc	3 167 2 is_stmt 0               @ ../Source/Hardware.c:167:2
	b	.LBB3_4
.Ltmp15:
.LBB3_7:
	.loc	3 0 2                           @ ../Source/Hardware.c:0:2
	ldr	r1, __arm_cp.3_1
	.loc	3 171 2 is_stmt 1               @ ../Source/Hardware.c:171:2
	ldr	r0, [r1]
	movs	r2, #1
	lsls	r2, r2, #11
	bics	r0, r2
	str	r0, [r1]
	.loc	3 172 1                         @ ../Source/Hardware.c:172:1
	add	sp, #4
	bx	lr
.Ltmp16:
	.p2align	2
@ %bb.8:
	.loc	3 0 1 is_stmt 0                 @ ../Source/Hardware.c:0:1
__arm_cp.3_0:
	.long	1074016400                      @ 0x40043090
.Lcpi_end15:
	.size	__arm_cp.3_0, .Lcpi_end15-__arm_cp.3_0
__arm_cp.3_1:
	.long	1074016384                      @ 0x40043080
.Lcpi_end16:
	.size	__arm_cp.3_1, .Lcpi_end16-__arm_cp.3_1
__arm_cp.3_2:
	.long	1074016256                      @ 0x40043000
.Lcpi_end17:
	.size	__arm_cp.3_2, .Lcpi_end17-__arm_cp.3_2
__arm_cp.3_3:
	.long	ADCVal
.Lcpi_end18:
	.size	__arm_cp.3_3, .Lcpi_end18-__arm_cp.3_3
.Lfunc_end3:
	.size	UpdateADC, .Lfunc_end3-UpdateADC
	.cfi_endproc
	.cantunwind
	.fnend
                                        @ -- End function
	.section	.text.PeripheralInit,"ax",%progbits
	.hidden	PeripheralInit                  @ -- Begin function PeripheralInit
	.globl	PeripheralInit
	.p2align	2
	.type	PeripheralInit,%function
	.code	16                              @ @PeripheralInit
	.thumb_func
PeripheralInit:
.Lfunc_begin4:
	.loc	3 176 0 is_stmt 1               @ ../Source/Hardware.c:176:0
	.fnstart
	.cfi_startproc
@ %bb.0:
	.save	{r7, lr}
	push	{r7, lr}
	.cfi_def_cfa_offset 8
	.cfi_offset lr, -4
	.cfi_offset r7, -8
.Ltmp17:
	.loc	3 177 2 prologue_end            @ ../Source/Hardware.c:177:2
	bl	IOInit
	.loc	3 178 29                        @ ../Source/Hardware.c:178:29
	ldr	r1, __arm_cp.4_0
	movs	r0, #125
	lsls	r0, r0, #4
	str	r0, [r1, #48]
	.loc	3 181 1                         @ ../Source/Hardware.c:181:1
	pop	{r7, pc}
.Ltmp18:
	.p2align	2
@ %bb.1:
	.loc	3 0 1 is_stmt 0                 @ ../Source/Hardware.c:0:1
__arm_cp.4_0:
	.long	PeriPheralVal
.Lcpi_end19:
	.size	__arm_cp.4_0, .Lcpi_end19-__arm_cp.4_0
.Lfunc_end4:
	.size	PeripheralInit, .Lfunc_end4-PeripheralInit
	.cfi_endproc
	.cantunwind
	.fnend
                                        @ -- End function
	.section	.text.IOInit,"ax",%progbits
	.p2align	2                               @ -- Begin function IOInit
	.type	IOInit,%function
	.code	16                              @ @IOInit
	.thumb_func
IOInit:
.Lfunc_begin5:
	.loc	3 137 0 is_stmt 1               @ ../Source/Hardware.c:137:0
	.fnstart
	.cfi_startproc
@ %bb.0:
	.save	{r7, lr}
	push	{r7, lr}
	.cfi_def_cfa_offset 8
	.cfi_offset lr, -4
	.cfi_offset r7, -8
	.pad	#16
	sub	sp, #16
	.cfi_def_cfa_offset 24
	movs	r0, #1
	str	r0, [sp, #8]                    @ 4-byte Spill
	lsls	r1, r0, #13
	ldr	r0, __arm_cp.5_0
	str	r0, [sp]                        @ 4-byte Spill
	movs	r2, #0
.Ltmp19:
	.loc	3 138 2 prologue_end            @ ../Source/Hardware.c:138:2
	str	r2, [sp, #12]                   @ 4-byte Spill
	bl	GPIO_SetMode
	ldr	r0, [sp]                        @ 4-byte Reload
	ldr	r1, [sp, #8]                    @ 4-byte Reload
	ldr	r2, [sp, #12]                   @ 4-byte Reload
	lsls	r1, r1, #14
	.loc	3 139 2                         @ ../Source/Hardware.c:139:2
	bl	GPIO_SetMode
	ldr	r0, [sp]                        @ 4-byte Reload
	ldr	r1, [sp, #8]                    @ 4-byte Reload
	ldr	r2, [sp, #12]                   @ 4-byte Reload
	lsls	r1, r1, #15
	.loc	3 140 2                         @ ../Source/Hardware.c:140:2
	bl	GPIO_SetMode
	ldr	r2, [sp, #8]                    @ 4-byte Reload
	ldr	r0, __arm_cp.5_1
	str	r0, [sp, #4]                    @ 4-byte Spill
	movs	r1, #16
	.loc	3 141 2                         @ ../Source/Hardware.c:141:2
	bl	GPIO_SetMode
	ldr	r0, [sp, #4]                    @ 4-byte Reload
	ldr	r2, [sp, #8]                    @ 4-byte Reload
	movs	r1, #8
	.loc	3 142 2                         @ ../Source/Hardware.c:142:2
	bl	GPIO_SetMode
	ldr	r0, [sp, #4]                    @ 4-byte Reload
	ldr	r2, [sp, #8]                    @ 4-byte Reload
	movs	r1, #4
	.loc	3 143 2                         @ ../Source/Hardware.c:143:2
	bl	GPIO_SetMode
	ldr	r2, [sp, #8]                    @ 4-byte Reload
	ldr	r0, __arm_cp.5_2
	movs	r1, #64
	.loc	3 144 2                         @ ../Source/Hardware.c:144:2
	bl	GPIO_SetMode
	ldr	r0, [sp, #4]                    @ 4-byte Reload
	ldr	r2, [sp, #8]                    @ 4-byte Reload
	movs	r1, #32
	.loc	3 146 2                         @ ../Source/Hardware.c:146:2
	bl	GPIO_SetMode
	ldr	r0, [sp, #12]                   @ 4-byte Reload
	ldr	r1, __arm_cp.5_3
	.loc	3 147 2                         @ ../Source/Hardware.c:147:2
	str	r0, [r1]
	ldr	r1, __arm_cp.5_4
	str	r0, [r1]
	ldr	r1, __arm_cp.5_5
	str	r0, [r1]
	ldr	r1, __arm_cp.5_6
	str	r0, [r1]
	.loc	3 148 1                         @ ../Source/Hardware.c:148:1
	add	sp, #16
	pop	{r7, pc}
.Ltmp20:
	.p2align	2
@ %bb.1:
	.loc	3 0 1 is_stmt 0                 @ ../Source/Hardware.c:0:1
__arm_cp.5_0:
	.long	1073758208                      @ 0x40004000
.Lcpi_end20:
	.size	__arm_cp.5_0, .Lcpi_end20-__arm_cp.5_0
__arm_cp.5_1:
	.long	1073758336                      @ 0x40004080
.Lcpi_end21:
	.size	__arm_cp.5_1, .Lcpi_end21-__arm_cp.5_1
__arm_cp.5_2:
	.long	1073758272                      @ 0x40004040
.Lcpi_end22:
	.size	__arm_cp.5_2, .Lcpi_end22-__arm_cp.5_2
__arm_cp.5_3:
	.long	1073760400                      @ 0x40004890
.Lcpi_end23:
	.size	__arm_cp.5_3, .Lcpi_end23-__arm_cp.5_3
__arm_cp.5_4:
	.long	1073760396                      @ 0x4000488c
.Lcpi_end24:
	.size	__arm_cp.5_4, .Lcpi_end24-__arm_cp.5_4
__arm_cp.5_5:
	.long	1073760392                      @ 0x40004888
.Lcpi_end25:
	.size	__arm_cp.5_5, .Lcpi_end25-__arm_cp.5_5
__arm_cp.5_6:
	.long	1073760404                      @ 0x40004894
.Lcpi_end26:
	.size	__arm_cp.5_6, .Lcpi_end26-__arm_cp.5_6
.Lfunc_end5:
	.size	IOInit, .Lfunc_end5-IOInit
	.cfi_endproc
	.cantunwind
	.fnend
                                        @ -- End function
	.section	.text.ProcessPeripheral,"ax",%progbits
	.hidden	ProcessPeripheral               @ -- Begin function ProcessPeripheral
	.globl	ProcessPeripheral
	.p2align	2
	.type	ProcessPeripheral,%function
	.code	16                              @ @ProcessPeripheral
	.thumb_func
ProcessPeripheral:
.Lfunc_begin6:
	.loc	3 188 0 is_stmt 1               @ ../Source/Hardware.c:188:0
	.fnstart
	.cfi_startproc
@ %bb.0:
	.save	{r7, lr}
	push	{r7, lr}
	.cfi_def_cfa_offset 8
	.cfi_offset lr, -4
	.cfi_offset r7, -8
	.pad	#16
	sub	sp, #16
	.cfi_def_cfa_offset 24
	ldr	r0, __arm_cp.6_0
.Ltmp21:
	.loc	3 190 20 prologue_end           @ ../Source/Hardware.c:190:20
	ldr	r0, [r0]
	.loc	3 190 19 is_stmt 0              @ ../Source/Hardware.c:190:19
	ldr	r1, __arm_cp.6_1
	str	r1, [sp, #8]                    @ 4-byte Spill
	strb	r0, [r1]
	ldr	r0, __arm_cp.6_2
	.loc	3 191 20 is_stmt 1              @ ../Source/Hardware.c:191:20
	ldr	r0, [r0]
	.loc	3 191 19 is_stmt 0              @ ../Source/Hardware.c:191:19
	strb	r0, [r1, #1]
	ldr	r0, __arm_cp.6_3
	.loc	3 192 20 is_stmt 1              @ ../Source/Hardware.c:192:20
	ldr	r0, [r0]
	.loc	3 192 19 is_stmt 0              @ ../Source/Hardware.c:192:19
	strb	r0, [r1, #2]
	.loc	3 193 24 is_stmt 1              @ ../Source/Hardware.c:193:24
	ldr	r0, __arm_cp.6_4
	str	r0, [sp]                        @ 4-byte Spill
	ldrh	r0, [r0, #4]
	bl	__aeabi_ui2d
	ldr	r2, [sp, #8]                    @ 4-byte Reload
	mov	r3, r0
	ldr	r0, [sp]                        @ 4-byte Reload
	str	r3, [sp, #4]                    @ 4-byte Spill
	mov	r3, r1
	.loc	3 193 23 is_stmt 0              @ ../Source/Hardware.c:193:23
	ldr	r1, [sp, #4]                    @ 4-byte Reload
	str	r3, [r2, #36]
	str	r1, [r2, #32]
	.loc	3 194 24 is_stmt 1              @ ../Source/Hardware.c:194:24
	ldrh	r0, [r0, #2]
	bl	__aeabi_ui2d
	mov	r2, r0
	ldr	r0, [sp, #8]                    @ 4-byte Reload
	str	r2, [sp, #12]                   @ 4-byte Spill
	mov	r2, r1
	.loc	3 194 23 is_stmt 0              @ ../Source/Hardware.c:194:23
	ldr	r1, [sp, #12]                   @ 4-byte Reload
	str	r2, [r0, #44]
	str	r1, [r0, #40]
	.loc	3 195 27 is_stmt 1              @ ../Source/Hardware.c:195:27
	ldrb	r1, [r0, #4]
	ldr	r2, __arm_cp.6_5
	.loc	3 195 11 is_stmt 0              @ ../Source/Hardware.c:195:11
	str	r1, [r2]
	.loc	3 196 27 is_stmt 1              @ ../Source/Hardware.c:196:27
	ldrb	r1, [r0, #5]
	ldr	r2, __arm_cp.6_6
	.loc	3 196 11 is_stmt 0              @ ../Source/Hardware.c:196:11
	str	r1, [r2]
	.loc	3 197 27 is_stmt 1              @ ../Source/Hardware.c:197:27
	ldrb	r1, [r0, #6]
	ldr	r2, __arm_cp.6_7
	.loc	3 197 11 is_stmt 0              @ ../Source/Hardware.c:197:11
	str	r1, [r2]
	.loc	3 198 24 is_stmt 1              @ ../Source/Hardware.c:198:24
	ldrb	r1, [r0, #3]
	ldr	r2, __arm_cp.6_8
	.loc	3 198 8 is_stmt 0               @ ../Source/Hardware.c:198:8
	str	r1, [r2]
	.loc	3 199 27 is_stmt 1              @ ../Source/Hardware.c:199:27
	ldrb	r0, [r0, #9]
	ldr	r1, __arm_cp.6_9
	.loc	3 199 11 is_stmt 0              @ ../Source/Hardware.c:199:11
	str	r0, [r1]
	.loc	3 201 1 is_stmt 1               @ ../Source/Hardware.c:201:1
	add	sp, #16
	pop	{r7, pc}
.Ltmp22:
	.p2align	2
@ %bb.1:
	.loc	3 0 1 is_stmt 0                 @ ../Source/Hardware.c:0:1
__arm_cp.6_0:
	.long	1073760308                      @ 0x40004834
.Lcpi_end27:
	.size	__arm_cp.6_0, .Lcpi_end27-__arm_cp.6_0
__arm_cp.6_1:
	.long	PeriPheralVal
.Lcpi_end28:
	.size	__arm_cp.6_1, .Lcpi_end28-__arm_cp.6_1
__arm_cp.6_2:
	.long	1073760312                      @ 0x40004838
.Lcpi_end29:
	.size	__arm_cp.6_2, .Lcpi_end29-__arm_cp.6_2
__arm_cp.6_3:
	.long	1073760316                      @ 0x4000483c
.Lcpi_end30:
	.size	__arm_cp.6_3, .Lcpi_end30-__arm_cp.6_3
__arm_cp.6_4:
	.long	ADCVal
.Lcpi_end31:
	.size	__arm_cp.6_4, .Lcpi_end31-__arm_cp.6_4
__arm_cp.6_5:
	.long	1073760400                      @ 0x40004890
.Lcpi_end32:
	.size	__arm_cp.6_5, .Lcpi_end32-__arm_cp.6_5
__arm_cp.6_6:
	.long	1073760396                      @ 0x4000488c
.Lcpi_end33:
	.size	__arm_cp.6_6, .Lcpi_end33-__arm_cp.6_6
__arm_cp.6_7:
	.long	1073760392                      @ 0x40004888
.Lcpi_end34:
	.size	__arm_cp.6_7, .Lcpi_end34-__arm_cp.6_7
__arm_cp.6_8:
	.long	1073760404                      @ 0x40004894
.Lcpi_end35:
	.size	__arm_cp.6_8, .Lcpi_end35-__arm_cp.6_8
__arm_cp.6_9:
	.long	1073760344                      @ 0x40004858
.Lcpi_end36:
	.size	__arm_cp.6_9, .Lcpi_end36-__arm_cp.6_9
.Lfunc_end6:
	.size	ProcessPeripheral, .Lfunc_end6-ProcessPeripheral
	.cfi_endproc
	.cantunwind
	.fnend
                                        @ -- End function
	.section	.text.ProcessRTC,"ax",%progbits
	.hidden	ProcessRTC                      @ -- Begin function ProcessRTC
	.globl	ProcessRTC
	.p2align	2
	.type	ProcessRTC,%function
	.code	16                              @ @ProcessRTC
	.thumb_func
ProcessRTC:
.Lfunc_begin7:
	.loc	3 204 0 is_stmt 1               @ ../Source/Hardware.c:204:0
	.fnstart
	.cfi_startproc
@ %bb.0:
	.save	{r7, lr}
	push	{r7, lr}
	.cfi_def_cfa_offset 8
	.cfi_offset lr, -4
	.cfi_offset r7, -8
.Ltmp23:
	.loc	3 206 5 prologue_end            @ ../Source/Hardware.c:206:5
	ldr	r0, __arm_cp.7_0
	ldrb	r0, [r0]
.Ltmp24:
	.loc	3 206 5 is_stmt 0               @ ../Source/Hardware.c:206:5
	cmp	r0, #0
	beq	.LBB7_8
	b	.LBB7_1
.LBB7_1:
.Ltmp25:
	.loc	3 208 6 is_stmt 1               @ ../Source/Hardware.c:208:6
	ldr	r0, __arm_cp.7_1
	ldrb	r0, [r0]
.Ltmp26:
	.loc	3 208 6 is_stmt 0               @ ../Source/Hardware.c:208:6
	cmp	r0, #0
	beq	.LBB7_3
	b	.LBB7_2
.LBB7_2:
.Ltmp27:
	.loc	3 210 4 is_stmt 1               @ ../Source/Hardware.c:210:4
	ldr	r0, __arm_cp.7_2
	bl	DS1307_SetTime
	.loc	3 211 12                        @ ../Source/Hardware.c:211:12
	ldr	r1, __arm_cp.7_1
	movs	r0, #0
	strb	r0, [r1]
	.loc	3 212 4                         @ ../Source/Hardware.c:212:4
	b	.LBB7_8
.Ltmp28:
.LBB7_3:
	.loc	3 214 3                         @ ../Source/Hardware.c:214:3
	ldr	r0, __arm_cp.7_2
	bl	DS1307_GetTime
.Ltmp29:
	.loc	3 215 7                         @ ../Source/Hardware.c:215:7
	ldr	r0, __arm_cp.7_3
	ldrb	r0, [r0]
.Ltmp30:
	.loc	3 215 6 is_stmt 0               @ ../Source/Hardware.c:215:6
	cmp	r0, #0
	bne	.LBB7_7
	b	.LBB7_4
.LBB7_4:
.Ltmp31:
	.loc	3 217 19 is_stmt 1              @ ../Source/Hardware.c:217:19
	ldr	r0, __arm_cp.7_2
	ldrh	r0, [r0]
.Ltmp32:
	.loc	3 217 7 is_stmt 0               @ ../Source/Hardware.c:217:7
	cmp	r0, #23
	blt	.LBB7_6
	b	.LBB7_5
.LBB7_5:
.Ltmp33:
	.loc	3 218 14 is_stmt 1              @ ../Source/Hardware.c:218:14
	ldr	r1, __arm_cp.7_3
	movs	r0, #1
	strb	r0, [r1]
	.loc	3 218 5 is_stmt 0               @ ../Source/Hardware.c:218:5
	b	.LBB7_6
.Ltmp34:
.LBB7_6:
	.loc	3 219 3 is_stmt 1               @ ../Source/Hardware.c:219:3
	b	.LBB7_7
.Ltmp35:
.LBB7_7:
	.loc	3 220 2                         @ ../Source/Hardware.c:220:2
	b	.LBB7_8
.Ltmp36:
.LBB7_8:
	.loc	3 221 1                         @ ../Source/Hardware.c:221:1
	pop	{r7, pc}
.Ltmp37:
	.p2align	2
@ %bb.9:
	.loc	3 0 1 is_stmt 0                 @ ../Source/Hardware.c:0:1
__arm_cp.7_0:
	.long	IsRTC
.Lcpi_end37:
	.size	__arm_cp.7_0, .Lcpi_end37-__arm_cp.7_0
__arm_cp.7_1:
	.long	IsRTCSet
.Lcpi_end38:
	.size	__arm_cp.7_1, .Lcpi_end38-__arm_cp.7_1
__arm_cp.7_2:
	.long	RTCDateTime
.Lcpi_end39:
	.size	__arm_cp.7_2, .Lcpi_end39-__arm_cp.7_2
__arm_cp.7_3:
	.long	IsTimeSet
.Lcpi_end40:
	.size	__arm_cp.7_3, .Lcpi_end40-__arm_cp.7_3
.Lfunc_end7:
	.size	ProcessRTC, .Lfunc_end7-ProcessRTC
	.cfi_endproc
	.cantunwind
	.fnend
                                        @ -- End function
	.hidden	ADCVal                          @ @ADCVal
	.type	ADCVal,%object
	.section	.bss.ADCVal,"aw",%nobits
	.globl	ADCVal
	.p2align	1
ADCVal:
	.zero	8
	.size	ADCVal, 8

	.hidden	PeriPheralVal                   @ @PeriPheralVal
	.type	PeriPheralVal,%object
	.section	.bss.PeriPheralVal,"aw",%nobits
	.globl	PeriPheralVal
	.p2align	3
PeriPheralVal:
	.zero	56
	.size	PeriPheralVal, 56

	.hidden	IsRTCSet                        @ @IsRTCSet
	.type	IsRTCSet,%object
	.section	.bss.IsRTCSet,"aw",%nobits
	.globl	IsRTCSet
IsRTCSet:
	.byte	0                               @ 0x0
	.size	IsRTCSet, 1

	.section	".note.GNU-stack","",%progbits
	.eabi_attribute	30, 6	@ Tag_ABI_optimization_goals
	.ARM_attribute	16, 1	@ Tag_AV_eba