	.text
	.syntax unified
	.eabi_attribute	67, "2.09"	@ Tag_conformance
	.cpu	cortex-m0
	.eabi_attribute	6, 12	@ Tag_CPU_arch
	.eabi_attribute	7, 77	@ Tag_CPU_arch_profile
	.eabi_attribute	8, 0	@ Tag_ARM_ISA_use
	.eabi_attribute	9, 1	@ Tag_THUMB_ISA_use
	.eabi_attribute	34, 0	@ Tag_CPU_unaligned_access
	.eabi_attribute	17, 1	@ Tag_ABI_PCS_GOT_use
	.eabi_attribute	20, 2	@ Tag_ABI_FP_denormal
	.eabi_attribute	21, 0	@ Tag_ABI_FP_exceptions
	.eabi_attribute	23, 1	@ Tag_ABI_FP_number_model
	.eabi_attribute	24, 1	@ Tag_ABI_align_needed
	.eabi_attribute	25, 1	@ Tag_ABI_align_preserved
	.eabi_attribute	38, 1	@ Tag_ABI_FP_16bit_format
	.eabi_attribute	18, 2	@ Tag_ABI_PCS_wchar_t
	.eabi_attribute	26, 1	@ Tag_ABI_enum_size
	.eabi_attribute	14, 0	@ Tag_ABI_PCS_R9_use
	.file	"i2c.c"
	.file	1 "C:\\Keil_v5\\ARM\\ARMCLANG\\Bin\\..\\include" "stdint.h"
	.file	2 "D:\\Projects\\CCMSFloridaPhpr\\Application\\KEIL" "../../Library/StdDriver/src/i2c.c"
	.file	3 "D:\\Projects\\CCMSFloridaPhpr\\Application\\KEIL" "../../Library/Device/Nuvoton/M031/Include/i2c_reg.h"
	.file	4 "D:\\Projects\\CCMSFloridaPhpr\\Application\\KEIL" "../../Library/Device/Nuvoton/M031/Include/sys_reg.h"
	.section	.text.I2C_Open,"ax",%progbits
	.hidden	I2C_Open                        @ -- Begin function I2C_Open
	.globl	I2C_Open
	.p2align	2
	.type	I2C_Open,%function
	.code	16                              @ @I2C_Open
	.thumb_func
I2C_Open:
.Lfunc_begin0:
	.loc	2 39 0                          @ ../../Library/StdDriver/src/i2c.c:39:0
	.fnstart
	.cfi_sections .debug_frame
	.cfi_startproc
@ %bb.0:
	.save	{r7, lr}
	push	{r7, lr}
	.cfi_def_cfa_offset 8
	.cfi_offset lr, -4
	.cfi_offset r7, -8
	.pad	#24
	sub	sp, #24
	.cfi_def_cfa_offset 32
	str	r0, [sp, #20]
	str	r1, [sp, #16]
.Ltmp0:
	.loc	2 43 9 prologue_end             @ ../../Library/StdDriver/src/i2c.c:43:9
	ldr	r0, [sp, #20]
	ldr	r1, __arm_cp.0_0
.Ltmp1:
	.loc	2 43 9 is_stmt 0                @ ../../Library/StdDriver/src/i2c.c:43:9
	cmp	r0, r1
	bne	.LBB0_2
	b	.LBB0_1
.LBB0_1:
.Ltmp2:
	.loc	2 45 19 is_stmt 1               @ ../../Library/StdDriver/src/i2c.c:45:19
	bl	CLK_GetPCLK1Freq
	.loc	2 45 17 is_stmt 0               @ ../../Library/StdDriver/src/i2c.c:45:17
	str	r0, [sp, #8]
	.loc	2 46 5 is_stmt 1                @ ../../Library/StdDriver/src/i2c.c:46:5
	b	.LBB0_3
.Ltmp3:
.LBB0_2:
	.loc	2 49 19                         @ ../../Library/StdDriver/src/i2c.c:49:19
	bl	CLK_GetPCLK0Freq
	.loc	2 49 17 is_stmt 0               @ ../../Library/StdDriver/src/i2c.c:49:17
	str	r0, [sp, #8]
	b	.LBB0_3
.Ltmp4:
.LBB0_3:
	.loc	2 52 27 is_stmt 1               @ ../../Library/StdDriver/src/i2c.c:52:27
	ldr	r1, [sp, #8]
	movs	r0, #10
	.loc	2 52 35 is_stmt 0               @ ../../Library/StdDriver/src/i2c.c:52:35
	str	r0, [sp, #4]                    @ 4-byte Spill
	muls	r0, r1, r0
	.loc	2 52 45                         @ ../../Library/StdDriver/src/i2c.c:52:45
	ldr	r1, [sp, #16]
	.loc	2 52 57                         @ ../../Library/StdDriver/src/i2c.c:52:57
	lsls	r1, r1, #2
	.loc	2 52 42                         @ ../../Library/StdDriver/src/i2c.c:52:42
	bl	__aeabi_uidiv
	ldr	r1, [sp, #4]                    @ 4-byte Reload
	.loc	2 52 63                         @ ../../Library/StdDriver/src/i2c.c:52:63
	adds	r0, r0, #5
	.loc	2 52 69                         @ ../../Library/StdDriver/src/i2c.c:52:69
	bl	__aeabi_uidiv
	.loc	2 52 75                         @ ../../Library/StdDriver/src/i2c.c:52:75
	subs	r0, r0, #1
	.loc	2 52 12                         @ ../../Library/StdDriver/src/i2c.c:52:12
	str	r0, [sp, #12]
	.loc	2 53 19 is_stmt 1               @ ../../Library/StdDriver/src/i2c.c:53:19
	ldr	r0, [sp, #12]
	.loc	2 53 5 is_stmt 0                @ ../../Library/StdDriver/src/i2c.c:53:5
	ldr	r1, [sp, #20]
	.loc	2 53 17                         @ ../../Library/StdDriver/src/i2c.c:53:17
	str	r0, [r1, #16]
	.loc	2 56 5 is_stmt 1                @ ../../Library/StdDriver/src/i2c.c:56:5
	ldr	r1, [sp, #20]
	.loc	2 56 15 is_stmt 0               @ ../../Library/StdDriver/src/i2c.c:56:15
	ldr	r0, [r1]
	movs	r2, #64
	orrs	r0, r2
	str	r0, [r1]
	.loc	2 58 13 is_stmt 1               @ ../../Library/StdDriver/src/i2c.c:58:13
	ldr	r0, [sp, #8]
	.loc	2 58 25 is_stmt 0               @ ../../Library/StdDriver/src/i2c.c:58:25
	ldr	r1, [sp, #12]
	.loc	2 58 32                         @ ../../Library/StdDriver/src/i2c.c:58:32
	lsls	r1, r1, #2
	.loc	2 58 38                         @ ../../Library/StdDriver/src/i2c.c:58:38
	adds	r1, r1, #4
	.loc	2 58 21                         @ ../../Library/StdDriver/src/i2c.c:58:21
	bl	__aeabi_uidiv
	.loc	2 58 5                          @ ../../Library/StdDriver/src/i2c.c:58:5
	add	sp, #24
	pop	{r7, pc}
.Ltmp5:
	.p2align	2
@ %bb.4:
	.loc	2 0 5                           @ ../../Library/StdDriver/src/i2c.c:0:5
__arm_cp.0_0:
	.long	1074270208                      @ 0x40081000
.Lcpi_end0:
	.size	__arm_cp.0_0, .Lcpi_end0-__arm_cp.0_0
.Lfunc_end0:
	.size	I2C_Open, .Lfunc_end0-I2C_Open
	.cfi_endproc
	.cantunwind
	.fnend
                                        @ -- End function
	.section	.text.I2C_Close,"ax",%progbits
	.hidden	I2C_Close                       @ -- Begin function I2C_Close
	.globl	I2C_Close
	.p2align	2
	.type	I2C_Close,%function
	.code	16                              @ @I2C_Close
	.thumb_func
I2C_Close:
.Lfunc_begin1:
	.loc	2 73 0 is_stmt 1                @ ../../Library/StdDriver/src/i2c.c:73:0
	.fnstart
	.cfi_startproc
@ %bb.0:
	.pad	#4
	sub	sp, #4
	.cfi_def_cfa_offset 4
	str	r0, [sp]
.Ltmp6:
	.loc	2 75 9 prologue_end             @ ../../Library/StdDriver/src/i2c.c:75:9
	ldr	r0, [sp]
	ldr	r1, __arm_cp.1_0
.Ltmp7:
	.loc	2 75 9 is_stmt 0                @ ../../Library/StdDriver/src/i2c.c:75:9
	cmp	r0, r1
	bne	.LBB1_2
	b	.LBB1_1
.LBB1_1:
	.loc	2 0 9                           @ ../../Library/StdDriver/src/i2c.c:0:9
	ldr	r1, __arm_cp.1_2
.Ltmp8:
	.loc	2 77 21 is_stmt 1               @ ../../Library/StdDriver/src/i2c.c:77:21
	ldr	r0, [r1]
	movs	r2, #1
	lsls	r2, r2, #8
	orrs	r0, r2
	str	r0, [r1]
	.loc	2 78 21                         @ ../../Library/StdDriver/src/i2c.c:78:21
	ldr	r0, [r1]
	bics	r0, r2
	str	r0, [r1]
	.loc	2 79 5                          @ ../../Library/StdDriver/src/i2c.c:79:5
	b	.LBB1_5
.Ltmp9:
.LBB1_2:
	.loc	2 80 14                         @ ../../Library/StdDriver/src/i2c.c:80:14
	ldr	r0, [sp]
	ldr	r1, __arm_cp.1_1
.Ltmp10:
	.loc	2 80 14 is_stmt 0               @ ../../Library/StdDriver/src/i2c.c:80:14
	cmp	r0, r1
	bne	.LBB1_4
	b	.LBB1_3
.LBB1_3:
	.loc	2 0 14                          @ ../../Library/StdDriver/src/i2c.c:0:14
	ldr	r1, __arm_cp.1_2
.Ltmp11:
	.loc	2 82 21 is_stmt 1               @ ../../Library/StdDriver/src/i2c.c:82:21
	ldr	r0, [r1]
	movs	r2, #1
	lsls	r2, r2, #9
	orrs	r0, r2
	str	r0, [r1]
	.loc	2 83 21                         @ ../../Library/StdDriver/src/i2c.c:83:21
	ldr	r0, [r1]
	bics	r0, r2
	str	r0, [r1]
	.loc	2 84 5                          @ ../../Library/StdDriver/src/i2c.c:84:5
	b	.LBB1_4
.Ltmp12:
.LBB1_4:
	.loc	2 0 5 is_stmt 0                 @ ../../Library/StdDriver/src/i2c.c:0:5
	b	.LBB1_5
.LBB1_5:
	.loc	2 87 5 is_stmt 1                @ ../../Library/StdDriver/src/i2c.c:87:5
	ldr	r1, [sp]
	.loc	2 87 15 is_stmt 0               @ ../../Library/StdDriver/src/i2c.c:87:15
	ldr	r0, [r1]
	movs	r2, #64
	bics	r0, r2
	str	r0, [r1]
	.loc	2 88 1 is_stmt 1                @ ../../Library/StdDriver/src/i2c.c:88:1
	add	sp, #4
	bx	lr
.Ltmp13:
	.p2align	2
@ %bb.6:
	.loc	2 0 1 is_stmt 0                 @ ../../Library/StdDriver/src/i2c.c:0:1
__arm_cp.1_0:
	.long	1074266112                      @ 0x40080000
.Lcpi_end1:
	.size	__arm_cp.1_0, .Lcpi_end1-__arm_cp.1_0
__arm_cp.1_1:
	.long	1074270208                      @ 0x40081000
.Lcpi_end2:
	.size	__arm_cp.1_1, .Lcpi_end2-__arm_cp.1_1
__arm_cp.1_2:
	.long	1073741836                      @ 0x4000000c
.Lcpi_end3:
	.size	__arm_cp.1_2, .Lcpi_end3-__arm_cp.1_2
.Lfunc_end1:
	.size	I2C_Close, .Lfunc_end1-I2C_Close
	.cfi_endproc
	.cantunwind
	.fnend
                                        @ -- End function
	.section	.text.I2C_ClearTimeoutFlag,"ax",%progbits
	.hidden	I2C_ClearTimeoutFlag            @ -- Begin function I2C_ClearTimeoutFlag
	.globl	I2C_ClearTimeoutFlag
	.p2align	1
	.type	I2C_ClearTimeoutFlag,%function
	.code	16                              @ @I2C_ClearTimeoutFlag
	.thumb_func
I2C_ClearTimeoutFlag:
.Lfunc_begin2:
	.loc	2 101 0 is_stmt 1               @ ../../Library/StdDriver/src/i2c.c:101:0
	.fnstart
	.cfi_startproc
@ %bb.0:
	.pad	#4
	sub	sp, #4
	.cfi_def_cfa_offset 4
	str	r0, [sp]
.Ltmp14:
	.loc	2 102 5 prologue_end            @ ../../Library/StdDriver/src/i2c.c:102:5
	ldr	r1, [sp]
	.loc	2 102 16 is_stmt 0              @ ../../Library/StdDriver/src/i2c.c:102:16
	ldr	r0, [r1, #20]
	movs	r2, #1
	orrs	r0, r2
	str	r0, [r1, #20]
	.loc	2 103 1 is_stmt 1               @ ../../Library/StdDriver/src/i2c.c:103:1
	add	sp, #4
	bx	lr
.Ltmp15:
.Lfunc_end2:
	.size	I2C_ClearTimeoutFlag, .Lfunc_end2-I2C_ClearTimeoutFlag
	.cfi_endproc
	.cantunwind
	.fnend
                                        @ -- End function
	.section	.text.I2C_Trigger,"ax",%progbits
	.hidden	I2C_Trigger                     @ -- Begin function I2C_Trigger
	.globl	I2C_Trigger
	.p2align	1
	.type	I2C_Trigger,%function
	.code	16                              @ @I2C_Trigger
	.thumb_func
I2C_Trigger:
.Lfunc_begin3:
	.loc	2 120 0                         @ ../../Library/StdDriver/src/i2c.c:120:0
	.fnstart
	.cfi_startproc
@ %bb.0:
	.save	{r4, r5, r7, lr}
	push	{r4, r5, r7, lr}
	.cfi_def_cfa_offset 16
	.cfi_offset lr, -4
	.cfi_offset r7, -8
	.cfi_offset r5, -12
	.cfi_offset r4, -16
	.pad	#24
	sub	sp, #24
	.cfi_def_cfa_offset 40
	mov	r4, r1
	ldr	r1, [sp, #40]
                                        @ kill: def $r5 killed $r3
                                        @ kill: def $r5 killed $r2
                                        @ kill: def $r5 killed $r4
	str	r0, [sp, #20]
	add	r0, sp, #16
	strb	r4, [r0]
	add	r4, sp, #12
	strb	r2, [r4]
	add	r2, sp, #8
	strb	r3, [r2]
	add	r2, sp, #4
	strb	r1, [r2]
	movs	r1, #0
.Ltmp16:
	.loc	2 121 14 prologue_end           @ ../../Library/StdDriver/src/i2c.c:121:14
	str	r1, [sp]
.Ltmp17:
	.loc	2 123 9                         @ ../../Library/StdDriver/src/i2c.c:123:9
	ldrb	r0, [r0]
.Ltmp18:
	.loc	2 123 9 is_stmt 0               @ ../../Library/StdDriver/src/i2c.c:123:9
	cmp	r0, #0
	beq	.LBB3_2
	b	.LBB3_1
.LBB3_1:
.Ltmp19:
	.loc	2 125 16 is_stmt 1              @ ../../Library/StdDriver/src/i2c.c:125:16
	ldr	r0, [sp]
	movs	r1, #32
	orrs	r0, r1
	str	r0, [sp]
	.loc	2 126 5                         @ ../../Library/StdDriver/src/i2c.c:126:5
	b	.LBB3_2
.Ltmp20:
.LBB3_2:
	.loc	2 0 5 is_stmt 0                 @ ../../Library/StdDriver/src/i2c.c:0:5
	add	r0, sp, #12
.Ltmp21:
	.loc	2 128 9 is_stmt 1               @ ../../Library/StdDriver/src/i2c.c:128:9
	ldrb	r0, [r0]
.Ltmp22:
	.loc	2 128 9 is_stmt 0               @ ../../Library/StdDriver/src/i2c.c:128:9
	cmp	r0, #0
	beq	.LBB3_4
	b	.LBB3_3
.LBB3_3:
.Ltmp23:
	.loc	2 130 16 is_stmt 1              @ ../../Library/StdDriver/src/i2c.c:130:16
	ldr	r0, [sp]
	movs	r1, #16
	orrs	r0, r1
	str	r0, [sp]
	.loc	2 131 5                         @ ../../Library/StdDriver/src/i2c.c:131:5
	b	.LBB3_4
.Ltmp24:
.LBB3_4:
	.loc	2 0 5 is_stmt 0                 @ ../../Library/StdDriver/src/i2c.c:0:5
	add	r0, sp, #8
.Ltmp25:
	.loc	2 133 9 is_stmt 1               @ ../../Library/StdDriver/src/i2c.c:133:9
	ldrb	r0, [r0]
.Ltmp26:
	.loc	2 133 9 is_stmt 0               @ ../../Library/StdDriver/src/i2c.c:133:9
	cmp	r0, #0
	beq	.LBB3_6
	b	.LBB3_5
.LBB3_5:
.Ltmp27:
	.loc	2 135 16 is_stmt 1              @ ../../Library/StdDriver/src/i2c.c:135:16
	ldr	r0, [sp]
	movs	r1, #8
	orrs	r0, r1
	str	r0, [sp]
	.loc	2 136 5                         @ ../../Library/StdDriver/src/i2c.c:136:5
	b	.LBB3_6
.Ltmp28:
.LBB3_6:
	.loc	2 0 5 is_stmt 0                 @ ../../Library/StdDriver/src/i2c.c:0:5
	add	r0, sp, #4
.Ltmp29:
	.loc	2 138 9 is_stmt 1               @ ../../Library/StdDriver/src/i2c.c:138:9
	ldrb	r0, [r0]
.Ltmp30:
	.loc	2 138 9 is_stmt 0               @ ../../Library/StdDriver/src/i2c.c:138:9
	cmp	r0, #0
	beq	.LBB3_8
	b	.LBB3_7
.LBB3_7:
.Ltmp31:
	.loc	2 140 16 is_stmt 1              @ ../../Library/StdDriver/src/i2c.c:140:16
	ldr	r0, [sp]
	movs	r1, #4
	orrs	r0, r1
	str	r0, [sp]
	.loc	2 141 5                         @ ../../Library/StdDriver/src/i2c.c:141:5
	b	.LBB3_8
.Ltmp32:
.LBB3_8:
	.loc	2 143 18                        @ ../../Library/StdDriver/src/i2c.c:143:18
	ldr	r0, [sp, #20]
	.loc	2 143 23 is_stmt 0              @ ../../Library/StdDriver/src/i2c.c:143:23
	ldr	r0, [r0]
	movs	r1, #60
	.loc	2 143 28                        @ ../../Library/StdDriver/src/i2c.c:143:28
	bics	r0, r1
	.loc	2 143 40                        @ ../../Library/StdDriver/src/i2c.c:143:40
	ldr	r1, [sp]
	.loc	2 143 38                        @ ../../Library/StdDriver/src/i2c.c:143:38
	orrs	r0, r1
	.loc	2 143 5                         @ ../../Library/StdDriver/src/i2c.c:143:5
	ldr	r1, [sp, #20]
	.loc	2 143 15                        @ ../../Library/StdDriver/src/i2c.c:143:15
	str	r0, [r1]
	.loc	2 144 1 is_stmt 1               @ ../../Library/StdDriver/src/i2c.c:144:1
	add	sp, #24
	pop	{r4, r5, r7, pc}
.Ltmp33:
.Lfunc_end3:
	.size	I2C_Trigger, .Lfunc_end3-I2C_Trigger
	.cfi_endproc
	.cantunwind
	.fnend
                                        @ -- End function
	.section	.text.I2C_DisableInt,"ax",%progbits
	.hidden	I2C_DisableInt                  @ -- Begin function I2C_DisableInt
	.globl	I2C_DisableInt
	.p2align	1
	.type	I2C_DisableInt,%function
	.code	16                              @ @I2C_DisableInt
	.thumb_func
I2C_DisableInt:
.Lfunc_begin4:
	.loc	2 157 0                         @ ../../Library/StdDriver/src/i2c.c:157:0
	.fnstart
	.cfi_startproc
@ %bb.0:
	.pad	#4
	sub	sp, #4
	.cfi_def_cfa_offset 4
	str	r0, [sp]
.Ltmp34:
	.loc	2 158 5 prologue_end            @ ../../Library/StdDriver/src/i2c.c:158:5
	ldr	r1, [sp]
	.loc	2 158 15 is_stmt 0              @ ../../Library/StdDriver/src/i2c.c:158:15
	ldr	r0, [r1]
	movs	r2, #128
	bics	r0, r2
	str	r0, [r1]
	.loc	2 159 1 is_stmt 1               @ ../../Library/StdDriver/src/i2c.c:159:1
	add	sp, #4
	bx	lr
.Ltmp35:
.Lfunc_end4:
	.size	I2C_DisableInt, .Lfunc_end4-I2C_DisableInt
	.cfi_endproc
	.cantunwind
	.fnend
                                        @ -- End function
	.section	.text.I2C_EnableInt,"ax",%progbits
	.hidden	I2C_EnableInt                   @ -- Begin function I2C_EnableInt
	.globl	I2C_EnableInt
	.p2align	1
	.type	I2C_EnableInt,%function
	.code	16                              @ @I2C_EnableInt
	.thumb_func
I2C_EnableInt:
.Lfunc_begin5:
	.loc	2 172 0                         @ ../../Library/StdDriver/src/i2c.c:172:0
	.fnstart
	.cfi_startproc
@ %bb.0:
	.pad	#4
	sub	sp, #4
	.cfi_def_cfa_offset 4
	str	r0, [sp]
.Ltmp36:
	.loc	2 173 5 prologue_end            @ ../../Library/StdDriver/src/i2c.c:173:5
	ldr	r1, [sp]
	.loc	2 173 15 is_stmt 0              @ ../../Library/StdDriver/src/i2c.c:173:15
	ldr	r0, [r1]
	movs	r2, #128
	orrs	r0, r2
	str	r0, [r1]
	.loc	2 174 1 is_stmt 1               @ ../../Library/StdDriver/src/i2c.c:174:1
	add	sp, #4
	bx	lr
.Ltmp37:
.Lfunc_end5:
	.size	I2C_EnableInt, .Lfunc_end5-I2C_EnableInt
	.cfi_endproc
	.cantunwind
	.fnend
                                        @ -- End function
	.section	.text.I2C_GetBusClockFreq,"ax",%progbits
	.hidden	I2C_GetBusClockFreq             @ -- Begin function I2C_GetBusClockFreq
	.globl	I2C_GetBusClockFreq
	.p2align	2
	.type	I2C_GetBusClockFreq,%function
	.code	16                              @ @I2C_GetBusClockFreq
	.thumb_func
I2C_GetBusClockFreq:
.Lfunc_begin6:
	.loc	2 186 0                         @ ../../Library/StdDriver/src/i2c.c:186:0
	.fnstart
	.cfi_startproc
@ %bb.0:
	.save	{r7, lr}
	push	{r7, lr}
	.cfi_def_cfa_offset 8
	.cfi_offset lr, -4
	.cfi_offset r7, -8
	.pad	#16
	sub	sp, #16
	.cfi_def_cfa_offset 24
	str	r0, [sp, #12]
.Ltmp38:
	.loc	2 187 27 prologue_end           @ ../../Library/StdDriver/src/i2c.c:187:27
	ldr	r0, [sp, #12]
	.loc	2 187 32 is_stmt 0              @ ../../Library/StdDriver/src/i2c.c:187:32
	ldr	r0, [r0, #16]
	.loc	2 187 14                        @ ../../Library/StdDriver/src/i2c.c:187:14
	str	r0, [sp, #8]
.Ltmp39:
	.loc	2 190 9 is_stmt 1               @ ../../Library/StdDriver/src/i2c.c:190:9
	ldr	r0, [sp, #12]
	ldr	r1, __arm_cp.6_0
.Ltmp40:
	.loc	2 190 9 is_stmt 0               @ ../../Library/StdDriver/src/i2c.c:190:9
	cmp	r0, r1
	bne	.LBB6_2
	b	.LBB6_1
.LBB6_1:
.Ltmp41:
	.loc	2 192 19 is_stmt 1              @ ../../Library/StdDriver/src/i2c.c:192:19
	bl	CLK_GetPCLK1Freq
	.loc	2 192 17 is_stmt 0              @ ../../Library/StdDriver/src/i2c.c:192:17
	str	r0, [sp, #4]
	.loc	2 193 5 is_stmt 1               @ ../../Library/StdDriver/src/i2c.c:193:5
	b	.LBB6_3
.Ltmp42:
.LBB6_2:
	.loc	2 196 19                        @ ../../Library/StdDriver/src/i2c.c:196:19
	bl	CLK_GetPCLK0Freq
	.loc	2 196 17 is_stmt 0              @ ../../Library/StdDriver/src/i2c.c:196:17
	str	r0, [sp, #4]
	b	.LBB6_3
.Ltmp43:
.LBB6_3:
	.loc	2 199 13 is_stmt 1              @ ../../Library/StdDriver/src/i2c.c:199:13
	ldr	r0, [sp, #4]
	.loc	2 199 25 is_stmt 0              @ ../../Library/StdDriver/src/i2c.c:199:25
	ldr	r1, [sp, #8]
	.loc	2 199 36                        @ ../../Library/StdDriver/src/i2c.c:199:36
	lsls	r1, r1, #2
	.loc	2 199 42                        @ ../../Library/StdDriver/src/i2c.c:199:42
	adds	r1, r1, #4
	.loc	2 199 21                        @ ../../Library/StdDriver/src/i2c.c:199:21
	bl	__aeabi_uidiv
	.loc	2 199 5                         @ ../../Library/StdDriver/src/i2c.c:199:5
	add	sp, #16
	pop	{r7, pc}
.Ltmp44:
	.p2align	2
@ %bb.4:
	.loc	2 0 5                           @ ../../Library/StdDriver/src/i2c.c:0:5
__arm_cp.6_0:
	.long	1074270208                      @ 0x40081000
.Lcpi_end4:
	.size	__arm_cp.6_0, .Lcpi_end4-__arm_cp.6_0
.Lfunc_end6:
	.size	I2C_GetBusClockFreq, .Lfunc_end6-I2C_GetBusClockFreq
	.cfi_endproc
	.cantunwind
	.fnend
                                        @ -- End function
	.section	.text.I2C_SetBusClockFreq,"ax",%progbits
	.hidden	I2C_SetBusClockFreq             @ -- Begin function I2C_SetBusClockFreq
	.globl	I2C_SetBusClockFreq
	.p2align	2
	.type	I2C_SetBusClockFreq,%function
	.code	16                              @ @I2C_SetBusClockFreq
	.thumb_func
I2C_SetBusClockFreq:
.Lfunc_begin7:
	.loc	2 213 0 is_stmt 1               @ ../../Library/StdDriver/src/i2c.c:213:0
	.fnstart
	.cfi_startproc
@ %bb.0:
	.save	{r7, lr}
	push	{r7, lr}
	.cfi_def_cfa_offset 8
	.cfi_offset lr, -4
	.cfi_offset r7, -8
	.pad	#24
	sub	sp, #24
	.cfi_def_cfa_offset 32
	str	r0, [sp, #20]
	str	r1, [sp, #16]
.Ltmp45:
	.loc	2 217 9 prologue_end            @ ../../Library/StdDriver/src/i2c.c:217:9
	ldr	r0, [sp, #20]
	ldr	r1, __arm_cp.7_0
.Ltmp46:
	.loc	2 217 9 is_stmt 0               @ ../../Library/StdDriver/src/i2c.c:217:9
	cmp	r0, r1
	bne	.LBB7_2
	b	.LBB7_1
.LBB7_1:
.Ltmp47:
	.loc	2 219 19 is_stmt 1              @ ../../Library/StdDriver/src/i2c.c:219:19
	bl	CLK_GetPCLK1Freq
	.loc	2 219 17 is_stmt 0              @ ../../Library/StdDriver/src/i2c.c:219:17
	str	r0, [sp, #8]
	.loc	2 220 5 is_stmt 1               @ ../../Library/StdDriver/src/i2c.c:220:5
	b	.LBB7_3
.Ltmp48:
.LBB7_2:
	.loc	2 223 19                        @ ../../Library/StdDriver/src/i2c.c:223:19
	bl	CLK_GetPCLK0Freq
	.loc	2 223 17 is_stmt 0              @ ../../Library/StdDriver/src/i2c.c:223:17
	str	r0, [sp, #8]
	b	.LBB7_3
.Ltmp49:
.LBB7_3:
	.loc	2 226 27 is_stmt 1              @ ../../Library/StdDriver/src/i2c.c:226:27
	ldr	r1, [sp, #8]
	movs	r0, #10
	.loc	2 226 35 is_stmt 0              @ ../../Library/StdDriver/src/i2c.c:226:35
	str	r0, [sp, #4]                    @ 4-byte Spill
	muls	r0, r1, r0
	.loc	2 226 45                        @ ../../Library/StdDriver/src/i2c.c:226:45
	ldr	r1, [sp, #16]
	.loc	2 226 57                        @ ../../Library/StdDriver/src/i2c.c:226:57
	lsls	r1, r1, #2
	.loc	2 226 42                        @ ../../Library/StdDriver/src/i2c.c:226:42
	bl	__aeabi_uidiv
	ldr	r1, [sp, #4]                    @ 4-byte Reload
	.loc	2 226 63                        @ ../../Library/StdDriver/src/i2c.c:226:63
	adds	r0, r0, #5
	.loc	2 226 69                        @ ../../Library/StdDriver/src/i2c.c:226:69
	bl	__aeabi_uidiv
	.loc	2 226 75                        @ ../../Library/StdDriver/src/i2c.c:226:75
	subs	r0, r0, #1
	.loc	2 226 12                        @ ../../Library/StdDriver/src/i2c.c:226:12
	str	r0, [sp, #12]
	.loc	2 227 19 is_stmt 1              @ ../../Library/StdDriver/src/i2c.c:227:19
	ldr	r0, [sp, #12]
	.loc	2 227 5 is_stmt 0               @ ../../Library/StdDriver/src/i2c.c:227:5
	ldr	r1, [sp, #20]
	.loc	2 227 17                        @ ../../Library/StdDriver/src/i2c.c:227:17
	str	r0, [r1, #16]
	.loc	2 229 13 is_stmt 1              @ ../../Library/StdDriver/src/i2c.c:229:13
	ldr	r0, [sp, #8]
	.loc	2 229 25 is_stmt 0              @ ../../Library/StdDriver/src/i2c.c:229:25
	ldr	r1, [sp, #12]
	.loc	2 229 32                        @ ../../Library/StdDriver/src/i2c.c:229:32
	lsls	r1, r1, #2
	.loc	2 229 38                        @ ../../Library/StdDriver/src/i2c.c:229:38
	adds	r1, r1, #4
	.loc	2 229 21                        @ ../../Library/StdDriver/src/i2c.c:229:21
	bl	__aeabi_uidiv
	.loc	2 229 5                         @ ../../Library/StdDriver/src/i2c.c:229:5
	add	sp, #24
	pop	{r7, pc}
.Ltmp50:
	.p2align	2
@ %bb.4:
	.loc	2 0 5                           @ ../../Library/StdDriver/src/i2c.c:0:5
__arm_cp.7_0:
	.long	1074270208                      @ 0x40081000
.Lcpi_end5:
	.size	__arm_cp.7_0, .Lcpi_end5-__arm_cp.7_0
.Lfunc_end7:
	.size	I2C_SetBusClockFreq, .Lfunc_end7-I2C_SetBusClockFreq
	.cfi_endproc
	.cantunwind
	.fnend
                                        @ -- End function
	.section	.text.I2C_GetIntFlag,"ax",%progbits
	.hidden	I2C_GetIntFlag                  @ -- Begin function I2C_GetIntFlag
	.globl	I2C_GetIntFlag
	.p2align	1
	.type	I2C_GetIntFlag,%function
	.code	16                              @ @I2C_GetIntFlag
	.thumb_func
I2C_GetIntFlag:
.Lfunc_begin8:
	.loc	2 242 0 is_stmt 1               @ ../../Library/StdDriver/src/i2c.c:242:0
	.fnstart
	.cfi_startproc
@ %bb.0:
	.pad	#4
	sub	sp, #4
	.cfi_def_cfa_offset 4
	str	r0, [sp]
.Ltmp51:
	.loc	2 243 14 prologue_end           @ ../../Library/StdDriver/src/i2c.c:243:14
	ldr	r0, [sp]
	.loc	2 243 19 is_stmt 0              @ ../../Library/StdDriver/src/i2c.c:243:19
	ldr	r0, [r0]
	movs	r1, #8
	.loc	2 243 24                        @ ../../Library/StdDriver/src/i2c.c:243:24
	ands	r0, r1
	.loc	2 243 43                        @ ../../Library/StdDriver/src/i2c.c:243:43
	lsrs	r0, r0, #3
	.loc	2 243 5                         @ ../../Library/StdDriver/src/i2c.c:243:5
	add	sp, #4
	bx	lr
.Ltmp52:
.Lfunc_end8:
	.size	I2C_GetIntFlag, .Lfunc_end8-I2C_GetIntFlag
	.cfi_endproc
	.cantunwind
	.fnend
                                        @ -- End function
	.section	.text.I2C_GetStatus,"ax",%progbits
	.hidden	I2C_GetStatus                   @ -- Begin function I2C_GetStatus
	.globl	I2C_GetStatus
	.p2align	1
	.type	I2C_GetStatus,%function
	.code	16                              @ @I2C_GetStatus
	.thumb_func
I2C_GetStatus:
.Lfunc_begin9:
	.loc	2 256 0 is_stmt 1               @ ../../Library/StdDriver/src/i2c.c:256:0
	.fnstart
	.cfi_startproc
@ %bb.0:
	.pad	#4
	sub	sp, #4
	.cfi_def_cfa_offset 4
	str	r0, [sp]
.Ltmp53:
	.loc	2 257 13 prologue_end           @ ../../Library/StdDriver/src/i2c.c:257:13
	ldr	r0, [sp]
	.loc	2 257 18 is_stmt 0              @ ../../Library/StdDriver/src/i2c.c:257:18
	ldr	r0, [r0, #12]
	.loc	2 257 5                         @ ../../Library/StdDriver/src/i2c.c:257:5
	add	sp, #4
	bx	lr
.Ltmp54:
.Lfunc_end9:
	.size	I2C_GetStatus, .Lfunc_end9-I2C_GetStatus
	.cfi_endproc
	.cantunwind
	.fnend
                                        @ -- End function
	.section	.text.I2C_GetData,"ax",%progbits
	.hidden	I2C_GetData                     @ -- Begin function I2C_GetData
	.globl	I2C_GetData
	.p2align	1
	.type	I2C_GetData,%function
	.code	16                              @ @I2C_GetData
	.thumb_func
I2C_GetData:
.Lfunc_begin10:
	.loc	2 270 0 is_stmt 1               @ ../../Library/StdDriver/src/i2c.c:270:0
	.fnstart
	.cfi_startproc
@ %bb.0:
	.pad	#4
	sub	sp, #4
	.cfi_def_cfa_offset 4
	str	r0, [sp]
.Ltmp55:
	.loc	2 271 22 prologue_end           @ ../../Library/StdDriver/src/i2c.c:271:22
	ldr	r0, [sp]
	.loc	2 271 27 is_stmt 0              @ ../../Library/StdDriver/src/i2c.c:271:27
	ldr	r0, [r0, #8]
	.loc	2 271 5                         @ ../../Library/StdDriver/src/i2c.c:271:5
	uxtb	r0, r0
	add	sp, #4
	bx	lr
.Ltmp56:
.Lfunc_end10:
	.size	I2C_GetData, .Lfunc_end10-I2C_GetData
	.cfi_endproc
	.cantunwind
	.fnend
                                        @ -- End function
	.section	.text.I2C_SetData,"ax",%progbits
	.hidden	I2C_SetData                     @ -- Begin function I2C_SetData
	.globl	I2C_SetData
	.p2align	1
	.type	I2C_SetData,%function
	.code	16                              @ @I2C_SetData
	.thumb_func
I2C_SetData:
.Lfunc_begin11:
	.loc	2 285 0 is_stmt 1               @ ../../Library/StdDriver/src/i2c.c:285:0
	.fnstart
	.cfi_startproc
@ %bb.0:
	.pad	#8
	sub	sp, #8
	.cfi_def_cfa_offset 8
                                        @ kill: def $r2 killed $r1
	str	r0, [sp, #4]
	mov	r0, sp
	strb	r1, [r0]
.Ltmp57:
	.loc	2 286 16 prologue_end           @ ../../Library/StdDriver/src/i2c.c:286:16
	ldrb	r0, [r0]
	.loc	2 286 5 is_stmt 0               @ ../../Library/StdDriver/src/i2c.c:286:5
	ldr	r1, [sp, #4]
	.loc	2 286 14                        @ ../../Library/StdDriver/src/i2c.c:286:14
	str	r0, [r1, #8]
	.loc	2 287 1 is_stmt 1               @ ../../Library/StdDriver/src/i2c.c:287:1
	add	sp, #8
	bx	lr
.Ltmp58:
.Lfunc_end11:
	.size	I2C_SetData, .Lfunc_end11-I2C_SetData
	.cfi_endproc
	.cantunwind
	.fnend
                                        @ -- End function
	.section	.text.I2C_SetSlaveAddr,"ax",%progbits
	.hidden	I2C_SetSlaveAddr                @ -- Begin function I2C_SetSlaveAddr
	.globl	I2C_SetSlaveAddr
	.p2align	2
	.type	I2C_SetSlaveAddr,%function
	.code	16                              @ @I2C_SetSlaveAddr
	.thumb_func
I2C_SetSlaveAddr:
.Lfunc_begin12:
	.loc	2 304 0                         @ ../../Library/StdDriver/src/i2c.c:304:0
	.fnstart
	.cfi_startproc
@ %bb.0:
	.save	{r4, lr}
	push	{r4, lr}
	.cfi_def_cfa_offset 8
	.cfi_offset lr, -4
	.cfi_offset r4, -8
	.pad	#20
	sub	sp, #20
	.cfi_def_cfa_offset 28
                                        @ kill: def $r4 killed $r3
                                        @ kill: def $r4 killed $r2
                                        @ kill: def $r4 killed $r1
	str	r0, [sp, #16]
	add	r0, sp, #12
	strb	r1, [r0]
	add	r1, sp, #8
	strb	r2, [r1]
	add	r1, sp, #4
	strb	r3, [r1]
.Ltmp59:
	.loc	2 305 13 prologue_end           @ ../../Library/StdDriver/src/i2c.c:305:13
	ldrb	r0, [r0]
	.loc	2 305 5 is_stmt 0               @ ../../Library/StdDriver/src/i2c.c:305:5
	str	r0, [sp]                        @ 4-byte Spill
	cmp	r0, #3
	bhi	.LBB12_7
@ %bb.1:
	.loc	2 0 5                           @ ../../Library/StdDriver/src/i2c.c:0:5
	ldr	r0, [sp]                        @ 4-byte Reload
	lsls	r1, r0, #2
	adr	r0, .LJTI12_0
	ldr	r0, [r0, r1]
	mov	pc, r0
@ %bb.2:
	.p2align	2
.LJTI12_0:
	.long	.LBB12_6+1
	.long	.LBB12_3+1
	.long	.LBB12_4+1
	.long	.LBB12_5+1
.LBB12_3:
	add	r0, sp, #8
.Ltmp60:
	.loc	2 308 34 is_stmt 1              @ ../../Library/StdDriver/src/i2c.c:308:34
	ldrb	r0, [r0]
	.loc	2 308 46 is_stmt 0              @ ../../Library/StdDriver/src/i2c.c:308:46
	lsls	r0, r0, #1
	.loc	2 308 9                         @ ../../Library/StdDriver/src/i2c.c:308:9
	ldr	r1, [sp, #16]
	.loc	2 308 21                        @ ../../Library/StdDriver/src/i2c.c:308:21
	str	r0, [r1, #24]
	.loc	2 309 9 is_stmt 1               @ ../../Library/StdDriver/src/i2c.c:309:9
	b	.LBB12_8
.LBB12_4:
	.loc	2 0 9 is_stmt 0                 @ ../../Library/StdDriver/src/i2c.c:0:9
	add	r0, sp, #8
	.loc	2 312 34 is_stmt 1              @ ../../Library/StdDriver/src/i2c.c:312:34
	ldrb	r0, [r0]
	.loc	2 312 46 is_stmt 0              @ ../../Library/StdDriver/src/i2c.c:312:46
	lsls	r0, r0, #1
	.loc	2 312 9                         @ ../../Library/StdDriver/src/i2c.c:312:9
	ldr	r1, [sp, #16]
	.loc	2 312 21                        @ ../../Library/StdDriver/src/i2c.c:312:21
	str	r0, [r1, #28]
	.loc	2 313 9 is_stmt 1               @ ../../Library/StdDriver/src/i2c.c:313:9
	b	.LBB12_8
.LBB12_5:
	.loc	2 0 9 is_stmt 0                 @ ../../Library/StdDriver/src/i2c.c:0:9
	add	r0, sp, #8
	.loc	2 316 34 is_stmt 1              @ ../../Library/StdDriver/src/i2c.c:316:34
	ldrb	r0, [r0]
	.loc	2 316 46 is_stmt 0              @ ../../Library/StdDriver/src/i2c.c:316:46
	lsls	r0, r0, #1
	.loc	2 316 9                         @ ../../Library/StdDriver/src/i2c.c:316:9
	ldr	r1, [sp, #16]
	.loc	2 316 21                        @ ../../Library/StdDriver/src/i2c.c:316:21
	str	r0, [r1, #32]
	.loc	2 317 9 is_stmt 1               @ ../../Library/StdDriver/src/i2c.c:317:9
	b	.LBB12_8
.LBB12_6:
	b	.LBB12_7
.LBB12_7:
	.loc	2 0 9 is_stmt 0                 @ ../../Library/StdDriver/src/i2c.c:0:9
	add	r0, sp, #8
	.loc	2 321 34 is_stmt 1              @ ../../Library/StdDriver/src/i2c.c:321:34
	ldrb	r0, [r0]
	.loc	2 321 46 is_stmt 0              @ ../../Library/StdDriver/src/i2c.c:321:46
	lsls	r0, r0, #1
	add	r1, sp, #4
	.loc	2 321 55                        @ ../../Library/StdDriver/src/i2c.c:321:55
	ldrb	r1, [r1]
	.loc	2 321 53                        @ ../../Library/StdDriver/src/i2c.c:321:53
	orrs	r0, r1
	.loc	2 321 9                         @ ../../Library/StdDriver/src/i2c.c:321:9
	ldr	r1, [sp, #16]
	.loc	2 321 21                        @ ../../Library/StdDriver/src/i2c.c:321:21
	str	r0, [r1, #4]
	.loc	2 322 9 is_stmt 1               @ ../../Library/StdDriver/src/i2c.c:322:9
	b	.LBB12_8
.Ltmp61:
.LBB12_8:
	.loc	2 324 1                         @ ../../Library/StdDriver/src/i2c.c:324:1
	add	sp, #20
	pop	{r4, pc}
.Ltmp62:
.Lfunc_end12:
	.size	I2C_SetSlaveAddr, .Lfunc_end12-I2C_SetSlaveAddr
	.cfi_endproc
	.cantunwind
	.fnend
                                        @ -- End function
	.section	.text.I2C_SetSlaveAddrMask,"ax",%progbits
	.hidden	I2C_SetSlaveAddrMask            @ -- Begin function I2C_SetSlaveAddrMask
	.globl	I2C_SetSlaveAddrMask
	.p2align	2
	.type	I2C_SetSlaveAddrMask,%function
	.code	16                              @ @I2C_SetSlaveAddrMask
	.thumb_func
I2C_SetSlaveAddrMask:
.Lfunc_begin13:
	.loc	2 339 0                         @ ../../Library/StdDriver/src/i2c.c:339:0
	.fnstart
	.cfi_startproc
@ %bb.0:
	.pad	#16
	sub	sp, #16
	.cfi_def_cfa_offset 16
                                        @ kill: def $r3 killed $r2
                                        @ kill: def $r3 killed $r1
	str	r0, [sp, #12]
	add	r0, sp, #8
	strb	r1, [r0]
	add	r1, sp, #4
	strb	r2, [r1]
.Ltmp63:
	.loc	2 340 13 prologue_end           @ ../../Library/StdDriver/src/i2c.c:340:13
	ldrb	r0, [r0]
	.loc	2 340 5 is_stmt 0               @ ../../Library/StdDriver/src/i2c.c:340:5
	str	r0, [sp]                        @ 4-byte Spill
	cmp	r0, #3
	bhi	.LBB13_7
@ %bb.1:
	.loc	2 0 5                           @ ../../Library/StdDriver/src/i2c.c:0:5
	ldr	r0, [sp]                        @ 4-byte Reload
	lsls	r1, r0, #2
	adr	r0, .LJTI13_0
	ldr	r0, [r0, r1]
	mov	pc, r0
@ %bb.2:
	.p2align	2
.LJTI13_0:
	.long	.LBB13_6+1
	.long	.LBB13_3+1
	.long	.LBB13_4+1
	.long	.LBB13_5+1
.LBB13_3:
	add	r0, sp, #4
.Ltmp64:
	.loc	2 343 36 is_stmt 1              @ ../../Library/StdDriver/src/i2c.c:343:36
	ldrb	r0, [r0]
	.loc	2 343 52 is_stmt 0              @ ../../Library/StdDriver/src/i2c.c:343:52
	lsls	r0, r0, #1
	.loc	2 343 9                         @ ../../Library/StdDriver/src/i2c.c:343:9
	ldr	r1, [sp, #12]
	.loc	2 343 24                        @ ../../Library/StdDriver/src/i2c.c:343:24
	str	r0, [r1, #40]
	.loc	2 344 9 is_stmt 1               @ ../../Library/StdDriver/src/i2c.c:344:9
	b	.LBB13_8
.LBB13_4:
	.loc	2 0 9 is_stmt 0                 @ ../../Library/StdDriver/src/i2c.c:0:9
	add	r0, sp, #4
	.loc	2 347 36 is_stmt 1              @ ../../Library/StdDriver/src/i2c.c:347:36
	ldrb	r0, [r0]
	.loc	2 347 52 is_stmt 0              @ ../../Library/StdDriver/src/i2c.c:347:52
	lsls	r0, r0, #1
	.loc	2 347 9                         @ ../../Library/StdDriver/src/i2c.c:347:9
	ldr	r1, [sp, #12]
	.loc	2 347 24                        @ ../../Library/StdDriver/src/i2c.c:347:24
	str	r0, [r1, #44]
	.loc	2 348 9 is_stmt 1               @ ../../Library/StdDriver/src/i2c.c:348:9
	b	.LBB13_8
.LBB13_5:
	.loc	2 0 9 is_stmt 0                 @ ../../Library/StdDriver/src/i2c.c:0:9
	add	r0, sp, #4
	.loc	2 351 36 is_stmt 1              @ ../../Library/StdDriver/src/i2c.c:351:36
	ldrb	r0, [r0]
	.loc	2 351 52 is_stmt 0              @ ../../Library/StdDriver/src/i2c.c:351:52
	lsls	r0, r0, #1
	.loc	2 351 9                         @ ../../Library/StdDriver/src/i2c.c:351:9
	ldr	r1, [sp, #12]
	.loc	2 351 24                        @ ../../Library/StdDriver/src/i2c.c:351:24
	str	r0, [r1, #48]
	.loc	2 352 9 is_stmt 1               @ ../../Library/StdDriver/src/i2c.c:352:9
	b	.LBB13_8
.LBB13_6:
	b	.LBB13_7
.LBB13_7:
	.loc	2 0 9 is_stmt 0                 @ ../../Library/StdDriver/src/i2c.c:0:9
	add	r0, sp, #4
	.loc	2 356 36 is_stmt 1              @ ../../Library/StdDriver/src/i2c.c:356:36
	ldrb	r0, [r0]
	.loc	2 356 52 is_stmt 0              @ ../../Library/StdDriver/src/i2c.c:356:52
	lsls	r0, r0, #1
	.loc	2 356 9                         @ ../../Library/StdDriver/src/i2c.c:356:9
	ldr	r1, [sp, #12]
	.loc	2 356 24                        @ ../../Library/StdDriver/src/i2c.c:356:24
	str	r0, [r1, #36]
	.loc	2 357 9 is_stmt 1               @ ../../Library/StdDriver/src/i2c.c:357:9
	b	.LBB13_8
.Ltmp65:
.LBB13_8:
	.loc	2 359 1                         @ ../../Library/StdDriver/src/i2c.c:359:1
	add	sp, #16
	bx	lr
.Ltmp66:
.Lfunc_end13:
	.size	I2C_SetSlaveAddrMask, .Lfunc_end13-I2C_SetSlaveAddrMask
	.cfi_endproc
	.cantunwind
	.fnend
                                        @ -- End function
	.section	.text.I2C_EnableTimeout,"ax",%progbits
	.hidden	I2C_EnableTimeout               @ -- Begin function I2C_EnableTimeout
	.globl	I2C_EnableTimeout
	.p2align	1
	.type	I2C_EnableTimeout,%function
	.code	16                              @ @I2C_EnableTimeout
	.thumb_func
I2C_EnableTimeout:
.Lfunc_begin14:
	.loc	2 374 0                         @ ../../Library/StdDriver/src/i2c.c:374:0
	.fnstart
	.cfi_startproc
@ %bb.0:
	.pad	#8
	sub	sp, #8
	.cfi_def_cfa_offset 8
                                        @ kill: def $r2 killed $r1
	str	r0, [sp, #4]
	mov	r0, sp
	strb	r1, [r0]
.Ltmp67:
	.loc	2 375 9 prologue_end            @ ../../Library/StdDriver/src/i2c.c:375:9
	ldrb	r0, [r0]
.Ltmp68:
	.loc	2 375 9 is_stmt 0               @ ../../Library/StdDriver/src/i2c.c:375:9
	cmp	r0, #0
	beq	.LBB14_2
	b	.LBB14_1
.LBB14_1:
.Ltmp69:
	.loc	2 377 9 is_stmt 1               @ ../../Library/StdDriver/src/i2c.c:377:9
	ldr	r1, [sp, #4]
	.loc	2 377 20 is_stmt 0              @ ../../Library/StdDriver/src/i2c.c:377:20
	ldr	r0, [r1, #20]
	movs	r2, #2
	orrs	r0, r2
	str	r0, [r1, #20]
	.loc	2 378 5 is_stmt 1               @ ../../Library/StdDriver/src/i2c.c:378:5
	b	.LBB14_3
.Ltmp70:
.LBB14_2:
	.loc	2 381 9                         @ ../../Library/StdDriver/src/i2c.c:381:9
	ldr	r1, [sp, #4]
	.loc	2 381 20 is_stmt 0              @ ../../Library/StdDriver/src/i2c.c:381:20
	ldr	r0, [r1, #20]
	movs	r2, #2
	bics	r0, r2
	str	r0, [r1, #20]
	b	.LBB14_3
.Ltmp71:
.LBB14_3:
	.loc	2 384 5 is_stmt 1               @ ../../Library/StdDriver/src/i2c.c:384:5
	ldr	r1, [sp, #4]
	.loc	2 384 16 is_stmt 0              @ ../../Library/StdDriver/src/i2c.c:384:16
	ldr	r0, [r1, #20]
	movs	r2, #4
	orrs	r0, r2
	str	r0, [r1, #20]
	.loc	2 385 1 is_stmt 1               @ ../../Library/StdDriver/src/i2c.c:385:1
	add	sp, #8
	bx	lr
.Ltmp72:
.Lfunc_end14:
	.size	I2C_EnableTimeout, .Lfunc_end14-I2C_EnableTimeout
	.cfi_endproc
	.cantunwind
	.fnend
                                        @ -- End function
	.section	.text.I2C_DisableTimeout,"ax",%progbits
	.hidden	I2C_DisableTimeout              @ -- Begin function I2C_DisableTimeout
	.globl	I2C_DisableTimeout
	.p2align	1
	.type	I2C_DisableTimeout,%function
	.code	16                              @ @I2C_DisableTimeout
	.thumb_func
I2C_DisableTimeout:
.Lfunc_begin15:
	.loc	2 398 0                         @ ../../Library/StdDriver/src/i2c.c:398:0
	.fnstart
	.cfi_startproc
@ %bb.0:
	.pad	#4
	sub	sp, #4
	.cfi_def_cfa_offset 4
	str	r0, [sp]
.Ltmp73:
	.loc	2 399 5 prologue_end            @ ../../Library/StdDriver/src/i2c.c:399:5
	ldr	r1, [sp]
	.loc	2 399 16 is_stmt 0              @ ../../Library/StdDriver/src/i2c.c:399:16
	ldr	r0, [r1, #20]
	movs	r2, #4
	bics	r0, r2
	str	r0, [r1, #20]
	.loc	2 400 1 is_stmt 1               @ ../../Library/StdDriver/src/i2c.c:400:1
	add	sp, #4
	bx	lr
.Ltmp74:
.Lfunc_end15:
	.size	I2C_DisableTimeout, .Lfunc_end15-I2C_DisableTimeout
	.cfi_endproc
	.cantunwind
	.fnend
                                        @ -- End function
	.section	.text.I2C_EnableWakeup,"ax",%progbits
	.hidden	I2C_EnableWakeup                @ -- Begin function I2C_EnableWakeup
	.globl	I2C_EnableWakeup
	.p2align	1
	.type	I2C_EnableWakeup,%function
	.code	16                              @ @I2C_EnableWakeup
	.thumb_func
I2C_EnableWakeup:
.Lfunc_begin16:
	.loc	2 413 0                         @ ../../Library/StdDriver/src/i2c.c:413:0
	.fnstart
	.cfi_startproc
@ %bb.0:
	.pad	#4
	sub	sp, #4
	.cfi_def_cfa_offset 4
	str	r0, [sp]
.Ltmp75:
	.loc	2 414 5 prologue_end            @ ../../Library/StdDriver/src/i2c.c:414:5
	ldr	r1, [sp]
	.loc	2 414 16 is_stmt 0              @ ../../Library/StdDriver/src/i2c.c:414:16
	ldr	r0, [r1, #60]
	movs	r2, #1
	orrs	r0, r2
	str	r0, [r1, #60]
	.loc	2 415 1 is_stmt 1               @ ../../Library/StdDriver/src/i2c.c:415:1
	add	sp, #4
	bx	lr
.Ltmp76:
.Lfunc_end16:
	.size	I2C_EnableWakeup, .Lfunc_end16-I2C_EnableWakeup
	.cfi_endproc
	.cantunwind
	.fnend
                                        @ -- End function
	.section	.text.I2C_DisableWakeup,"ax",%progbits
	.hidden	I2C_DisableWakeup               @ -- Begin function I2C_DisableWakeup
	.globl	I2C_DisableWakeup
	.p2align	1
	.type	I2C_DisableWakeup,%function
	.code	16                              @ @I2C_DisableWakeup
	.thumb_func
I2C_DisableWakeup:
.Lfunc_begin17:
	.loc	2 428 0                         @ ../../Library/StdDriver/src/i2c.c:428:0
	.fnstart
	.cfi_startproc
@ %bb.0:
	.pad	#4
	sub	sp, #4
	.cfi_def_cfa_offset 4
	str	r0, [sp]
.Ltmp77:
	.loc	2 429 5 prologue_end            @ ../../Library/StdDriver/src/i2c.c:429:5
	ldr	r1, [sp]
	.loc	2 429 16 is_stmt 0              @ ../../Library/StdDriver/src/i2c.c:429:16
	ldr	r0, [r1, #60]
	movs	r2, #1
	bics	r0, r2
	str	r0, [r1, #60]
	.loc	2 430 1 is_stmt 1               @ ../../Library/StdDriver/src/i2c.c:430:1
	add	sp, #4
	bx	lr
.Ltmp78:
.Lfunc_end17:
	.size	I2C_DisableWakeup, .Lfunc_end17-I2C_DisableWakeup
	.cfi_endproc
	.cantunwind
	.fnend
                                        @ -- End function
	.section	.text.I2C_SMBusGetStatus,"ax",%progbits
	.hidden	I2C_SMBusGetStatus              @ -- Begin function I2C_SMBusGetStatus
	.globl	I2C_SMBusGetStatus
	.p2align	1
	.type	I2C_SMBusGetStatus,%function
	.code	16                              @ @I2C_SMBusGetStatus
	.thumb_func
I2C_SMBusGetStatus:
.Lfunc_begin18:
	.loc	2 443 0                         @ ../../Library/StdDriver/src/i2c.c:443:0
	.fnstart
	.cfi_startproc
@ %bb.0:
	.pad	#4
	sub	sp, #4
	.cfi_def_cfa_offset 4
	str	r0, [sp]
.Ltmp79:
	.loc	2 444 13 prologue_end           @ ../../Library/StdDriver/src/i2c.c:444:13
	ldr	r0, [sp]
	.loc	2 444 18 is_stmt 0              @ ../../Library/StdDriver/src/i2c.c:444:18
	ldr	r0, [r0, #88]
	.loc	2 444 5                         @ ../../Library/StdDriver/src/i2c.c:444:5
	add	sp, #4
	bx	lr
.Ltmp80:
.Lfunc_end18:
	.size	I2C_SMBusGetStatus, .Lfunc_end18-I2C_SMBusGetStatus
	.cfi_endproc
	.cantunwind
	.fnend
                                        @ -- End function
	.section	.text.I2C_SMBusClearInterruptFlag,"ax",%progbits
	.hidden	I2C_SMBusClearInterruptFlag     @ -- Begin function I2C_SMBusClearInterruptFlag
	.globl	I2C_SMBusClearInterruptFlag
	.p2align	1
	.type	I2C_SMBusClearInterruptFlag,%function
	.code	16                              @ @I2C_SMBusClearInterruptFlag
	.thumb_func
I2C_SMBusClearInterruptFlag:
.Lfunc_begin19:
	.loc	2 459 0 is_stmt 1               @ ../../Library/StdDriver/src/i2c.c:459:0
	.fnstart
	.cfi_startproc
@ %bb.0:
	.pad	#8
	sub	sp, #8
	.cfi_def_cfa_offset 8
                                        @ kill: def $r2 killed $r1
	str	r0, [sp, #4]
	mov	r0, sp
	strb	r1, [r0]
.Ltmp81:
	.loc	2 460 19 prologue_end           @ ../../Library/StdDriver/src/i2c.c:460:19
	ldrb	r0, [r0]
	.loc	2 460 5 is_stmt 0               @ ../../Library/StdDriver/src/i2c.c:460:5
	ldr	r1, [sp, #4]
	.loc	2 460 17                        @ ../../Library/StdDriver/src/i2c.c:460:17
	str	r0, [r1, #88]
	.loc	2 461 1 is_stmt 1               @ ../../Library/StdDriver/src/i2c.c:461:1
	add	sp, #8
	bx	lr
.Ltmp82:
.Lfunc_end19:
	.size	I2C_SMBusClearInterruptFlag, .Lfunc_end19-I2C_SMBusClearInterruptFlag
	.cfi_endproc
	.cantunwind
	.fnend
                                        @ -- End function
	.section	.text.I2C_SMBusSetPacketByteCount,"ax",%progbits
	.hidden	I2C_SMBusSetPacketByteCount     @ -- Begin function I2C_SMBusSetPacketByteCount
	.globl	I2C_SMBusSetPacketByteCount
	.p2align	1
	.type	I2C_SMBusSetPacketByteCount,%function
	.code	16                              @ @I2C_SMBusSetPacketByteCount
	.thumb_func
I2C_SMBusSetPacketByteCount:
.Lfunc_begin20:
	.loc	2 475 0                         @ ../../Library/StdDriver/src/i2c.c:475:0
	.fnstart
	.cfi_startproc
@ %bb.0:
	.pad	#8
	sub	sp, #8
	.cfi_def_cfa_offset 8
	str	r0, [sp, #4]
	str	r1, [sp]
.Ltmp83:
	.loc	2 476 20 prologue_end           @ ../../Library/StdDriver/src/i2c.c:476:20
	ldr	r0, [sp]
	.loc	2 476 5 is_stmt 0               @ ../../Library/StdDriver/src/i2c.c:476:5
	ldr	r1, [sp, #4]
	.loc	2 476 18                        @ ../../Library/StdDriver/src/i2c.c:476:18
	str	r0, [r1, #92]
	.loc	2 477 1 is_stmt 1               @ ../../Library/StdDriver/src/i2c.c:477:1
	add	sp, #8
	bx	lr
.Ltmp84:
.Lfunc_end20:
	.size	I2C_SMBusSetPacketByteCount, .Lfunc_end20-I2C_SMBusSetPacketByteCount
	.cfi_endproc
	.cantunwind
	.fnend
                                        @ -- End function
	.section	.text.I2C_SMBusOpen,"ax",%progbits
	.hidden	I2C_SMBusOpen                   @ -- Begin function I2C_SMBusOpen
	.globl	I2C_SMBusOpen
	.p2align	1
	.type	I2C_SMBusOpen,%function
	.code	16                              @ @I2C_SMBusOpen
	.thumb_func
I2C_SMBusOpen:
.Lfunc_begin21:
	.loc	2 491 0                         @ ../../Library/StdDriver/src/i2c.c:491:0
	.fnstart
	.cfi_startproc
@ %bb.0:
	.pad	#8
	sub	sp, #8
	.cfi_def_cfa_offset 8
                                        @ kill: def $r2 killed $r1
	str	r0, [sp, #4]
	mov	r0, sp
	strb	r1, [r0]
.Ltmp85:
	.loc	2 493 5 prologue_end            @ ../../Library/StdDriver/src/i2c.c:493:5
	ldr	r2, [sp, #4]
	.loc	2 493 17 is_stmt 0              @ ../../Library/StdDriver/src/i2c.c:493:17
	ldr	r1, [r2, #80]
	movs	r3, #12
	bics	r1, r3
	str	r1, [r2, #80]
.Ltmp86:
	.loc	2 496 8 is_stmt 1               @ ../../Library/StdDriver/src/i2c.c:496:8
	ldrb	r0, [r0]
.Ltmp87:
	.loc	2 496 8 is_stmt 0               @ ../../Library/StdDriver/src/i2c.c:496:8
	cmp	r0, #1
	bne	.LBB21_2
	b	.LBB21_1
.LBB21_1:
.Ltmp88:
	.loc	2 498 9 is_stmt 1               @ ../../Library/StdDriver/src/i2c.c:498:9
	ldr	r1, [sp, #4]
	.loc	2 498 21 is_stmt 0              @ ../../Library/StdDriver/src/i2c.c:498:21
	ldr	r0, [r1, #80]
	movs	r2, #136
	orrs	r0, r2
	str	r0, [r1, #80]
	.loc	2 499 5 is_stmt 1               @ ../../Library/StdDriver/src/i2c.c:499:5
	b	.LBB21_3
.Ltmp89:
.LBB21_2:
	.loc	2 502 9                         @ ../../Library/StdDriver/src/i2c.c:502:9
	ldr	r1, [sp, #4]
	.loc	2 502 21 is_stmt 0              @ ../../Library/StdDriver/src/i2c.c:502:21
	ldr	r0, [r1, #80]
	movs	r2, #132
	orrs	r0, r2
	str	r0, [r1, #80]
	b	.LBB21_3
.Ltmp90:
.LBB21_3:
	.loc	2 504 1 is_stmt 1               @ ../../Library/StdDriver/src/i2c.c:504:1
	add	sp, #8
	bx	lr
.Ltmp91:
.Lfunc_end21:
	.size	I2C_SMBusOpen, .Lfunc_end21-I2C_SMBusOpen
	.cfi_endproc
	.cantunwind
	.fnend
                                        @ -- End function
	.section	.text.I2C_SMBusClose,"ax",%progbits
	.hidden	I2C_SMBusClose                  @ -- Begin function I2C_SMBusClose
	.globl	I2C_SMBusClose
	.p2align	1
	.type	I2C_SMBusClose,%function
	.code	16                              @ @I2C_SMBusClose
	.thumb_func
I2C_SMBusClose:
.Lfunc_begin22:
	.loc	2 517 0                         @ ../../Library/StdDriver/src/i2c.c:517:0
	.fnstart
	.cfi_startproc
@ %bb.0:
	.pad	#4
	sub	sp, #4
	.cfi_def_cfa_offset 4
	str	r0, [sp]
.Ltmp92:
	.loc	2 519 5 prologue_end            @ ../../Library/StdDriver/src/i2c.c:519:5
	ldr	r1, [sp]
	movs	r0, #0
	.loc	2 519 17 is_stmt 0              @ ../../Library/StdDriver/src/i2c.c:519:17
	str	r0, [r1, #80]
	.loc	2 520 1 is_stmt 1               @ ../../Library/StdDriver/src/i2c.c:520:1
	add	sp, #4
	bx	lr
.Ltmp93:
.Lfunc_end22:
	.size	I2C_SMBusClose, .Lfunc_end22-I2C_SMBusClose
	.cfi_endproc
	.cantunwind
	.fnend
                                        @ -- End function
	.section	.text.I2C_SMBusPECTxEnable,"ax",%progbits
	.hidden	I2C_SMBusPECTxEnable            @ -- Begin function I2C_SMBusPECTxEnable
	.globl	I2C_SMBusPECTxEnable
	.p2align	1
	.type	I2C_SMBusPECTxEnable,%function
	.code	16                              @ @I2C_SMBusPECTxEnable
	.thumb_func
I2C_SMBusPECTxEnable:
.Lfunc_begin23:
	.loc	2 534 0                         @ ../../Library/StdDriver/src/i2c.c:534:0
	.fnstart
	.cfi_startproc
@ %bb.0:
	.pad	#8
	sub	sp, #8
	.cfi_def_cfa_offset 8
                                        @ kill: def $r2 killed $r1
	str	r0, [sp, #4]
	mov	r0, sp
	strb	r1, [r0]
.Ltmp94:
	.loc	2 535 5 prologue_end            @ ../../Library/StdDriver/src/i2c.c:535:5
	ldr	r2, [sp, #4]
	.loc	2 535 17 is_stmt 0              @ ../../Library/StdDriver/src/i2c.c:535:17
	ldr	r1, [r2, #80]
	movs	r3, #1
	lsls	r3, r3, #8
	bics	r1, r3
	str	r1, [r2, #80]
.Ltmp95:
	.loc	2 537 8 is_stmt 1               @ ../../Library/StdDriver/src/i2c.c:537:8
	ldrb	r0, [r0]
.Ltmp96:
	.loc	2 537 8 is_stmt 0               @ ../../Library/StdDriver/src/i2c.c:537:8
	cmp	r0, #0
	beq	.LBB23_2
	b	.LBB23_1
.LBB23_1:
.Ltmp97:
	.loc	2 539 9 is_stmt 1               @ ../../Library/StdDriver/src/i2c.c:539:9
	ldr	r1, [sp, #4]
	.loc	2 539 21 is_stmt 0              @ ../../Library/StdDriver/src/i2c.c:539:21
	ldr	r0, [r1, #80]
	movs	r2, #129
	lsls	r2, r2, #1
	orrs	r0, r2
	str	r0, [r1, #80]
	.loc	2 540 5 is_stmt 1               @ ../../Library/StdDriver/src/i2c.c:540:5
	b	.LBB23_3
.Ltmp98:
.LBB23_2:
	.loc	2 543 9                         @ ../../Library/StdDriver/src/i2c.c:543:9
	ldr	r1, [sp, #4]
	.loc	2 543 21 is_stmt 0              @ ../../Library/StdDriver/src/i2c.c:543:21
	ldr	r0, [r1, #80]
	movs	r2, #2
	orrs	r0, r2
	str	r0, [r1, #80]
	b	.LBB23_3
.Ltmp99:
.LBB23_3:
	.loc	2 545 1 is_stmt 1               @ ../../Library/StdDriver/src/i2c.c:545:1
	add	sp, #8
	bx	lr
.Ltmp100:
.Lfunc_end23:
	.size	I2C_SMBusPECTxEnable, .Lfunc_end23-I2C_SMBusPECTxEnable
	.cfi_endproc
	.cantunwind
	.fnend
                                        @ -- End function
	.section	.text.I2C_SMBusGetPECValue,"ax",%progbits
	.hidden	I2C_SMBusGetPECValue            @ -- Begin function I2C_SMBusGetPECValue
	.globl	I2C_SMBusGetPECValue
	.p2align	1
	.type	I2C_SMBusGetPECValue,%function
	.code	16                              @ @I2C_SMBusGetPECValue
	.thumb_func
I2C_SMBusGetPECValue:
.Lfunc_begin24:
	.loc	2 558 0                         @ ../../Library/StdDriver/src/i2c.c:558:0
	.fnstart
	.cfi_startproc
@ %bb.0:
	.pad	#4
	sub	sp, #4
	.cfi_def_cfa_offset 4
	str	r0, [sp]
.Ltmp101:
	.loc	2 559 21 prologue_end           @ ../../Library/StdDriver/src/i2c.c:559:21
	ldr	r0, [sp]
	.loc	2 559 26 is_stmt 0              @ ../../Library/StdDriver/src/i2c.c:559:26
	ldr	r0, [r0, #96]
	.loc	2 559 5                         @ ../../Library/StdDriver/src/i2c.c:559:5
	uxtb	r0, r0
	add	sp, #4
	bx	lr
.Ltmp102:
.Lfunc_end24:
	.size	I2C_SMBusGetPECValue, .Lfunc_end24-I2C_SMBusGetPECValue
	.cfi_endproc
	.cantunwind
	.fnend
                                        @ -- End function
	.section	.text.I2C_SMBusIdleTimeout,"ax",%progbits
	.hidden	I2C_SMBusIdleTimeout            @ -- Begin function I2C_SMBusIdleTimeout
	.globl	I2C_SMBusIdleTimeout
	.p2align	1
	.type	I2C_SMBusIdleTimeout,%function
	.code	16                              @ @I2C_SMBusIdleTimeout
	.thumb_func
I2C_SMBusIdleTimeout:
.Lfunc_begin25:
	.loc	2 576 0 is_stmt 1               @ ../../Library/StdDriver/src/i2c.c:576:0
	.fnstart
	.cfi_startproc
@ %bb.0:
	.save	{r7, lr}
	push	{r7, lr}
	.cfi_def_cfa_offset 8
	.cfi_offset lr, -4
	.cfi_offset r7, -8
	.pad	#24
	sub	sp, #24
	.cfi_def_cfa_offset 32
	str	r0, [sp, #20]
	str	r1, [sp, #16]
	str	r2, [sp, #12]
.Ltmp103:
	.loc	2 579 5 prologue_end            @ ../../Library/StdDriver/src/i2c.c:579:5
	ldr	r1, [sp, #20]
	.loc	2 579 17 is_stmt 0              @ ../../Library/StdDriver/src/i2c.c:579:17
	ldr	r0, [r1, #80]
	movs	r2, #1
	lsls	r2, r2, #9
	orrs	r0, r2
	str	r0, [r1, #80]
	.loc	2 580 19 is_stmt 1              @ ../../Library/StdDriver/src/i2c.c:580:19
	ldr	r0, [sp, #12]
	movs	r1, #125
	lsls	r1, r1, #3
	.loc	2 580 27 is_stmt 0              @ ../../Library/StdDriver/src/i2c.c:580:27
	str	r1, [sp]                        @ 4-byte Spill
	bl	__aeabi_uidiv
	ldr	r1, [sp]                        @ 4-byte Reload
	.loc	2 580 17                        @ ../../Library/StdDriver/src/i2c.c:580:17
	str	r0, [sp, #4]
	.loc	2 581 17 is_stmt 1              @ ../../Library/StdDriver/src/i2c.c:581:17
	ldr	r2, [sp, #16]
	.loc	2 581 22 is_stmt 0              @ ../../Library/StdDriver/src/i2c.c:581:22
	ldr	r0, [sp, #4]
	.loc	2 581 20                        @ ../../Library/StdDriver/src/i2c.c:581:20
	muls	r0, r2, r0
	.loc	2 581 35                        @ ../../Library/StdDriver/src/i2c.c:581:35
	bl	__aeabi_uidiv
	.loc	2 581 44                        @ ../../Library/StdDriver/src/i2c.c:581:44
	lsrs	r0, r0, #2
	.loc	2 581 51                        @ ../../Library/StdDriver/src/i2c.c:581:51
	subs	r0, r0, #1
	.loc	2 581 12                        @ ../../Library/StdDriver/src/i2c.c:581:12
	str	r0, [sp, #8]
.Ltmp104:
	.loc	2 582 8 is_stmt 1               @ ../../Library/StdDriver/src/i2c.c:582:8
	ldr	r0, [sp, #8]
.Ltmp105:
	.loc	2 582 8 is_stmt 0               @ ../../Library/StdDriver/src/i2c.c:582:8
	lsrs	r0, r0, #8
	cmp	r0, #0
	beq	.LBB25_2
	b	.LBB25_1
.LBB25_1:
.Ltmp106:
	.loc	2 584 9 is_stmt 1               @ ../../Library/StdDriver/src/i2c.c:584:9
	ldr	r1, [sp, #20]
	movs	r0, #255
	.loc	2 584 22 is_stmt 0              @ ../../Library/StdDriver/src/i2c.c:584:22
	str	r0, [r1, #100]
	.loc	2 585 5 is_stmt 1               @ ../../Library/StdDriver/src/i2c.c:585:5
	b	.LBB25_3
.Ltmp107:
.LBB25_2:
	.loc	2 588 24                        @ ../../Library/StdDriver/src/i2c.c:588:24
	ldr	r0, [sp, #8]
	.loc	2 588 9 is_stmt 0               @ ../../Library/StdDriver/src/i2c.c:588:9
	ldr	r1, [sp, #20]
	.loc	2 588 22                        @ ../../Library/StdDriver/src/i2c.c:588:22
	str	r0, [r1, #100]
	b	.LBB25_3
.Ltmp108:
.LBB25_3:
	.loc	2 591 1 is_stmt 1               @ ../../Library/StdDriver/src/i2c.c:591:1
	add	sp, #24
	pop	{r7, pc}
.Ltmp109:
.Lfunc_end25:
	.size	I2C_SMBusIdleTimeout, .Lfunc_end25-I2C_SMBusIdleTimeout
	.cfi_endproc
	.cantunwind
	.fnend
                                        @ -- End function
	.section	.text.I2C_SMBusTimeout,"ax",%progbits
	.hidden	I2C_SMBusTimeout                @ -- Begin function I2C_SMBusTimeout
	.globl	I2C_SMBusTimeout
	.p2align	1
	.type	I2C_SMBusTimeout,%function
	.code	16                              @ @I2C_SMBusTimeout
	.thumb_func
I2C_SMBusTimeout:
.Lfunc_begin26:
	.loc	2 608 0                         @ ../../Library/StdDriver/src/i2c.c:608:0
	.fnstart
	.cfi_startproc
@ %bb.0:
	.save	{r7, lr}
	push	{r7, lr}
	.cfi_def_cfa_offset 8
	.cfi_offset lr, -4
	.cfi_offset r7, -8
	.pad	#24
	sub	sp, #24
	.cfi_def_cfa_offset 32
	str	r0, [sp, #20]
	str	r1, [sp, #16]
	str	r2, [sp, #12]
.Ltmp110:
	.loc	2 611 5 prologue_end            @ ../../Library/StdDriver/src/i2c.c:611:5
	ldr	r1, [sp, #20]
	.loc	2 611 17 is_stmt 0              @ ../../Library/StdDriver/src/i2c.c:611:17
	ldr	r0, [r1, #80]
	movs	r2, #1
	lsls	r2, r2, #9
	bics	r0, r2
	str	r0, [r1, #80]
	.loc	2 614 5 is_stmt 1               @ ../../Library/StdDriver/src/i2c.c:614:5
	ldr	r1, [sp, #20]
	.loc	2 614 16 is_stmt 0              @ ../../Library/StdDriver/src/i2c.c:614:16
	ldr	r0, [r1, #20]
	movs	r2, #4
	bics	r0, r2
	str	r0, [r1, #20]
	.loc	2 615 19 is_stmt 1              @ ../../Library/StdDriver/src/i2c.c:615:19
	ldr	r0, [sp, #12]
	movs	r1, #125
	lsls	r1, r1, #3
	.loc	2 615 27 is_stmt 0              @ ../../Library/StdDriver/src/i2c.c:615:27
	bl	__aeabi_uidiv
	.loc	2 615 17                        @ ../../Library/StdDriver/src/i2c.c:615:17
	str	r0, [sp, #4]
	.loc	2 616 16 is_stmt 1              @ ../../Library/StdDriver/src/i2c.c:616:16
	ldr	r1, [sp, #16]
	.loc	2 616 21 is_stmt 0              @ ../../Library/StdDriver/src/i2c.c:616:21
	ldr	r0, [sp, #4]
	.loc	2 616 19                        @ ../../Library/StdDriver/src/i2c.c:616:19
	muls	r0, r1, r0
	.loc	2 616 34                        @ ../../Library/StdDriver/src/i2c.c:616:34
	lsrs	r0, r0, #14
	.loc	2 616 51                        @ ../../Library/StdDriver/src/i2c.c:616:51
	subs	r0, r0, #1
	.loc	2 616 12                        @ ../../Library/StdDriver/src/i2c.c:616:12
	str	r0, [sp, #8]
.Ltmp111:
	.loc	2 617 8 is_stmt 1               @ ../../Library/StdDriver/src/i2c.c:617:8
	ldr	r0, [sp, #8]
.Ltmp112:
	.loc	2 617 8 is_stmt 0               @ ../../Library/StdDriver/src/i2c.c:617:8
	cmp	r0, #255
	bhi	.LBB26_2
	b	.LBB26_1
.LBB26_1:
.Ltmp113:
	.loc	2 619 24 is_stmt 1              @ ../../Library/StdDriver/src/i2c.c:619:24
	ldr	r0, [sp, #8]
	.loc	2 619 9 is_stmt 0               @ ../../Library/StdDriver/src/i2c.c:619:9
	ldr	r1, [sp, #20]
	.loc	2 619 22                        @ ../../Library/StdDriver/src/i2c.c:619:22
	str	r0, [r1, #100]
	.loc	2 620 5 is_stmt 1               @ ../../Library/StdDriver/src/i2c.c:620:5
	b	.LBB26_3
.Ltmp114:
.LBB26_2:
	.loc	2 624 9                         @ ../../Library/StdDriver/src/i2c.c:624:9
	ldr	r1, [sp, #20]
	.loc	2 624 20 is_stmt 0              @ ../../Library/StdDriver/src/i2c.c:624:20
	ldr	r0, [r1, #20]
	movs	r2, #4
	orrs	r0, r2
	str	r0, [r1, #20]
	.loc	2 625 27 is_stmt 1              @ ../../Library/StdDriver/src/i2c.c:625:27
	ldr	r1, [sp, #16]
	.loc	2 625 32 is_stmt 0              @ ../../Library/StdDriver/src/i2c.c:625:32
	ldr	r0, [sp, #4]
	.loc	2 625 30                        @ ../../Library/StdDriver/src/i2c.c:625:30
	muls	r0, r1, r0
	.loc	2 625 45                        @ ../../Library/StdDriver/src/i2c.c:625:45
	lsrs	r0, r0, #16
	.loc	2 625 67                        @ ../../Library/StdDriver/src/i2c.c:625:67
	subs	r0, r0, #1
	.loc	2 625 73                        @ ../../Library/StdDriver/src/i2c.c:625:73
	uxtb	r0, r0
	.loc	2 625 9                         @ ../../Library/StdDriver/src/i2c.c:625:9
	ldr	r1, [sp, #20]
	.loc	2 625 22                        @ ../../Library/StdDriver/src/i2c.c:625:22
	str	r0, [r1, #100]
	b	.LBB26_3
.Ltmp115:
.LBB26_3:
	.loc	2 627 1 is_stmt 1               @ ../../Library/StdDriver/src/i2c.c:627:1
	add	sp, #24
	pop	{r7, pc}
.Ltmp116:
.Lfunc_end26:
	.size	I2C_SMBusTimeout, .Lfunc_end26-I2C_SMBusTimeout
	.cfi_endproc
	.cantunwind
	.fnend
                                        @ -- End function
	.section	.text.I2C_SMBusClockLoTimeout,"ax",%progbits
	.hidden	I2C_SMBusClockLoTimeout         @ -- Begin function I2C_SMBusClockLoTimeout
	.globl	I2C_SMBusClockLoTimeout
	.p2align	1
	.type	I2C_SMBusClockLoTimeout,%function
	.code	16                              @ @I2C_SMBusClockLoTimeout
	.thumb_func
I2C_SMBusClockLoTimeout:
.Lfunc_begin27:
	.loc	2 644 0                         @ ../../Library/StdDriver/src/i2c.c:644:0
	.fnstart
	.cfi_startproc
@ %bb.0:
	.save	{r7, lr}
	push	{r7, lr}
	.cfi_def_cfa_offset 8
	.cfi_offset lr, -4
	.cfi_offset r7, -8
	.pad	#24
	sub	sp, #24
	.cfi_def_cfa_offset 32
	str	r0, [sp, #20]
	str	r1, [sp, #16]
	str	r2, [sp, #12]
.Ltmp117:
	.loc	2 647 5 prologue_end            @ ../../Library/StdDriver/src/i2c.c:647:5
	ldr	r1, [sp, #20]
	.loc	2 647 17 is_stmt 0              @ ../../Library/StdDriver/src/i2c.c:647:17
	ldr	r0, [r1, #80]
	movs	r2, #1
	lsls	r2, r2, #9
	bics	r0, r2
	str	r0, [r1, #80]
	.loc	2 650 5 is_stmt 1               @ ../../Library/StdDriver/src/i2c.c:650:5
	ldr	r1, [sp, #20]
	.loc	2 650 16 is_stmt 0              @ ../../Library/StdDriver/src/i2c.c:650:16
	ldr	r0, [r1, #20]
	movs	r2, #4
	bics	r0, r2
	str	r0, [r1, #20]
	.loc	2 651 19 is_stmt 1              @ ../../Library/StdDriver/src/i2c.c:651:19
	ldr	r0, [sp, #12]
	movs	r1, #125
	lsls	r1, r1, #3
	.loc	2 651 27 is_stmt 0              @ ../../Library/StdDriver/src/i2c.c:651:27
	bl	__aeabi_uidiv
	.loc	2 651 17                        @ ../../Library/StdDriver/src/i2c.c:651:17
	str	r0, [sp, #4]
	.loc	2 652 16 is_stmt 1              @ ../../Library/StdDriver/src/i2c.c:652:16
	ldr	r1, [sp, #16]
	.loc	2 652 21 is_stmt 0              @ ../../Library/StdDriver/src/i2c.c:652:21
	ldr	r0, [sp, #4]
	.loc	2 652 19                        @ ../../Library/StdDriver/src/i2c.c:652:19
	muls	r0, r1, r0
	.loc	2 652 34                        @ ../../Library/StdDriver/src/i2c.c:652:34
	lsrs	r0, r0, #14
	.loc	2 652 51                        @ ../../Library/StdDriver/src/i2c.c:652:51
	subs	r0, r0, #1
	.loc	2 652 12                        @ ../../Library/StdDriver/src/i2c.c:652:12
	str	r0, [sp, #8]
.Ltmp118:
	.loc	2 653 8 is_stmt 1               @ ../../Library/StdDriver/src/i2c.c:653:8
	ldr	r0, [sp, #8]
.Ltmp119:
	.loc	2 653 8 is_stmt 0               @ ../../Library/StdDriver/src/i2c.c:653:8
	cmp	r0, #255
	bhi	.LBB27_2
	b	.LBB27_1
.LBB27_1:
.Ltmp120:
	.loc	2 655 24 is_stmt 1              @ ../../Library/StdDriver/src/i2c.c:655:24
	ldr	r0, [sp, #8]
	.loc	2 655 9 is_stmt 0               @ ../../Library/StdDriver/src/i2c.c:655:9
	ldr	r1, [sp, #20]
	.loc	2 655 22                        @ ../../Library/StdDriver/src/i2c.c:655:22
	str	r0, [r1, #104]
	.loc	2 656 5 is_stmt 1               @ ../../Library/StdDriver/src/i2c.c:656:5
	b	.LBB27_3
.Ltmp121:
.LBB27_2:
	.loc	2 660 9                         @ ../../Library/StdDriver/src/i2c.c:660:9
	ldr	r1, [sp, #20]
	.loc	2 660 20 is_stmt 0              @ ../../Library/StdDriver/src/i2c.c:660:20
	ldr	r0, [r1, #20]
	movs	r2, #4
	orrs	r0, r2
	str	r0, [r1, #20]
	.loc	2 661 27 is_stmt 1              @ ../../Library/StdDriver/src/i2c.c:661:27
	ldr	r1, [sp, #16]
	.loc	2 661 32 is_stmt 0              @ ../../Library/StdDriver/src/i2c.c:661:32
	ldr	r0, [sp, #4]
	.loc	2 661 30                        @ ../../Library/StdDriver/src/i2c.c:661:30
	muls	r0, r1, r0
	.loc	2 661 45                        @ ../../Library/StdDriver/src/i2c.c:661:45
	lsrs	r0, r0, #16
	.loc	2 661 67                        @ ../../Library/StdDriver/src/i2c.c:661:67
	subs	r0, r0, #1
	.loc	2 661 73                        @ ../../Library/StdDriver/src/i2c.c:661:73
	uxtb	r0, r0
	.loc	2 661 9                         @ ../../Library/StdDriver/src/i2c.c:661:9
	ldr	r1, [sp, #20]
	.loc	2 661 22                        @ ../../Library/StdDriver/src/i2c.c:661:22
	str	r0, [r1, #104]
	b	.LBB27_3
.Ltmp122:
.LBB27_3:
	.loc	2 663 1 is_stmt 1               @ ../../Library/StdDriver/src/i2c.c:663:1
	add	sp, #24
	pop	{r7, pc}
.Ltmp123:
.Lfunc_end27:
	.size	I2C_SMBusClockLoTimeout, .Lfunc_end27-I2C_SMBusClockLoTimeout
	.cfi_endproc
	.cantunwind
	.fnend
                                        @ -- End function
	.section	.text.I2C_WriteByte,"ax",%progbits
	.hidden	I2C_WriteByte                   @ -- Begin function I2C_WriteByte
	.globl	I2C_WriteByte
	.p2align	2
	.type	I2C_WriteByte,%function
	.code	16                              @ @I2C_WriteByte
	.thumb_func
I2C_WriteByte:
.Lfunc_begin28:
	.loc	2 680 0                         @ ../../Library/StdDriver/src/i2c.c:680:0
	.fnstart
	.cfi_startproc
@ %bb.0:
	.pad	#36
	sub	sp, #36
	.cfi_def_cfa_offset 36
                                        @ kill: def $r3 killed $r2
                                        @ kill: def $r3 killed $r1
	str	r0, [sp, #32]
	add	r0, sp, #28
	strb	r1, [r0]
	add	r0, sp, #24
	strb	r2, [r0]
	add	r1, sp, #20
	movs	r0, #1
.Ltmp124:
	.loc	2 681 13 prologue_end           @ ../../Library/StdDriver/src/i2c.c:681:13
	strb	r0, [r1]
	add	r1, sp, #16
	movs	r0, #0
	.loc	2 681 29 is_stmt 0              @ ../../Library/StdDriver/src/i2c.c:681:29
	strb	r0, [r1]
	add	r1, sp, #12
	.loc	2 681 41                        @ ../../Library/StdDriver/src/i2c.c:681:41
	strb	r0, [r1]
	.loc	2 684 22 is_stmt 1              @ ../../Library/StdDriver/src/i2c.c:684:22
	ldr	r1, __arm_cp.28_0
	str	r0, [r1]
	.loc	2 686 5                         @ ../../Library/StdDriver/src/i2c.c:686:5
	ldr	r0, [sp, #32]
	ldr	r0, [r0]
	movs	r1, #40
	orrs	r0, r1
	ldr	r1, [sp, #32]
	str	r0, [r1]
	.loc	2 688 5                         @ ../../Library/StdDriver/src/i2c.c:688:5
	b	.LBB28_1
.LBB28_1:                               @ =>This Loop Header: Depth=1
                                        @     Child Loop BB28_5 Depth 2
	.loc	2 0 5 is_stmt 0                 @ ../../Library/StdDriver/src/i2c.c:0:5
	add	r0, sp, #20
	.loc	2 688 12                        @ ../../Library/StdDriver/src/i2c.c:688:12
	ldrb	r1, [r0]
	movs	r0, #0
	.loc	2 688 22                        @ ../../Library/StdDriver/src/i2c.c:688:22
	cmp	r1, #0
	str	r0, [sp, #4]                    @ 4-byte Spill
	beq	.LBB28_3
	b	.LBB28_2
.LBB28_2:                               @   in Loop: Header=BB28_1 Depth=1
	.loc	2 0 22                          @ ../../Library/StdDriver/src/i2c.c:0:22
	add	r0, sp, #16
	.loc	2 688 26                        @ ../../Library/StdDriver/src/i2c.c:688:26
	ldrb	r0, [r0]
	.loc	2 688 32                        @ ../../Library/StdDriver/src/i2c.c:688:32
	rsbs	r1, r0, #0
	adcs	r0, r1
	str	r0, [sp, #4]                    @ 4-byte Spill
	b	.LBB28_3
.LBB28_3:                               @   in Loop: Header=BB28_1 Depth=1
	.loc	2 0 0                           @ ../../Library/StdDriver/src/i2c.c:0:0
	ldr	r0, [sp, #4]                    @ 4-byte Reload
	.loc	2 688 5                         @ ../../Library/StdDriver/src/i2c.c:688:5
	lsls	r0, r0, #31
	cmp	r0, #0
	bne	.LBB28_4
	b	.LBB28_19
.LBB28_4:                               @   in Loop: Header=BB28_1 Depth=1
.Ltmp125:
	.loc	2 690 27 is_stmt 1              @ ../../Library/StdDriver/src/i2c.c:690:27
	ldr	r0, __arm_cp.28_1
	ldr	r0, [r0]
	.loc	2 690 25 is_stmt 0              @ ../../Library/StdDriver/src/i2c.c:690:25
	str	r0, [sp, #8]
	.loc	2 691 9 is_stmt 1               @ ../../Library/StdDriver/src/i2c.c:691:9
	b	.LBB28_5
.LBB28_5:                               @   Parent Loop BB28_1 Depth=1
                                        @ =>  This Inner Loop Header: Depth=2
	ldr	r0, [sp, #32]
	ldr	r0, [r0]
	lsls	r0, r0, #28
	cmp	r0, #0
	bmi	.LBB28_9
	b	.LBB28_6
.LBB28_6:                               @   in Loop: Header=BB28_5 Depth=2
.Ltmp126:
	.loc	2 693 28                        @ ../../Library/StdDriver/src/i2c.c:693:28
	ldr	r0, [sp, #8]
	subs	r0, r0, #1
	str	r0, [sp, #8]
.Ltmp127:
	.loc	2 694 16                        @ ../../Library/StdDriver/src/i2c.c:694:16
	ldr	r0, [sp, #8]
.Ltmp128:
	.loc	2 694 16 is_stmt 0              @ ../../Library/StdDriver/src/i2c.c:694:16
	cmp	r0, #0
	bne	.LBB28_8
	b	.LBB28_7
.LBB28_7:                               @   in Loop: Header=BB28_1 Depth=1
.Ltmp129:
	.loc	2 696 34 is_stmt 1              @ ../../Library/StdDriver/src/i2c.c:696:34
	ldr	r1, __arm_cp.28_0
	movs	r0, #0
	mvns	r0, r0
	str	r0, [r1]
	.loc	2 697 17                        @ ../../Library/StdDriver/src/i2c.c:697:17
	b	.LBB28_9
.Ltmp130:
.LBB28_8:                               @   in Loop: Header=BB28_5 Depth=2
	.loc	2 691 9                         @ ../../Library/StdDriver/src/i2c.c:691:9
	b	.LBB28_5
.LBB28_9:                               @   in Loop: Header=BB28_1 Depth=1
	.loc	2 701 17                        @ ../../Library/StdDriver/src/i2c.c:701:17
	ldr	r0, [sp, #32]
	ldr	r0, [r0, #12]
	.loc	2 701 9 is_stmt 0               @ ../../Library/StdDriver/src/i2c.c:701:9
	subs	r0, #8
	str	r0, [sp]                        @ 4-byte Spill
	cmp	r0, #48
	bls	.LBB28_10
	b	.LBB28_17
.LBB28_10:                              @   in Loop: Header=BB28_1 Depth=1
	.loc	2 0 9                           @ ../../Library/StdDriver/src/i2c.c:0:9
	ldr	r0, [sp]                        @ 4-byte Reload
	lsls	r1, r0, #2
	adr	r0, .LJTI28_0
	ldr	r0, [r0, r1]
	mov	pc, r0
@ %bb.11:
	.p2align	2
.LJTI28_0:
	.long	.LBB28_12+1
	.long	.LBB28_17+1
	.long	.LBB28_17+1
	.long	.LBB28_17+1
	.long	.LBB28_17+1
	.long	.LBB28_17+1
	.long	.LBB28_17+1
	.long	.LBB28_17+1
	.long	.LBB28_17+1
	.long	.LBB28_17+1
	.long	.LBB28_17+1
	.long	.LBB28_17+1
	.long	.LBB28_17+1
	.long	.LBB28_17+1
	.long	.LBB28_17+1
	.long	.LBB28_17+1
	.long	.LBB28_13+1
	.long	.LBB28_17+1
	.long	.LBB28_17+1
	.long	.LBB28_17+1
	.long	.LBB28_17+1
	.long	.LBB28_17+1
	.long	.LBB28_17+1
	.long	.LBB28_17+1
	.long	.LBB28_14+1
	.long	.LBB28_17+1
	.long	.LBB28_17+1
	.long	.LBB28_17+1
	.long	.LBB28_17+1
	.long	.LBB28_17+1
	.long	.LBB28_17+1
	.long	.LBB28_17+1
	.long	.LBB28_15+1
	.long	.LBB28_17+1
	.long	.LBB28_17+1
	.long	.LBB28_17+1
	.long	.LBB28_17+1
	.long	.LBB28_17+1
	.long	.LBB28_17+1
	.long	.LBB28_17+1
	.long	.LBB28_14+1
	.long	.LBB28_17+1
	.long	.LBB28_17+1
	.long	.LBB28_17+1
	.long	.LBB28_17+1
	.long	.LBB28_17+1
	.long	.LBB28_17+1
	.long	.LBB28_17+1
	.long	.LBB28_16+1
.LBB28_12:                              @   in Loop: Header=BB28_1 Depth=1
.Ltmp131:
	.loc	2 704 13 is_stmt 1              @ ../../Library/StdDriver/src/i2c.c:704:13
	ldr	r0, [sp, #28]
	lsls	r0, r0, #25
	lsrs	r0, r0, #24
	ldr	r1, [sp, #32]
	str	r0, [r1, #8]
	add	r1, sp, #12
	movs	r0, #8
	.loc	2 705 20                        @ ../../Library/StdDriver/src/i2c.c:705:20
	strb	r0, [r1]
	.loc	2 706 13                        @ ../../Library/StdDriver/src/i2c.c:706:13
	b	.LBB28_18
.LBB28_13:                              @   in Loop: Header=BB28_1 Depth=1
	.loc	2 0 13 is_stmt 0                @ ../../Library/StdDriver/src/i2c.c:0:13
	add	r0, sp, #24
	.loc	2 709 13 is_stmt 1              @ ../../Library/StdDriver/src/i2c.c:709:13
	ldrb	r0, [r0]
	ldr	r1, [sp, #32]
	str	r0, [r1, #8]
	.loc	2 710 13                        @ ../../Library/StdDriver/src/i2c.c:710:13
	b	.LBB28_18
.LBB28_14:                              @   in Loop: Header=BB28_1 Depth=1
	.loc	2 0 13 is_stmt 0                @ ../../Library/StdDriver/src/i2c.c:0:13
	add	r1, sp, #12
	movs	r0, #24
	.loc	2 714 20 is_stmt 1              @ ../../Library/StdDriver/src/i2c.c:714:20
	strb	r0, [r1]
	add	r1, sp, #16
	movs	r0, #1
	.loc	2 715 19                        @ ../../Library/StdDriver/src/i2c.c:715:19
	strb	r0, [r1]
	.loc	2 716 13                        @ ../../Library/StdDriver/src/i2c.c:716:13
	b	.LBB28_18
.LBB28_15:                              @   in Loop: Header=BB28_1 Depth=1
	.loc	2 0 13 is_stmt 0                @ ../../Library/StdDriver/src/i2c.c:0:13
	add	r1, sp, #12
	movs	r0, #24
	.loc	2 719 20 is_stmt 1              @ ../../Library/StdDriver/src/i2c.c:719:20
	strb	r0, [r1]
	add	r1, sp, #20
	movs	r0, #0
	.loc	2 720 23                        @ ../../Library/StdDriver/src/i2c.c:720:23
	strb	r0, [r1]
	.loc	2 721 13                        @ ../../Library/StdDriver/src/i2c.c:721:13
	b	.LBB28_18
.LBB28_16:                              @   in Loop: Header=BB28_1 Depth=1
	b	.LBB28_17
.LBB28_17:                              @   in Loop: Header=BB28_1 Depth=1
	.loc	2 725 13                        @ ../../Library/StdDriver/src/i2c.c:725:13
	ldr	r0, [sp, #32]
	ldr	r0, [r0]
	movs	r1, #24
	orrs	r0, r1
	movs	r1, #36
	bics	r0, r1
	ldr	r1, [sp, #32]
	str	r0, [r1]
	add	r1, sp, #12
	movs	r0, #8
	.loc	2 726 20                        @ ../../Library/StdDriver/src/i2c.c:726:20
	strb	r0, [r1]
	add	r1, sp, #16
	movs	r0, #1
	.loc	2 727 19                        @ ../../Library/StdDriver/src/i2c.c:727:19
	strb	r0, [r1]
	.loc	2 728 13                        @ ../../Library/StdDriver/src/i2c.c:728:13
	b	.LBB28_18
.Ltmp132:
.LBB28_18:                              @   in Loop: Header=BB28_1 Depth=1
	.loc	2 731 9                         @ ../../Library/StdDriver/src/i2c.c:731:9
	ldr	r0, [sp, #32]
	ldr	r0, [r0]
	movs	r1, #60
	bics	r0, r1
	add	r1, sp, #12
	ldrb	r1, [r1]
	orrs	r0, r1
	ldr	r1, [sp, #32]
	str	r0, [r1]
.Ltmp133:
	.loc	2 688 5                         @ ../../Library/StdDriver/src/i2c.c:688:5
	b	.LBB28_1
.LBB28_19:
	.loc	2 734 23                        @ ../../Library/StdDriver/src/i2c.c:734:23
	ldr	r0, __arm_cp.28_1
	ldr	r0, [r0]
	.loc	2 734 21 is_stmt 0              @ ../../Library/StdDriver/src/i2c.c:734:21
	str	r0, [sp, #8]
	.loc	2 735 5 is_stmt 1               @ ../../Library/StdDriver/src/i2c.c:735:5
	b	.LBB28_20
.LBB28_20:                              @ =>This Inner Loop Header: Depth=1
	.loc	2 735 13 is_stmt 0              @ ../../Library/StdDriver/src/i2c.c:735:13
	ldr	r0, [sp, #32]
	.loc	2 735 19                        @ ../../Library/StdDriver/src/i2c.c:735:19
	ldr	r0, [r0]
	.loc	2 735 5                         @ ../../Library/StdDriver/src/i2c.c:735:5
	lsls	r0, r0, #27
	cmp	r0, #0
	bpl	.LBB28_24
	b	.LBB28_21
.LBB28_21:                              @   in Loop: Header=BB28_20 Depth=1
.Ltmp134:
	.loc	2 737 24 is_stmt 1              @ ../../Library/StdDriver/src/i2c.c:737:24
	ldr	r0, [sp, #8]
	subs	r0, r0, #1
	str	r0, [sp, #8]
.Ltmp135:
	.loc	2 738 12                        @ ../../Library/StdDriver/src/i2c.c:738:12
	ldr	r0, [sp, #8]
.Ltmp136:
	.loc	2 738 12 is_stmt 0              @ ../../Library/StdDriver/src/i2c.c:738:12
	cmp	r0, #0
	bne	.LBB28_23
	b	.LBB28_22
.LBB28_22:
.Ltmp137:
	.loc	2 740 30 is_stmt 1              @ ../../Library/StdDriver/src/i2c.c:740:30
	ldr	r1, __arm_cp.28_0
	movs	r0, #0
	mvns	r0, r0
	str	r0, [r1]
	.loc	2 741 13                        @ ../../Library/StdDriver/src/i2c.c:741:13
	b	.LBB28_24
.Ltmp138:
.LBB28_23:                              @   in Loop: Header=BB28_20 Depth=1
	.loc	2 735 5                         @ ../../Library/StdDriver/src/i2c.c:735:5
	b	.LBB28_20
.LBB28_24:
	.loc	2 0 5 is_stmt 0                 @ ../../Library/StdDriver/src/i2c.c:0:5
	add	r0, sp, #16
	.loc	2 745 13 is_stmt 1              @ ../../Library/StdDriver/src/i2c.c:745:13
	ldrb	r0, [r0]
	add	r1, sp, #20
	.loc	2 745 21 is_stmt 0              @ ../../Library/StdDriver/src/i2c.c:745:21
	ldrb	r1, [r1]
	.loc	2 745 19                        @ ../../Library/StdDriver/src/i2c.c:745:19
	orrs	r0, r1
	.loc	2 745 5                         @ ../../Library/StdDriver/src/i2c.c:745:5
	add	sp, #36
	bx	lr
.Ltmp139:
	.p2align	2
@ %bb.25:
	.loc	2 0 5                           @ ../../Library/StdDriver/src/i2c.c:0:5
__arm_cp.28_0:
	.long	g_I2C_i32ErrCode
.Lcpi_end6:
	.size	__arm_cp.28_0, .Lcpi_end6-__arm_cp.28_0
__arm_cp.28_1:
	.long	SystemCoreClock
.Lcpi_end7:
	.size	__arm_cp.28_1, .Lcpi_end7-__arm_cp.28_1
.Lfunc_end28:
	.size	I2C_WriteByte, .Lfunc_end28-I2C_WriteByte
	.cfi_endproc
	.cantunwind
	.fnend
                                        @ -- End function
	.section	.text.I2C_WriteMultiBytes,"ax",%progbits
	.hidden	I2C_WriteMultiBytes             @ -- Begin function I2C_WriteMultiBytes
	.globl	I2C_WriteMultiBytes
	.p2align	2
	.type	I2C_WriteMultiBytes,%function
	.code	16                              @ @I2C_WriteMultiBytes
	.thumb_func
I2C_WriteMultiBytes:
.Lfunc_begin29:
	.loc	2 763 0 is_stmt 1               @ ../../Library/StdDriver/src/i2c.c:763:0
	.fnstart
	.cfi_startproc
@ %bb.0:
	.save	{r4, lr}
	push	{r4, lr}
	.cfi_def_cfa_offset 8
	.cfi_offset lr, -4
	.cfi_offset r4, -8
	.pad	#44
	sub	sp, #44
	.cfi_def_cfa_offset 52
                                        @ kill: def $r4 killed $r1
	str	r0, [sp, #40]
	add	r0, sp, #36
	strb	r1, [r0]
	str	r2, [sp, #32]
	str	r3, [sp, #28]
	add	r1, sp, #24
	movs	r0, #1
.Ltmp140:
	.loc	2 764 13 prologue_end           @ ../../Library/StdDriver/src/i2c.c:764:13
	strb	r0, [r1]
	add	r1, sp, #20
	movs	r0, #0
	.loc	2 764 29 is_stmt 0              @ ../../Library/StdDriver/src/i2c.c:764:29
	strb	r0, [r1]
	add	r1, sp, #16
	.loc	2 764 41                        @ ../../Library/StdDriver/src/i2c.c:764:41
	strb	r0, [r1]
	.loc	2 765 14 is_stmt 1              @ ../../Library/StdDriver/src/i2c.c:765:14
	str	r0, [sp, #12]
	.loc	2 768 22                        @ ../../Library/StdDriver/src/i2c.c:768:22
	ldr	r1, __arm_cp.29_0
	str	r0, [r1]
	.loc	2 770 5                         @ ../../Library/StdDriver/src/i2c.c:770:5
	ldr	r0, [sp, #40]
	ldr	r0, [r0]
	movs	r1, #40
	orrs	r0, r1
	ldr	r1, [sp, #40]
	str	r0, [r1]
	.loc	2 772 5                         @ ../../Library/StdDriver/src/i2c.c:772:5
	b	.LBB29_1
.LBB29_1:                               @ =>This Loop Header: Depth=1
                                        @     Child Loop BB29_5 Depth 2
	.loc	2 0 5 is_stmt 0                 @ ../../Library/StdDriver/src/i2c.c:0:5
	add	r0, sp, #24
	.loc	2 772 12                        @ ../../Library/StdDriver/src/i2c.c:772:12
	ldrb	r1, [r0]
	movs	r0, #0
	.loc	2 772 22                        @ ../../Library/StdDriver/src/i2c.c:772:22
	cmp	r1, #0
	str	r0, [sp, #4]                    @ 4-byte Spill
	beq	.LBB29_3
	b	.LBB29_2
.LBB29_2:                               @   in Loop: Header=BB29_1 Depth=1
	.loc	2 0 22                          @ ../../Library/StdDriver/src/i2c.c:0:22
	add	r0, sp, #20
	.loc	2 772 26                        @ ../../Library/StdDriver/src/i2c.c:772:26
	ldrb	r0, [r0]
	.loc	2 772 32                        @ ../../Library/StdDriver/src/i2c.c:772:32
	rsbs	r1, r0, #0
	adcs	r0, r1
	str	r0, [sp, #4]                    @ 4-byte Spill
	b	.LBB29_3
.LBB29_3:                               @   in Loop: Header=BB29_1 Depth=1
	.loc	2 0 0                           @ ../../Library/StdDriver/src/i2c.c:0:0
	ldr	r0, [sp, #4]                    @ 4-byte Reload
	.loc	2 772 5                         @ ../../Library/StdDriver/src/i2c.c:772:5
	lsls	r0, r0, #31
	cmp	r0, #0
	bne	.LBB29_4
	b	.LBB29_21
.LBB29_4:                               @   in Loop: Header=BB29_1 Depth=1
.Ltmp141:
	.loc	2 774 27 is_stmt 1              @ ../../Library/StdDriver/src/i2c.c:774:27
	ldr	r0, __arm_cp.29_1
	ldr	r0, [r0]
	.loc	2 774 25 is_stmt 0              @ ../../Library/StdDriver/src/i2c.c:774:25
	str	r0, [sp, #8]
	.loc	2 775 9 is_stmt 1               @ ../../Library/StdDriver/src/i2c.c:775:9
	b	.LBB29_5
.LBB29_5:                               @   Parent Loop BB29_1 Depth=1
                                        @ =>  This Inner Loop Header: Depth=2
	ldr	r0, [sp, #40]
	ldr	r0, [r0]
	lsls	r0, r0, #28
	cmp	r0, #0
	bmi	.LBB29_9
	b	.LBB29_6
.LBB29_6:                               @   in Loop: Header=BB29_5 Depth=2
.Ltmp142:
	.loc	2 777 28                        @ ../../Library/StdDriver/src/i2c.c:777:28
	ldr	r0, [sp, #8]
	subs	r0, r0, #1
	str	r0, [sp, #8]
.Ltmp143:
	.loc	2 778 16                        @ ../../Library/StdDriver/src/i2c.c:778:16
	ldr	r0, [sp, #8]
.Ltmp144:
	.loc	2 778 16 is_stmt 0              @ ../../Library/StdDriver/src/i2c.c:778:16
	cmp	r0, #0
	bne	.LBB29_8
	b	.LBB29_7
.LBB29_7:                               @   in Loop: Header=BB29_1 Depth=1
.Ltmp145:
	.loc	2 780 34 is_stmt 1              @ ../../Library/StdDriver/src/i2c.c:780:34
	ldr	r1, __arm_cp.29_0
	movs	r0, #0
	mvns	r0, r0
	str	r0, [r1]
	.loc	2 781 17                        @ ../../Library/StdDriver/src/i2c.c:781:17
	b	.LBB29_9
.Ltmp146:
.LBB29_8:                               @   in Loop: Header=BB29_5 Depth=2
	.loc	2 775 9                         @ ../../Library/StdDriver/src/i2c.c:775:9
	b	.LBB29_5
.LBB29_9:                               @   in Loop: Header=BB29_1 Depth=1
	.loc	2 785 17                        @ ../../Library/StdDriver/src/i2c.c:785:17
	ldr	r0, [sp, #40]
	ldr	r0, [r0, #12]
	.loc	2 785 9 is_stmt 0               @ ../../Library/StdDriver/src/i2c.c:785:9
	subs	r0, #8
	str	r0, [sp]                        @ 4-byte Spill
	cmp	r0, #48
	bls	.LBB29_10
	b	.LBB29_19
.LBB29_10:                              @   in Loop: Header=BB29_1 Depth=1
	.loc	2 0 9                           @ ../../Library/StdDriver/src/i2c.c:0:9
	ldr	r0, [sp]                        @ 4-byte Reload
	lsls	r1, r0, #2
	adr	r0, .LJTI29_0
	ldr	r0, [r0, r1]
	mov	pc, r0
@ %bb.11:
	.p2align	2
.LJTI29_0:
	.long	.LBB29_12+1
	.long	.LBB29_19+1
	.long	.LBB29_19+1
	.long	.LBB29_19+1
	.long	.LBB29_19+1
	.long	.LBB29_19+1
	.long	.LBB29_19+1
	.long	.LBB29_19+1
	.long	.LBB29_19+1
	.long	.LBB29_19+1
	.long	.LBB29_19+1
	.long	.LBB29_19+1
	.long	.LBB29_19+1
	.long	.LBB29_19+1
	.long	.LBB29_19+1
	.long	.LBB29_19+1
	.long	.LBB29_13+1
	.long	.LBB29_19+1
	.long	.LBB29_19+1
	.long	.LBB29_19+1
	.long	.LBB29_19+1
	.long	.LBB29_19+1
	.long	.LBB29_19+1
	.long	.LBB29_19+1
	.long	.LBB29_17+1
	.long	.LBB29_19+1
	.long	.LBB29_19+1
	.long	.LBB29_19+1
	.long	.LBB29_19+1
	.long	.LBB29_19+1
	.long	.LBB29_19+1
	.long	.LBB29_19+1
	.long	.LBB29_13+1
	.long	.LBB29_19+1
	.long	.LBB29_19+1
	.long	.LBB29_19+1
	.long	.LBB29_19+1
	.long	.LBB29_19+1
	.long	.LBB29_19+1
	.long	.LBB29_19+1
	.long	.LBB29_17+1
	.long	.LBB29_19+1
	.long	.LBB29_19+1
	.long	.LBB29_19+1
	.long	.LBB29_19+1
	.long	.LBB29_19+1
	.long	.LBB29_19+1
	.long	.LBB29_19+1
	.long	.LBB29_18+1
.LBB29_12:                              @   in Loop: Header=BB29_1 Depth=1
.Ltmp147:
	.loc	2 788 13 is_stmt 1              @ ../../Library/StdDriver/src/i2c.c:788:13
	ldr	r0, [sp, #36]
	lsls	r0, r0, #25
	lsrs	r0, r0, #24
	ldr	r1, [sp, #40]
	str	r0, [r1, #8]
	add	r1, sp, #16
	movs	r0, #8
	.loc	2 789 20                        @ ../../Library/StdDriver/src/i2c.c:789:20
	strb	r0, [r1]
	.loc	2 790 13                        @ ../../Library/StdDriver/src/i2c.c:790:13
	b	.LBB29_20
.LBB29_13:                              @   in Loop: Header=BB29_1 Depth=1
.Ltmp148:
	.loc	2 794 17                        @ ../../Library/StdDriver/src/i2c.c:794:17
	ldr	r0, [sp, #12]
	.loc	2 794 28 is_stmt 0              @ ../../Library/StdDriver/src/i2c.c:794:28
	ldr	r1, [sp, #28]
.Ltmp149:
	.loc	2 794 17                        @ ../../Library/StdDriver/src/i2c.c:794:17
	cmp	r0, r1
	bhs	.LBB29_15
	b	.LBB29_14
.LBB29_14:                              @   in Loop: Header=BB29_1 Depth=1
.Ltmp150:
	.loc	2 795 17 is_stmt 1              @ ../../Library/StdDriver/src/i2c.c:795:17
	ldr	r0, [sp, #32]
	ldr	r1, [sp, #12]
	adds	r2, r1, #1
	str	r2, [sp, #12]
	ldrb	r0, [r0, r1]
	ldr	r1, [sp, #40]
	str	r0, [r1, #8]
	b	.LBB29_16
.LBB29_15:                              @   in Loop: Header=BB29_1 Depth=1
	.loc	2 0 17 is_stmt 0                @ ../../Library/StdDriver/src/i2c.c:0:17
	add	r1, sp, #16
	movs	r0, #24
.Ltmp151:
	.loc	2 798 24 is_stmt 1              @ ../../Library/StdDriver/src/i2c.c:798:24
	strb	r0, [r1]
	add	r1, sp, #24
	movs	r0, #0
	.loc	2 799 27                        @ ../../Library/StdDriver/src/i2c.c:799:27
	strb	r0, [r1]
	b	.LBB29_16
.Ltmp152:
.LBB29_16:                              @   in Loop: Header=BB29_1 Depth=1
	.loc	2 802 13                        @ ../../Library/StdDriver/src/i2c.c:802:13
	b	.LBB29_20
.LBB29_17:                              @   in Loop: Header=BB29_1 Depth=1
	.loc	2 0 13 is_stmt 0                @ ../../Library/StdDriver/src/i2c.c:0:13
	add	r1, sp, #16
	movs	r0, #24
	.loc	2 806 20 is_stmt 1              @ ../../Library/StdDriver/src/i2c.c:806:20
	strb	r0, [r1]
	add	r1, sp, #20
	movs	r0, #1
	.loc	2 807 19                        @ ../../Library/StdDriver/src/i2c.c:807:19
	strb	r0, [r1]
	.loc	2 808 13                        @ ../../Library/StdDriver/src/i2c.c:808:13
	b	.LBB29_20
.LBB29_18:                              @   in Loop: Header=BB29_1 Depth=1
	b	.LBB29_19
.LBB29_19:                              @   in Loop: Header=BB29_1 Depth=1
	.loc	2 812 13                        @ ../../Library/StdDriver/src/i2c.c:812:13
	ldr	r0, [sp, #40]
	ldr	r0, [r0]
	movs	r1, #24
	orrs	r0, r1
	movs	r1, #36
	bics	r0, r1
	ldr	r1, [sp, #40]
	str	r0, [r1]
	add	r1, sp, #16
	movs	r0, #8
	.loc	2 813 20                        @ ../../Library/StdDriver/src/i2c.c:813:20
	strb	r0, [r1]
	add	r1, sp, #20
	movs	r0, #1
	.loc	2 814 19                        @ ../../Library/StdDriver/src/i2c.c:814:19
	strb	r0, [r1]
	.loc	2 815 13                        @ ../../Library/StdDriver/src/i2c.c:815:13
	b	.LBB29_20
.Ltmp153:
.LBB29_20:                              @   in Loop: Header=BB29_1 Depth=1
	.loc	2 818 9                         @ ../../Library/StdDriver/src/i2c.c:818:9
	ldr	r0, [sp, #40]
	ldr	r0, [r0]
	movs	r1, #60
	bics	r0, r1
	add	r1, sp, #16
	ldrb	r1, [r1]
	orrs	r0, r1
	ldr	r1, [sp, #40]
	str	r0, [r1]
.Ltmp154:
	.loc	2 772 5                         @ ../../Library/StdDriver/src/i2c.c:772:5
	b	.LBB29_1
.LBB29_21:
	.loc	2 821 23                        @ ../../Library/StdDriver/src/i2c.c:821:23
	ldr	r0, __arm_cp.29_1
	ldr	r0, [r0]
	.loc	2 821 21 is_stmt 0              @ ../../Library/StdDriver/src/i2c.c:821:21
	str	r0, [sp, #8]
	.loc	2 822 5 is_stmt 1               @ ../../Library/StdDriver/src/i2c.c:822:5
	b	.LBB29_22
.LBB29_22:                              @ =>This Inner Loop Header: Depth=1
	.loc	2 822 13 is_stmt 0              @ ../../Library/StdDriver/src/i2c.c:822:13
	ldr	r0, [sp, #40]
	.loc	2 822 19                        @ ../../Library/StdDriver/src/i2c.c:822:19
	ldr	r0, [r0]
	.loc	2 822 5                         @ ../../Library/StdDriver/src/i2c.c:822:5
	lsls	r0, r0, #27
	cmp	r0, #0
	bpl	.LBB29_26
	b	.LBB29_23
.LBB29_23:                              @   in Loop: Header=BB29_22 Depth=1
.Ltmp155:
	.loc	2 824 24 is_stmt 1              @ ../../Library/StdDriver/src/i2c.c:824:24
	ldr	r0, [sp, #8]
	subs	r0, r0, #1
	str	r0, [sp, #8]
.Ltmp156:
	.loc	2 825 12                        @ ../../Library/StdDriver/src/i2c.c:825:12
	ldr	r0, [sp, #8]
.Ltmp157:
	.loc	2 825 12 is_stmt 0              @ ../../Library/StdDriver/src/i2c.c:825:12
	cmp	r0, #0
	bne	.LBB29_25
	b	.LBB29_24
.LBB29_24:
.Ltmp158:
	.loc	2 827 30 is_stmt 1              @ ../../Library/StdDriver/src/i2c.c:827:30
	ldr	r1, __arm_cp.29_0
	movs	r0, #0
	mvns	r0, r0
	str	r0, [r1]
	.loc	2 828 13                        @ ../../Library/StdDriver/src/i2c.c:828:13
	b	.LBB29_26
.Ltmp159:
.LBB29_25:                              @   in Loop: Header=BB29_22 Depth=1
	.loc	2 822 5                         @ ../../Library/StdDriver/src/i2c.c:822:5
	b	.LBB29_22
.LBB29_26:
	.loc	2 832 12                        @ ../../Library/StdDriver/src/i2c.c:832:12
	ldr	r0, [sp, #12]
	.loc	2 832 5 is_stmt 0               @ ../../Library/StdDriver/src/i2c.c:832:5
	add	sp, #44
	pop	{r4, pc}
.Ltmp160:
	.p2align	2
@ %bb.27:
	.loc	2 0 5                           @ ../../Library/StdDriver/src/i2c.c:0:5
__arm_cp.29_0:
	.long	g_I2C_i32ErrCode
.Lcpi_end8:
	.size	__arm_cp.29_0, .Lcpi_end8-__arm_cp.29_0
__arm_cp.29_1:
	.long	SystemCoreClock
.Lcpi_end9:
	.size	__arm_cp.29_1, .Lcpi_end9-__arm_cp.29_1
.Lfunc_end29:
	.size	I2C_WriteMultiBytes, .Lfunc_end29-I2C_WriteMultiBytes
	.cfi_endproc
	.cantunwind
	.fnend
                                        @ -- End function
	.section	.text.I2C_WriteByteOneReg,"ax",%progbits
	.hidden	I2C_WriteByteOneReg             @ -- Begin function I2C_WriteByteOneReg
	.globl	I2C_WriteByteOneReg
	.p2align	2
	.type	I2C_WriteByteOneReg,%function
	.code	16                              @ @I2C_WriteByteOneReg
	.thumb_func
I2C_WriteByteOneReg:
.Lfunc_begin30:
	.loc	2 851 0 is_stmt 1               @ ../../Library/StdDriver/src/i2c.c:851:0
	.fnstart
	.cfi_startproc
@ %bb.0:
	.save	{r4, lr}
	push	{r4, lr}
	.cfi_def_cfa_offset 8
	.cfi_offset lr, -4
	.cfi_offset r4, -8
	.pad	#44
	sub	sp, #44
	.cfi_def_cfa_offset 52
                                        @ kill: def $r4 killed $r3
                                        @ kill: def $r4 killed $r2
                                        @ kill: def $r4 killed $r1
	str	r0, [sp, #40]
	add	r0, sp, #36
	strb	r1, [r0]
	add	r0, sp, #32
	strb	r2, [r0]
	add	r0, sp, #28
	strb	r3, [r0]
	add	r1, sp, #24
	movs	r0, #1
.Ltmp161:
	.loc	2 852 13 prologue_end           @ ../../Library/StdDriver/src/i2c.c:852:13
	strb	r0, [r1]
	add	r1, sp, #20
	movs	r0, #0
	.loc	2 852 29 is_stmt 0              @ ../../Library/StdDriver/src/i2c.c:852:29
	strb	r0, [r1]
	add	r1, sp, #16
	.loc	2 852 41                        @ ../../Library/StdDriver/src/i2c.c:852:41
	strb	r0, [r1]
	.loc	2 853 14 is_stmt 1              @ ../../Library/StdDriver/src/i2c.c:853:14
	str	r0, [sp, #12]
	.loc	2 856 22                        @ ../../Library/StdDriver/src/i2c.c:856:22
	ldr	r1, __arm_cp.30_0
	str	r0, [r1]
	.loc	2 858 5                         @ ../../Library/StdDriver/src/i2c.c:858:5
	ldr	r0, [sp, #40]
	ldr	r0, [r0]
	movs	r1, #40
	orrs	r0, r1
	ldr	r1, [sp, #40]
	str	r0, [r1]
	.loc	2 860 5                         @ ../../Library/StdDriver/src/i2c.c:860:5
	b	.LBB30_1
.LBB30_1:                               @ =>This Loop Header: Depth=1
                                        @     Child Loop BB30_5 Depth 2
	.loc	2 0 5 is_stmt 0                 @ ../../Library/StdDriver/src/i2c.c:0:5
	add	r0, sp, #24
	.loc	2 860 12                        @ ../../Library/StdDriver/src/i2c.c:860:12
	ldrb	r1, [r0]
	movs	r0, #0
	.loc	2 860 22                        @ ../../Library/StdDriver/src/i2c.c:860:22
	cmp	r1, #0
	str	r0, [sp, #4]                    @ 4-byte Spill
	beq	.LBB30_3
	b	.LBB30_2
.LBB30_2:                               @   in Loop: Header=BB30_1 Depth=1
	.loc	2 0 22                          @ ../../Library/StdDriver/src/i2c.c:0:22
	add	r0, sp, #20
	.loc	2 860 26                        @ ../../Library/StdDriver/src/i2c.c:860:26
	ldrb	r0, [r0]
	.loc	2 860 32                        @ ../../Library/StdDriver/src/i2c.c:860:32
	rsbs	r1, r0, #0
	adcs	r0, r1
	str	r0, [sp, #4]                    @ 4-byte Spill
	b	.LBB30_3
.LBB30_3:                               @   in Loop: Header=BB30_1 Depth=1
	.loc	2 0 0                           @ ../../Library/StdDriver/src/i2c.c:0:0
	ldr	r0, [sp, #4]                    @ 4-byte Reload
	.loc	2 860 5                         @ ../../Library/StdDriver/src/i2c.c:860:5
	lsls	r0, r0, #31
	cmp	r0, #0
	bne	.LBB30_4
	b	.LBB30_22
.LBB30_4:                               @   in Loop: Header=BB30_1 Depth=1
.Ltmp162:
	.loc	2 862 27 is_stmt 1              @ ../../Library/StdDriver/src/i2c.c:862:27
	ldr	r0, __arm_cp.30_1
	ldr	r0, [r0]
	.loc	2 862 25 is_stmt 0              @ ../../Library/StdDriver/src/i2c.c:862:25
	str	r0, [sp, #8]
	.loc	2 863 9 is_stmt 1               @ ../../Library/StdDriver/src/i2c.c:863:9
	b	.LBB30_5
.LBB30_5:                               @   Parent Loop BB30_1 Depth=1
                                        @ =>  This Inner Loop Header: Depth=2
	ldr	r0, [sp, #40]
	ldr	r0, [r0]
	lsls	r0, r0, #28
	cmp	r0, #0
	bmi	.LBB30_9
	b	.LBB30_6
.LBB30_6:                               @   in Loop: Header=BB30_5 Depth=2
.Ltmp163:
	.loc	2 865 28                        @ ../../Library/StdDriver/src/i2c.c:865:28
	ldr	r0, [sp, #8]
	subs	r0, r0, #1
	str	r0, [sp, #8]
.Ltmp164:
	.loc	2 866 16                        @ ../../Library/StdDriver/src/i2c.c:866:16
	ldr	r0, [sp, #8]
.Ltmp165:
	.loc	2 866 16 is_stmt 0              @ ../../Library/StdDriver/src/i2c.c:866:16
	cmp	r0, #0
	bne	.LBB30_8
	b	.LBB30_7
.LBB30_7:                               @   in Loop: Header=BB30_1 Depth=1
.Ltmp166:
	.loc	2 868 34 is_stmt 1              @ ../../Library/StdDriver/src/i2c.c:868:34
	ldr	r1, __arm_cp.30_0
	movs	r0, #0
	mvns	r0, r0
	str	r0, [r1]
	.loc	2 869 17                        @ ../../Library/StdDriver/src/i2c.c:869:17
	b	.LBB30_9
.Ltmp167:
.LBB30_8:                               @   in Loop: Header=BB30_5 Depth=2
	.loc	2 863 9                         @ ../../Library/StdDriver/src/i2c.c:863:9
	b	.LBB30_5
.LBB30_9:                               @   in Loop: Header=BB30_1 Depth=1
	.loc	2 873 17                        @ ../../Library/StdDriver/src/i2c.c:873:17
	ldr	r0, [sp, #40]
	ldr	r0, [r0, #12]
	.loc	2 873 9 is_stmt 0               @ ../../Library/StdDriver/src/i2c.c:873:9
	subs	r0, #8
	str	r0, [sp]                        @ 4-byte Spill
	cmp	r0, #48
	bls	.LBB30_10
	b	.LBB30_20
.LBB30_10:                              @   in Loop: Header=BB30_1 Depth=1
	.loc	2 0 9                           @ ../../Library/StdDriver/src/i2c.c:0:9
	ldr	r0, [sp]                        @ 4-byte Reload
	lsls	r1, r0, #2
	adr	r0, .LJTI30_0
	ldr	r0, [r0, r1]
	mov	pc, r0
@ %bb.11:
	.p2align	2
.LJTI30_0:
	.long	.LBB30_12+1
	.long	.LBB30_20+1
	.long	.LBB30_20+1
	.long	.LBB30_20+1
	.long	.LBB30_20+1
	.long	.LBB30_20+1
	.long	.LBB30_20+1
	.long	.LBB30_20+1
	.long	.LBB30_20+1
	.long	.LBB30_20+1
	.long	.LBB30_20+1
	.long	.LBB30_20+1
	.long	.LBB30_20+1
	.long	.LBB30_20+1
	.long	.LBB30_20+1
	.long	.LBB30_20+1
	.long	.LBB30_13+1
	.long	.LBB30_20+1
	.long	.LBB30_20+1
	.long	.LBB30_20+1
	.long	.LBB30_20+1
	.long	.LBB30_20+1
	.long	.LBB30_20+1
	.long	.LBB30_20+1
	.long	.LBB30_14+1
	.long	.LBB30_20+1
	.long	.LBB30_20+1
	.long	.LBB30_20+1
	.long	.LBB30_20+1
	.long	.LBB30_20+1
	.long	.LBB30_20+1
	.long	.LBB30_20+1
	.long	.LBB30_15+1
	.long	.LBB30_20+1
	.long	.LBB30_20+1
	.long	.LBB30_20+1
	.long	.LBB30_20+1
	.long	.LBB30_20+1
	.long	.LBB30_20+1
	.long	.LBB30_20+1
	.long	.LBB30_14+1
	.long	.LBB30_20+1
	.long	.LBB30_20+1
	.long	.LBB30_20+1
	.long	.LBB30_20+1
	.long	.LBB30_20+1
	.long	.LBB30_20+1
	.long	.LBB30_20+1
	.long	.LBB30_19+1
.LBB30_12:                              @   in Loop: Header=BB30_1 Depth=1
.Ltmp168:
	.loc	2 876 13 is_stmt 1              @ ../../Library/StdDriver/src/i2c.c:876:13
	ldr	r0, [sp, #36]
	lsls	r0, r0, #25
	lsrs	r0, r0, #24
	ldr	r1, [sp, #40]
	str	r0, [r1, #8]
	add	r1, sp, #16
	movs	r0, #8
	.loc	2 877 20                        @ ../../Library/StdDriver/src/i2c.c:877:20
	strb	r0, [r1]
	.loc	2 878 13                        @ ../../Library/StdDriver/src/i2c.c:878:13
	b	.LBB30_21
.LBB30_13:                              @   in Loop: Header=BB30_1 Depth=1
	.loc	2 0 13 is_stmt 0                @ ../../Library/StdDriver/src/i2c.c:0:13
	add	r0, sp, #32
	.loc	2 881 13 is_stmt 1              @ ../../Library/StdDriver/src/i2c.c:881:13
	ldrb	r0, [r0]
	ldr	r1, [sp, #40]
	str	r0, [r1, #8]
	.loc	2 882 13                        @ ../../Library/StdDriver/src/i2c.c:882:13
	b	.LBB30_21
.LBB30_14:                              @   in Loop: Header=BB30_1 Depth=1
	.loc	2 0 13 is_stmt 0                @ ../../Library/StdDriver/src/i2c.c:0:13
	add	r1, sp, #16
	movs	r0, #24
	.loc	2 886 20 is_stmt 1              @ ../../Library/StdDriver/src/i2c.c:886:20
	strb	r0, [r1]
	add	r1, sp, #20
	movs	r0, #1
	.loc	2 887 19                        @ ../../Library/StdDriver/src/i2c.c:887:19
	strb	r0, [r1]
	.loc	2 888 13                        @ ../../Library/StdDriver/src/i2c.c:888:13
	b	.LBB30_21
.LBB30_15:                              @   in Loop: Header=BB30_1 Depth=1
.Ltmp169:
	.loc	2 891 17                        @ ../../Library/StdDriver/src/i2c.c:891:17
	ldr	r0, [sp, #12]
.Ltmp170:
	.loc	2 891 17 is_stmt 0              @ ../../Library/StdDriver/src/i2c.c:891:17
	cmp	r0, #0
	bne	.LBB30_17
	b	.LBB30_16
.LBB30_16:                              @   in Loop: Header=BB30_1 Depth=1
	.loc	2 0 17                          @ ../../Library/StdDriver/src/i2c.c:0:17
	add	r0, sp, #28
.Ltmp171:
	.loc	2 893 17 is_stmt 1              @ ../../Library/StdDriver/src/i2c.c:893:17
	ldrb	r0, [r0]
	ldr	r1, [sp, #40]
	str	r0, [r1, #8]
	.loc	2 894 25                        @ ../../Library/StdDriver/src/i2c.c:894:25
	ldr	r0, [sp, #12]
	adds	r0, r0, #1
	str	r0, [sp, #12]
	.loc	2 895 13                        @ ../../Library/StdDriver/src/i2c.c:895:13
	b	.LBB30_18
.Ltmp172:
.LBB30_17:                              @   in Loop: Header=BB30_1 Depth=1
	.loc	2 0 13 is_stmt 0                @ ../../Library/StdDriver/src/i2c.c:0:13
	add	r1, sp, #16
	movs	r0, #24
.Ltmp173:
	.loc	2 898 24 is_stmt 1              @ ../../Library/StdDriver/src/i2c.c:898:24
	strb	r0, [r1]
	add	r1, sp, #24
	movs	r0, #0
	.loc	2 899 27                        @ ../../Library/StdDriver/src/i2c.c:899:27
	strb	r0, [r1]
	b	.LBB30_18
.Ltmp174:
.LBB30_18:                              @   in Loop: Header=BB30_1 Depth=1
	.loc	2 902 13                        @ ../../Library/StdDriver/src/i2c.c:902:13
	b	.LBB30_21
.LBB30_19:                              @   in Loop: Header=BB30_1 Depth=1
	b	.LBB30_20
.LBB30_20:                              @   in Loop: Header=BB30_1 Depth=1
	.loc	2 906 13                        @ ../../Library/StdDriver/src/i2c.c:906:13
	ldr	r0, [sp, #40]
	ldr	r0, [r0]
	movs	r1, #24
	orrs	r0, r1
	movs	r1, #36
	bics	r0, r1
	ldr	r1, [sp, #40]
	str	r0, [r1]
	add	r1, sp, #16
	movs	r0, #8
	.loc	2 907 20                        @ ../../Library/StdDriver/src/i2c.c:907:20
	strb	r0, [r1]
	add	r1, sp, #20
	movs	r0, #1
	.loc	2 908 19                        @ ../../Library/StdDriver/src/i2c.c:908:19
	strb	r0, [r1]
	.loc	2 909 13                        @ ../../Library/StdDriver/src/i2c.c:909:13
	b	.LBB30_21
.Ltmp175:
.LBB30_21:                              @   in Loop: Header=BB30_1 Depth=1
	.loc	2 912 9                         @ ../../Library/StdDriver/src/i2c.c:912:9
	ldr	r0, [sp, #40]
	ldr	r0, [r0]
	movs	r1, #60
	bics	r0, r1
	add	r1, sp, #16
	ldrb	r1, [r1]
	orrs	r0, r1
	ldr	r1, [sp, #40]
	str	r0, [r1]
.Ltmp176:
	.loc	2 860 5                         @ ../../Library/StdDriver/src/i2c.c:860:5
	b	.LBB30_1
.LBB30_22:
	.loc	2 915 23                        @ ../../Library/StdDriver/src/i2c.c:915:23
	ldr	r0, __arm_cp.30_1
	ldr	r0, [r0]
	.loc	2 915 21 is_stmt 0              @ ../../Library/StdDriver/src/i2c.c:915:21
	str	r0, [sp, #8]
	.loc	2 916 5 is_stmt 1               @ ../../Library/StdDriver/src/i2c.c:916:5
	b	.LBB30_23
.LBB30_23:                              @ =>This Inner Loop Header: Depth=1
	.loc	2 916 13 is_stmt 0              @ ../../Library/StdDriver/src/i2c.c:916:13
	ldr	r0, [sp, #40]
	.loc	2 916 19                        @ ../../Library/StdDriver/src/i2c.c:916:19
	ldr	r0, [r0]
	.loc	2 916 5                         @ ../../Library/StdDriver/src/i2c.c:916:5
	lsls	r0, r0, #27
	cmp	r0, #0
	bpl	.LBB30_27
	b	.LBB30_24
.LBB30_24:                              @   in Loop: Header=BB30_23 Depth=1
.Ltmp177:
	.loc	2 918 24 is_stmt 1              @ ../../Library/StdDriver/src/i2c.c:918:24
	ldr	r0, [sp, #8]
	subs	r0, r0, #1
	str	r0, [sp, #8]
.Ltmp178:
	.loc	2 919 12                        @ ../../Library/StdDriver/src/i2c.c:919:12
	ldr	r0, [sp, #8]
.Ltmp179:
	.loc	2 919 12 is_stmt 0              @ ../../Library/StdDriver/src/i2c.c:919:12
	cmp	r0, #0
	bne	.LBB30_26
	b	.LBB30_25
.LBB30_25:
.Ltmp180:
	.loc	2 921 30 is_stmt 1              @ ../../Library/StdDriver/src/i2c.c:921:30
	ldr	r1, __arm_cp.30_0
	movs	r0, #0
	mvns	r0, r0
	str	r0, [r1]
	.loc	2 922 13                        @ ../../Library/StdDriver/src/i2c.c:922:13
	b	.LBB30_27
.Ltmp181:
.LBB30_26:                              @   in Loop: Header=BB30_23 Depth=1
	.loc	2 916 5                         @ ../../Library/StdDriver/src/i2c.c:916:5
	b	.LBB30_23
.LBB30_27:
	.loc	2 0 5 is_stmt 0                 @ ../../Library/StdDriver/src/i2c.c:0:5
	add	r0, sp, #20
	.loc	2 926 13 is_stmt 1              @ ../../Library/StdDriver/src/i2c.c:926:13
	ldrb	r0, [r0]
	add	r1, sp, #24
	.loc	2 926 21 is_stmt 0              @ ../../Library/StdDriver/src/i2c.c:926:21
	ldrb	r1, [r1]
	.loc	2 926 19                        @ ../../Library/StdDriver/src/i2c.c:926:19
	orrs	r0, r1
	.loc	2 926 5                         @ ../../Library/StdDriver/src/i2c.c:926:5
	add	sp, #44
	pop	{r4, pc}
.Ltmp182:
	.p2align	2
@ %bb.28:
	.loc	2 0 5                           @ ../../Library/StdDriver/src/i2c.c:0:5
__arm_cp.30_0:
	.long	g_I2C_i32ErrCode
.Lcpi_end10:
	.size	__arm_cp.30_0, .Lcpi_end10-__arm_cp.30_0
__arm_cp.30_1:
	.long	SystemCoreClock
.Lcpi_end11:
	.size	__arm_cp.30_1, .Lcpi_end11-__arm_cp.30_1
.Lfunc_end30:
	.size	I2C_WriteByteOneReg, .Lfunc_end30-I2C_WriteByteOneReg
	.cfi_endproc
	.cantunwind
	.fnend
                                        @ -- End function
	.section	.text.I2C_WriteMultiBytesOneReg,"ax",%progbits
	.hidden	I2C_WriteMultiBytesOneReg       @ -- Begin function I2C_WriteMultiBytesOneReg
	.globl	I2C_WriteMultiBytesOneReg
	.p2align	2
	.type	I2C_WriteMultiBytesOneReg,%function
	.code	16                              @ @I2C_WriteMultiBytesOneReg
	.thumb_func
I2C_WriteMultiBytesOneReg:
.Lfunc_begin31:
	.loc	2 946 0 is_stmt 1               @ ../../Library/StdDriver/src/i2c.c:946:0
	.fnstart
	.cfi_startproc
@ %bb.0:
	.save	{r4, lr}
	push	{r4, lr}
	.cfi_def_cfa_offset 8
	.cfi_offset lr, -4
	.cfi_offset r4, -8
	.pad	#44
	sub	sp, #44
	.cfi_def_cfa_offset 52
	ldr	r4, [sp, #52]
                                        @ kill: def $r4 killed $r2
                                        @ kill: def $r4 killed $r1
	str	r0, [sp, #40]
	add	r0, sp, #36
	strb	r1, [r0]
	add	r0, sp, #32
	strb	r2, [r0]
	str	r3, [sp, #28]
	add	r1, sp, #24
	movs	r0, #1
.Ltmp183:
	.loc	2 947 13 prologue_end           @ ../../Library/StdDriver/src/i2c.c:947:13
	strb	r0, [r1]
	add	r1, sp, #20
	movs	r0, #0
	.loc	2 947 29 is_stmt 0              @ ../../Library/StdDriver/src/i2c.c:947:29
	strb	r0, [r1]
	add	r1, sp, #16
	.loc	2 947 41                        @ ../../Library/StdDriver/src/i2c.c:947:41
	strb	r0, [r1]
	.loc	2 948 14 is_stmt 1              @ ../../Library/StdDriver/src/i2c.c:948:14
	str	r0, [sp, #12]
	.loc	2 951 22                        @ ../../Library/StdDriver/src/i2c.c:951:22
	ldr	r1, __arm_cp.31_0
	str	r0, [r1]
	.loc	2 953 5                         @ ../../Library/StdDriver/src/i2c.c:953:5
	ldr	r0, [sp, #40]
	ldr	r0, [r0]
	movs	r1, #40
	orrs	r0, r1
	ldr	r1, [sp, #40]
	str	r0, [r1]
	.loc	2 955 5                         @ ../../Library/StdDriver/src/i2c.c:955:5
	b	.LBB31_1
.LBB31_1:                               @ =>This Loop Header: Depth=1
                                        @     Child Loop BB31_5 Depth 2
	.loc	2 0 5 is_stmt 0                 @ ../../Library/StdDriver/src/i2c.c:0:5
	add	r0, sp, #24
	.loc	2 955 12                        @ ../../Library/StdDriver/src/i2c.c:955:12
	ldrb	r1, [r0]
	movs	r0, #0
	.loc	2 955 22                        @ ../../Library/StdDriver/src/i2c.c:955:22
	cmp	r1, #0
	str	r0, [sp, #4]                    @ 4-byte Spill
	beq	.LBB31_3
	b	.LBB31_2
.LBB31_2:                               @   in Loop: Header=BB31_1 Depth=1
	.loc	2 0 22                          @ ../../Library/StdDriver/src/i2c.c:0:22
	add	r0, sp, #20
	.loc	2 955 26                        @ ../../Library/StdDriver/src/i2c.c:955:26
	ldrb	r0, [r0]
	.loc	2 955 32                        @ ../../Library/StdDriver/src/i2c.c:955:32
	rsbs	r1, r0, #0
	adcs	r0, r1
	str	r0, [sp, #4]                    @ 4-byte Spill
	b	.LBB31_3
.LBB31_3:                               @   in Loop: Header=BB31_1 Depth=1
	.loc	2 0 0                           @ ../../Library/StdDriver/src/i2c.c:0:0
	ldr	r0, [sp, #4]                    @ 4-byte Reload
	.loc	2 955 5                         @ ../../Library/StdDriver/src/i2c.c:955:5
	lsls	r0, r0, #31
	cmp	r0, #0
	bne	.LBB31_4
	b	.LBB31_22
.LBB31_4:                               @   in Loop: Header=BB31_1 Depth=1
.Ltmp184:
	.loc	2 957 27 is_stmt 1              @ ../../Library/StdDriver/src/i2c.c:957:27
	ldr	r0, __arm_cp.31_1
	ldr	r0, [r0]
	.loc	2 957 25 is_stmt 0              @ ../../Library/StdDriver/src/i2c.c:957:25
	str	r0, [sp, #8]
	.loc	2 958 9 is_stmt 1               @ ../../Library/StdDriver/src/i2c.c:958:9
	b	.LBB31_5
.LBB31_5:                               @   Parent Loop BB31_1 Depth=1
                                        @ =>  This Inner Loop Header: Depth=2
	ldr	r0, [sp, #40]
	ldr	r0, [r0]
	lsls	r0, r0, #28
	cmp	r0, #0
	bmi	.LBB31_9
	b	.LBB31_6
.LBB31_6:                               @   in Loop: Header=BB31_5 Depth=2
.Ltmp185:
	.loc	2 960 28                        @ ../../Library/StdDriver/src/i2c.c:960:28
	ldr	r0, [sp, #8]
	subs	r0, r0, #1
	str	r0, [sp, #8]
.Ltmp186:
	.loc	2 961 16                        @ ../../Library/StdDriver/src/i2c.c:961:16
	ldr	r0, [sp, #8]
.Ltmp187:
	.loc	2 961 16 is_stmt 0              @ ../../Library/StdDriver/src/i2c.c:961:16
	cmp	r0, #0
	bne	.LBB31_8
	b	.LBB31_7
.LBB31_7:                               @   in Loop: Header=BB31_1 Depth=1
.Ltmp188:
	.loc	2 963 34 is_stmt 1              @ ../../Library/StdDriver/src/i2c.c:963:34
	ldr	r1, __arm_cp.31_0
	movs	r0, #0
	mvns	r0, r0
	str	r0, [r1]
	.loc	2 964 17                        @ ../../Library/StdDriver/src/i2c.c:964:17
	b	.LBB31_9
.Ltmp189:
.LBB31_8:                               @   in Loop: Header=BB31_5 Depth=2
	.loc	2 958 9                         @ ../../Library/StdDriver/src/i2c.c:958:9
	b	.LBB31_5
.LBB31_9:                               @   in Loop: Header=BB31_1 Depth=1
	.loc	2 968 17                        @ ../../Library/StdDriver/src/i2c.c:968:17
	ldr	r0, [sp, #40]
	ldr	r0, [r0, #12]
	.loc	2 968 9 is_stmt 0               @ ../../Library/StdDriver/src/i2c.c:968:9
	subs	r0, #8
	str	r0, [sp]                        @ 4-byte Spill
	cmp	r0, #48
	bls	.LBB31_10
	b	.LBB31_20
.LBB31_10:                              @   in Loop: Header=BB31_1 Depth=1
	.loc	2 0 9                           @ ../../Library/StdDriver/src/i2c.c:0:9
	ldr	r0, [sp]                        @ 4-byte Reload
	lsls	r1, r0, #2
	adr	r0, .LJTI31_0
	ldr	r0, [r0, r1]
	mov	pc, r0
@ %bb.11:
	.p2align	2
.LJTI31_0:
	.long	.LBB31_12+1
	.long	.LBB31_20+1
	.long	.LBB31_20+1
	.long	.LBB31_20+1
	.long	.LBB31_20+1
	.long	.LBB31_20+1
	.long	.LBB31_20+1
	.long	.LBB31_20+1
	.long	.LBB31_20+1
	.long	.LBB31_20+1
	.long	.LBB31_20+1
	.long	.LBB31_20+1
	.long	.LBB31_20+1
	.long	.LBB31_20+1
	.long	.LBB31_20+1
	.long	.LBB31_20+1
	.long	.LBB31_13+1
	.long	.LBB31_20+1
	.long	.LBB31_20+1
	.long	.LBB31_20+1
	.long	.LBB31_20+1
	.long	.LBB31_20+1
	.long	.LBB31_20+1
	.long	.LBB31_20+1
	.long	.LBB31_14+1
	.long	.LBB31_20+1
	.long	.LBB31_20+1
	.long	.LBB31_20+1
	.long	.LBB31_20+1
	.long	.LBB31_20+1
	.long	.LBB31_20+1
	.long	.LBB31_20+1
	.long	.LBB31_15+1
	.long	.LBB31_20+1
	.long	.LBB31_20+1
	.long	.LBB31_20+1
	.long	.LBB31_20+1
	.long	.LBB31_20+1
	.long	.LBB31_20+1
	.long	.LBB31_20+1
	.long	.LBB31_14+1
	.long	.LBB31_20+1
	.long	.LBB31_20+1
	.long	.LBB31_20+1
	.long	.LBB31_20+1
	.long	.LBB31_20+1
	.long	.LBB31_20+1
	.long	.LBB31_20+1
	.long	.LBB31_19+1
.LBB31_12:                              @   in Loop: Header=BB31_1 Depth=1
.Ltmp190:
	.loc	2 971 13 is_stmt 1              @ ../../Library/StdDriver/src/i2c.c:971:13
	ldr	r0, [sp, #36]
	lsls	r0, r0, #25
	lsrs	r0, r0, #24
	ldr	r1, [sp, #40]
	str	r0, [r1, #8]
	add	r1, sp, #16
	movs	r0, #8
	.loc	2 972 20                        @ ../../Library/StdDriver/src/i2c.c:972:20
	strb	r0, [r1]
	.loc	2 973 13                        @ ../../Library/StdDriver/src/i2c.c:973:13
	b	.LBB31_21
.LBB31_13:                              @   in Loop: Header=BB31_1 Depth=1
	.loc	2 0 13 is_stmt 0                @ ../../Library/StdDriver/src/i2c.c:0:13
	add	r0, sp, #32
	.loc	2 976 13 is_stmt 1              @ ../../Library/StdDriver/src/i2c.c:976:13
	ldrb	r0, [r0]
	ldr	r1, [sp, #40]
	str	r0, [r1, #8]
	.loc	2 977 13                        @ ../../Library/StdDriver/src/i2c.c:977:13
	b	.LBB31_21
.LBB31_14:                              @   in Loop: Header=BB31_1 Depth=1
	.loc	2 0 13 is_stmt 0                @ ../../Library/StdDriver/src/i2c.c:0:13
	add	r1, sp, #16
	movs	r0, #24
	.loc	2 981 20 is_stmt 1              @ ../../Library/StdDriver/src/i2c.c:981:20
	strb	r0, [r1]
	add	r1, sp, #20
	movs	r0, #1
	.loc	2 982 19                        @ ../../Library/StdDriver/src/i2c.c:982:19
	strb	r0, [r1]
	.loc	2 983 13                        @ ../../Library/StdDriver/src/i2c.c:983:13
	b	.LBB31_21
.LBB31_15:                              @   in Loop: Header=BB31_1 Depth=1
.Ltmp191:
	.loc	2 986 17                        @ ../../Library/StdDriver/src/i2c.c:986:17
	ldr	r0, [sp, #12]
	.loc	2 986 28 is_stmt 0              @ ../../Library/StdDriver/src/i2c.c:986:28
	ldr	r1, [sp, #52]
.Ltmp192:
	.loc	2 986 17                        @ ../../Library/StdDriver/src/i2c.c:986:17
	cmp	r0, r1
	bhs	.LBB31_17
	b	.LBB31_16
.LBB31_16:                              @   in Loop: Header=BB31_1 Depth=1
.Ltmp193:
	.loc	2 987 17 is_stmt 1              @ ../../Library/StdDriver/src/i2c.c:987:17
	ldr	r0, [sp, #28]
	ldr	r1, [sp, #12]
	adds	r2, r1, #1
	str	r2, [sp, #12]
	ldrb	r0, [r0, r1]
	ldr	r1, [sp, #40]
	str	r0, [r1, #8]
	b	.LBB31_18
.LBB31_17:                              @   in Loop: Header=BB31_1 Depth=1
	.loc	2 0 17 is_stmt 0                @ ../../Library/StdDriver/src/i2c.c:0:17
	add	r1, sp, #16
	movs	r0, #24
.Ltmp194:
	.loc	2 990 24 is_stmt 1              @ ../../Library/StdDriver/src/i2c.c:990:24
	strb	r0, [r1]
	add	r1, sp, #24
	movs	r0, #0
	.loc	2 991 27                        @ ../../Library/StdDriver/src/i2c.c:991:27
	strb	r0, [r1]
	b	.LBB31_18
.Ltmp195:
.LBB31_18:                              @   in Loop: Header=BB31_1 Depth=1
	.loc	2 994 13                        @ ../../Library/StdDriver/src/i2c.c:994:13
	b	.LBB31_21
.LBB31_19:                              @   in Loop: Header=BB31_1 Depth=1
	b	.LBB31_20
.LBB31_20:                              @   in Loop: Header=BB31_1 Depth=1
	.loc	2 998 13                        @ ../../Library/StdDriver/src/i2c.c:998:13
	ldr	r0, [sp, #40]
	ldr	r0, [r0]
	movs	r1, #24
	orrs	r0, r1
	movs	r1, #36
	bics	r0, r1
	ldr	r1, [sp, #40]
	str	r0, [r1]
	add	r1, sp, #16
	movs	r0, #8
	.loc	2 999 20                        @ ../../Library/StdDriver/src/i2c.c:999:20
	strb	r0, [r1]
	add	r1, sp, #20
	movs	r0, #1
	.loc	2 1000 19                       @ ../../Library/StdDriver/src/i2c.c:1000:19
	strb	r0, [r1]
	.loc	2 1001 13                       @ ../../Library/StdDriver/src/i2c.c:1001:13
	b	.LBB31_21
.Ltmp196:
.LBB31_21:                              @   in Loop: Header=BB31_1 Depth=1
	.loc	2 1004 9                        @ ../../Library/StdDriver/src/i2c.c:1004:9
	ldr	r0, [sp, #40]
	ldr	r0, [r0]
	movs	r1, #60
	bics	r0, r1
	add	r1, sp, #16
	ldrb	r1, [r1]
	orrs	r0, r1
	ldr	r1, [sp, #40]
	str	r0, [r1]
.Ltmp197:
	.loc	2 955 5                         @ ../../Library/StdDriver/src/i2c.c:955:5
	b	.LBB31_1
.LBB31_22:
	.loc	2 1007 23                       @ ../../Library/StdDriver/src/i2c.c:1007:23
	ldr	r0, __arm_cp.31_1
	ldr	r0, [r0]
	.loc	2 1007 21 is_stmt 0             @ ../../Library/StdDriver/src/i2c.c:1007:21
	str	r0, [sp, #8]
	.loc	2 1008 5 is_stmt 1              @ ../../Library/StdDriver/src/i2c.c:1008:5
	b	.LBB31_23
.LBB31_23:                              @ =>This Inner Loop Header: Depth=1
	.loc	2 1008 13 is_stmt 0             @ ../../Library/StdDriver/src/i2c.c:1008:13
	ldr	r0, [sp, #40]
	.loc	2 1008 19                       @ ../../Library/StdDriver/src/i2c.c:1008:19
	ldr	r0, [r0]
	.loc	2 1008 5                        @ ../../Library/StdDriver/src/i2c.c:1008:5
	lsls	r0, r0, #27
	cmp	r0, #0
	bpl	.LBB31_27
	b	.LBB31_24
.LBB31_24:                              @   in Loop: Header=BB31_23 Depth=1
.Ltmp198:
	.loc	2 1010 24 is_stmt 1             @ ../../Library/StdDriver/src/i2c.c:1010:24
	ldr	r0, [sp, #8]
	subs	r0, r0, #1
	str	r0, [sp, #8]
.Ltmp199:
	.loc	2 1011 12                       @ ../../Library/StdDriver/src/i2c.c:1011:12
	ldr	r0, [sp, #8]
.Ltmp200:
	.loc	2 1011 12 is_stmt 0             @ ../../Library/StdDriver/src/i2c.c:1011:12
	cmp	r0, #0
	bne	.LBB31_26
	b	.LBB31_25
.LBB31_25:
.Ltmp201:
	.loc	2 1013 30 is_stmt 1             @ ../../Library/StdDriver/src/i2c.c:1013:30
	ldr	r1, __arm_cp.31_0
	movs	r0, #0
	mvns	r0, r0
	str	r0, [r1]
	.loc	2 1014 13                       @ ../../Library/StdDriver/src/i2c.c:1014:13
	b	.LBB31_27
.Ltmp202:
.LBB31_26:                              @   in Loop: Header=BB31_23 Depth=1
	.loc	2 1008 5                        @ ../../Library/StdDriver/src/i2c.c:1008:5
	b	.LBB31_23
.LBB31_27:
	.loc	2 1018 12                       @ ../../Library/StdDriver/src/i2c.c:1018:12
	ldr	r0, [sp, #12]
	.loc	2 1018 5 is_stmt 0              @ ../../Library/StdDriver/src/i2c.c:1018:5
	add	sp, #44
	pop	{r4, pc}
.Ltmp203:
	.p2align	2
@ %bb.28:
	.loc	2 0 5                           @ ../../Library/StdDriver/src/i2c.c:0:5
__arm_cp.31_0:
	.long	g_I2C_i32ErrCode
.Lcpi_end12:
	.size	__arm_cp.31_0, .Lcpi_end12-__arm_cp.31_0
__arm_cp.31_1:
	.long	SystemCoreClock
.Lcpi_end13:
	.size	__arm_cp.31_1, .Lcpi_end13-__arm_cp.31_1
.Lfunc_end31:
	.size	I2C_WriteMultiBytesOneReg, .Lfunc_end31-I2C_WriteMultiBytesOneReg
	.cfi_endproc
	.cantunwind
	.fnend
                                        @ -- End function
	.section	.text.I2C_WriteByteTwoRegs,"ax",%progbits
	.hidden	I2C_WriteByteTwoRegs            @ -- Begin function I2C_WriteByteTwoRegs
	.globl	I2C_WriteByteTwoRegs
	.p2align	2
	.type	I2C_WriteByteTwoRegs,%function
	.code	16                              @ @I2C_WriteByteTwoRegs
	.thumb_func
I2C_WriteByteTwoRegs:
.Lfunc_begin32:
	.loc	2 1037 0 is_stmt 1              @ ../../Library/StdDriver/src/i2c.c:1037:0
	.fnstart
	.cfi_startproc
@ %bb.0:
	.save	{r4, lr}
	push	{r4, lr}
	.cfi_def_cfa_offset 8
	.cfi_offset lr, -4
	.cfi_offset r4, -8
	.pad	#48
	sub	sp, #48
	.cfi_def_cfa_offset 56
                                        @ kill: def $r4 killed $r3
                                        @ kill: def $r4 killed $r2
                                        @ kill: def $r4 killed $r1
	str	r0, [sp, #44]
	add	r0, sp, #40
	strb	r1, [r0]
	add	r0, sp, #36
	strh	r2, [r0]
	add	r0, sp, #32
	strb	r3, [r0]
	add	r0, sp, #28
	movs	r1, #1
.Ltmp204:
	.loc	2 1038 13 prologue_end          @ ../../Library/StdDriver/src/i2c.c:1038:13
	strb	r1, [r0]
	add	r2, sp, #24
	movs	r0, #0
	.loc	2 1038 29 is_stmt 0             @ ../../Library/StdDriver/src/i2c.c:1038:29
	strb	r0, [r2]
	add	r2, sp, #20
	.loc	2 1038 41                       @ ../../Library/StdDriver/src/i2c.c:1038:41
	strb	r1, [r2]
	add	r1, sp, #16
	.loc	2 1038 54                       @ ../../Library/StdDriver/src/i2c.c:1038:54
	strb	r0, [r1]
	.loc	2 1039 14 is_stmt 1             @ ../../Library/StdDriver/src/i2c.c:1039:14
	str	r0, [sp, #12]
	.loc	2 1042 22                       @ ../../Library/StdDriver/src/i2c.c:1042:22
	ldr	r1, __arm_cp.32_0
	str	r0, [r1]
	.loc	2 1044 5                        @ ../../Library/StdDriver/src/i2c.c:1044:5
	ldr	r0, [sp, #44]
	ldr	r0, [r0]
	movs	r1, #40
	orrs	r0, r1
	ldr	r1, [sp, #44]
	str	r0, [r1]
	.loc	2 1046 5                        @ ../../Library/StdDriver/src/i2c.c:1046:5
	b	.LBB32_1
.LBB32_1:                               @ =>This Loop Header: Depth=1
                                        @     Child Loop BB32_5 Depth 2
	.loc	2 0 5 is_stmt 0                 @ ../../Library/StdDriver/src/i2c.c:0:5
	add	r0, sp, #28
	.loc	2 1046 12                       @ ../../Library/StdDriver/src/i2c.c:1046:12
	ldrb	r1, [r0]
	movs	r0, #0
	.loc	2 1046 22                       @ ../../Library/StdDriver/src/i2c.c:1046:22
	cmp	r1, #0
	str	r0, [sp, #4]                    @ 4-byte Spill
	beq	.LBB32_3
	b	.LBB32_2
.LBB32_2:                               @   in Loop: Header=BB32_1 Depth=1
	.loc	2 0 22                          @ ../../Library/StdDriver/src/i2c.c:0:22
	add	r0, sp, #24
	.loc	2 1046 26                       @ ../../Library/StdDriver/src/i2c.c:1046:26
	ldrb	r0, [r0]
	.loc	2 1046 32                       @ ../../Library/StdDriver/src/i2c.c:1046:32
	rsbs	r1, r0, #0
	adcs	r0, r1
	str	r0, [sp, #4]                    @ 4-byte Spill
	b	.LBB32_3
.LBB32_3:                               @   in Loop: Header=BB32_1 Depth=1
	.loc	2 0 0                           @ ../../Library/StdDriver/src/i2c.c:0:0
	ldr	r0, [sp, #4]                    @ 4-byte Reload
	.loc	2 1046 5                        @ ../../Library/StdDriver/src/i2c.c:1046:5
	lsls	r0, r0, #31
	cmp	r0, #0
	bne	.LBB32_4
	b	.LBB32_26
.LBB32_4:                               @   in Loop: Header=BB32_1 Depth=1
.Ltmp205:
	.loc	2 1048 27 is_stmt 1             @ ../../Library/StdDriver/src/i2c.c:1048:27
	ldr	r0, __arm_cp.32_1
	ldr	r0, [r0]
	.loc	2 1048 25 is_stmt 0             @ ../../Library/StdDriver/src/i2c.c:1048:25
	str	r0, [sp, #8]
	.loc	2 1049 9 is_stmt 1              @ ../../Library/StdDriver/src/i2c.c:1049:9
	b	.LBB32_5
.LBB32_5:                               @   Parent Loop BB32_1 Depth=1
                                        @ =>  This Inner Loop Header: Depth=2
	ldr	r0, [sp, #44]
	ldr	r0, [r0]
	lsls	r0, r0, #28
	cmp	r0, #0
	bmi	.LBB32_9
	b	.LBB32_6
.LBB32_6:                               @   in Loop: Header=BB32_5 Depth=2
.Ltmp206:
	.loc	2 1051 28                       @ ../../Library/StdDriver/src/i2c.c:1051:28
	ldr	r0, [sp, #8]
	subs	r0, r0, #1
	str	r0, [sp, #8]
.Ltmp207:
	.loc	2 1052 16                       @ ../../Library/StdDriver/src/i2c.c:1052:16
	ldr	r0, [sp, #8]
.Ltmp208:
	.loc	2 1052 16 is_stmt 0             @ ../../Library/StdDriver/src/i2c.c:1052:16
	cmp	r0, #0
	bne	.LBB32_8
	b	.LBB32_7
.LBB32_7:                               @   in Loop: Header=BB32_1 Depth=1
.Ltmp209:
	.loc	2 1054 34 is_stmt 1             @ ../../Library/StdDriver/src/i2c.c:1054:34
	ldr	r1, __arm_cp.32_0
	movs	r0, #0
	mvns	r0, r0
	str	r0, [r1]
	.loc	2 1055 17                       @ ../../Library/StdDriver/src/i2c.c:1055:17
	b	.LBB32_9
.Ltmp210:
.LBB32_8:                               @   in Loop: Header=BB32_5 Depth=2
	.loc	2 1049 9                        @ ../../Library/StdDriver/src/i2c.c:1049:9
	b	.LBB32_5
.LBB32_9:                               @   in Loop: Header=BB32_1 Depth=1
	.loc	2 1059 17                       @ ../../Library/StdDriver/src/i2c.c:1059:17
	ldr	r0, [sp, #44]
	ldr	r0, [r0, #12]
	.loc	2 1059 9 is_stmt 0              @ ../../Library/StdDriver/src/i2c.c:1059:9
	subs	r0, #8
	str	r0, [sp]                        @ 4-byte Spill
	cmp	r0, #48
	bls	.LBB32_10
	b	.LBB32_24
.LBB32_10:                              @   in Loop: Header=BB32_1 Depth=1
	.loc	2 0 9                           @ ../../Library/StdDriver/src/i2c.c:0:9
	ldr	r0, [sp]                        @ 4-byte Reload
	lsls	r1, r0, #2
	adr	r0, .LJTI32_0
	ldr	r0, [r0, r1]
	mov	pc, r0
@ %bb.11:
	.p2align	2
.LJTI32_0:
	.long	.LBB32_12+1
	.long	.LBB32_24+1
	.long	.LBB32_24+1
	.long	.LBB32_24+1
	.long	.LBB32_24+1
	.long	.LBB32_24+1
	.long	.LBB32_24+1
	.long	.LBB32_24+1
	.long	.LBB32_24+1
	.long	.LBB32_24+1
	.long	.LBB32_24+1
	.long	.LBB32_24+1
	.long	.LBB32_24+1
	.long	.LBB32_24+1
	.long	.LBB32_24+1
	.long	.LBB32_24+1
	.long	.LBB32_13+1
	.long	.LBB32_24+1
	.long	.LBB32_24+1
	.long	.LBB32_24+1
	.long	.LBB32_24+1
	.long	.LBB32_24+1
	.long	.LBB32_24+1
	.long	.LBB32_24+1
	.long	.LBB32_14+1
	.long	.LBB32_24+1
	.long	.LBB32_24+1
	.long	.LBB32_24+1
	.long	.LBB32_24+1
	.long	.LBB32_24+1
	.long	.LBB32_24+1
	.long	.LBB32_24+1
	.long	.LBB32_15+1
	.long	.LBB32_24+1
	.long	.LBB32_24+1
	.long	.LBB32_24+1
	.long	.LBB32_24+1
	.long	.LBB32_24+1
	.long	.LBB32_24+1
	.long	.LBB32_24+1
	.long	.LBB32_14+1
	.long	.LBB32_24+1
	.long	.LBB32_24+1
	.long	.LBB32_24+1
	.long	.LBB32_24+1
	.long	.LBB32_24+1
	.long	.LBB32_24+1
	.long	.LBB32_24+1
	.long	.LBB32_23+1
.LBB32_12:                              @   in Loop: Header=BB32_1 Depth=1
.Ltmp211:
	.loc	2 1062 13 is_stmt 1             @ ../../Library/StdDriver/src/i2c.c:1062:13
	ldr	r0, [sp, #40]
	lsls	r0, r0, #25
	lsrs	r0, r0, #24
	ldr	r1, [sp, #44]
	str	r0, [r1, #8]
	add	r1, sp, #16
	movs	r0, #8
	.loc	2 1063 20                       @ ../../Library/StdDriver/src/i2c.c:1063:20
	strb	r0, [r1]
	.loc	2 1064 13                       @ ../../Library/StdDriver/src/i2c.c:1064:13
	b	.LBB32_25
.LBB32_13:                              @   in Loop: Header=BB32_1 Depth=1
	.loc	2 0 13 is_stmt 0                @ ../../Library/StdDriver/src/i2c.c:0:13
	add	r0, sp, #36
	.loc	2 1067 13 is_stmt 1             @ ../../Library/StdDriver/src/i2c.c:1067:13
	ldrb	r0, [r0, #1]
	ldr	r1, [sp, #44]
	str	r0, [r1, #8]
	.loc	2 1068 13                       @ ../../Library/StdDriver/src/i2c.c:1068:13
	b	.LBB32_25
.LBB32_14:                              @   in Loop: Header=BB32_1 Depth=1
	.loc	2 0 13 is_stmt 0                @ ../../Library/StdDriver/src/i2c.c:0:13
	add	r1, sp, #16
	movs	r0, #24
	.loc	2 1072 20 is_stmt 1             @ ../../Library/StdDriver/src/i2c.c:1072:20
	strb	r0, [r1]
	add	r1, sp, #24
	movs	r0, #1
	.loc	2 1073 19                       @ ../../Library/StdDriver/src/i2c.c:1073:19
	strb	r0, [r1]
	.loc	2 1074 13                       @ ../../Library/StdDriver/src/i2c.c:1074:13
	b	.LBB32_25
.LBB32_15:                              @   in Loop: Header=BB32_1 Depth=1
	.loc	2 0 13 is_stmt 0                @ ../../Library/StdDriver/src/i2c.c:0:13
	add	r0, sp, #20
.Ltmp212:
	.loc	2 1077 17 is_stmt 1             @ ../../Library/StdDriver/src/i2c.c:1077:17
	ldrb	r0, [r0]
.Ltmp213:
	.loc	2 1077 17 is_stmt 0             @ ../../Library/StdDriver/src/i2c.c:1077:17
	cmp	r0, #0
	beq	.LBB32_17
	b	.LBB32_16
.LBB32_16:                              @   in Loop: Header=BB32_1 Depth=1
	.loc	2 0 17                          @ ../../Library/StdDriver/src/i2c.c:0:17
	add	r0, sp, #36
.Ltmp214:
	.loc	2 1079 17 is_stmt 1             @ ../../Library/StdDriver/src/i2c.c:1079:17
	ldrb	r0, [r0]
	ldr	r1, [sp, #44]
	str	r0, [r1, #8]
	add	r1, sp, #20
	movs	r0, #0
	.loc	2 1080 24                       @ ../../Library/StdDriver/src/i2c.c:1080:24
	strb	r0, [r1]
	.loc	2 1081 13                       @ ../../Library/StdDriver/src/i2c.c:1081:13
	b	.LBB32_22
.Ltmp215:
.LBB32_17:                              @   in Loop: Header=BB32_1 Depth=1
	.loc	2 1082 23                       @ ../../Library/StdDriver/src/i2c.c:1082:23
	ldr	r0, [sp, #12]
	.loc	2 1082 38 is_stmt 0             @ ../../Library/StdDriver/src/i2c.c:1082:38
	cmp	r0, #0
	bne	.LBB32_20
	b	.LBB32_18
.LBB32_18:                              @   in Loop: Header=BB32_1 Depth=1
	.loc	2 0 38                          @ ../../Library/StdDriver/src/i2c.c:0:38
	add	r0, sp, #20
	.loc	2 1082 42                       @ ../../Library/StdDriver/src/i2c.c:1082:42
	ldrb	r0, [r0]
.Ltmp216:
	.loc	2 1082 22                       @ ../../Library/StdDriver/src/i2c.c:1082:22
	cmp	r0, #0
	bne	.LBB32_20
	b	.LBB32_19
.LBB32_19:                              @   in Loop: Header=BB32_1 Depth=1
	.loc	2 0 22                          @ ../../Library/StdDriver/src/i2c.c:0:22
	add	r0, sp, #32
.Ltmp217:
	.loc	2 1084 17 is_stmt 1             @ ../../Library/StdDriver/src/i2c.c:1084:17
	ldrb	r0, [r0]
	ldr	r1, [sp, #44]
	str	r0, [r1, #8]
	.loc	2 1085 25                       @ ../../Library/StdDriver/src/i2c.c:1085:25
	ldr	r0, [sp, #12]
	adds	r0, r0, #1
	str	r0, [sp, #12]
	.loc	2 1086 13                       @ ../../Library/StdDriver/src/i2c.c:1086:13
	b	.LBB32_21
.Ltmp218:
.LBB32_20:                              @   in Loop: Header=BB32_1 Depth=1
	.loc	2 0 13 is_stmt 0                @ ../../Library/StdDriver/src/i2c.c:0:13
	add	r1, sp, #16
	movs	r0, #24
.Ltmp219:
	.loc	2 1089 24 is_stmt 1             @ ../../Library/StdDriver/src/i2c.c:1089:24
	strb	r0, [r1]
	add	r1, sp, #28
	movs	r0, #0
	.loc	2 1090 27                       @ ../../Library/StdDriver/src/i2c.c:1090:27
	strb	r0, [r1]
	b	.LBB32_21
.Ltmp220:
.LBB32_21:                              @   in Loop: Header=BB32_1 Depth=1
	.loc	2 0 27 is_stmt 0                @ ../../Library/StdDriver/src/i2c.c:0:27
	b	.LBB32_22
.LBB32_22:                              @   in Loop: Header=BB32_1 Depth=1
	.loc	2 1093 13 is_stmt 1             @ ../../Library/StdDriver/src/i2c.c:1093:13
	b	.LBB32_25
.LBB32_23:                              @   in Loop: Header=BB32_1 Depth=1
	b	.LBB32_24
.LBB32_24:                              @   in Loop: Header=BB32_1 Depth=1
	.loc	2 1097 13                       @ ../../Library/StdDriver/src/i2c.c:1097:13
	ldr	r0, [sp, #44]
	ldr	r0, [r0]
	movs	r1, #24
	orrs	r0, r1
	movs	r1, #36
	bics	r0, r1
	ldr	r1, [sp, #44]
	str	r0, [r1]
	add	r1, sp, #16
	movs	r0, #8
	.loc	2 1098 20                       @ ../../Library/StdDriver/src/i2c.c:1098:20
	strb	r0, [r1]
	add	r1, sp, #24
	movs	r0, #1
	.loc	2 1099 19                       @ ../../Library/StdDriver/src/i2c.c:1099:19
	strb	r0, [r1]
	.loc	2 1100 13                       @ ../../Library/StdDriver/src/i2c.c:1100:13
	b	.LBB32_25
.Ltmp221:
.LBB32_25:                              @   in Loop: Header=BB32_1 Depth=1
	.loc	2 1103 9                        @ ../../Library/StdDriver/src/i2c.c:1103:9
	ldr	r0, [sp, #44]
	ldr	r0, [r0]
	movs	r1, #60
	bics	r0, r1
	add	r1, sp, #16
	ldrb	r1, [r1]
	orrs	r0, r1
	ldr	r1, [sp, #44]
	str	r0, [r1]
.Ltmp222:
	.loc	2 1046 5                        @ ../../Library/StdDriver/src/i2c.c:1046:5
	b	.LBB32_1
.LBB32_26:
	.loc	2 1106 23                       @ ../../Library/StdDriver/src/i2c.c:1106:23
	ldr	r0, __arm_cp.32_1
	ldr	r0, [r0]
	.loc	2 1106 21 is_stmt 0             @ ../../Library/StdDriver/src/i2c.c:1106:21
	str	r0, [sp, #8]
	.loc	2 1107 5 is_stmt 1              @ ../../Library/StdDriver/src/i2c.c:1107:5
	b	.LBB32_27
.LBB32_27:                              @ =>This Inner Loop Header: Depth=1
	.loc	2 1107 13 is_stmt 0             @ ../../Library/StdDriver/src/i2c.c:1107:13
	ldr	r0, [sp, #44]
	.loc	2 1107 19                       @ ../../Library/StdDriver/src/i2c.c:1107:19
	ldr	r0, [r0]
	.loc	2 1107 5                        @ ../../Library/StdDriver/src/i2c.c:1107:5
	lsls	r0, r0, #27
	cmp	r0, #0
	bpl	.LBB32_31
	b	.LBB32_28
.LBB32_28:                              @   in Loop: Header=BB32_27 Depth=1
.Ltmp223:
	.loc	2 1109 24 is_stmt 1             @ ../../Library/StdDriver/src/i2c.c:1109:24
	ldr	r0, [sp, #8]
	subs	r0, r0, #1
	str	r0, [sp, #8]
.Ltmp224:
	.loc	2 1110 12                       @ ../../Library/StdDriver/src/i2c.c:1110:12
	ldr	r0, [sp, #8]
.Ltmp225:
	.loc	2 1110 12 is_stmt 0             @ ../../Library/StdDriver/src/i2c.c:1110:12
	cmp	r0, #0
	bne	.LBB32_30
	b	.LBB32_29
.LBB32_29:
.Ltmp226:
	.loc	2 1112 30 is_stmt 1             @ ../../Library/StdDriver/src/i2c.c:1112:30
	ldr	r1, __arm_cp.32_0
	movs	r0, #0
	mvns	r0, r0
	str	r0, [r1]
	.loc	2 1113 13                       @ ../../Library/StdDriver/src/i2c.c:1113:13
	b	.LBB32_31
.Ltmp227:
.LBB32_30:                              @   in Loop: Header=BB32_27 Depth=1
	.loc	2 1107 5                        @ ../../Library/StdDriver/src/i2c.c:1107:5
	b	.LBB32_27
.LBB32_31:
	.loc	2 0 5 is_stmt 0                 @ ../../Library/StdDriver/src/i2c.c:0:5
	add	r0, sp, #24
	.loc	2 1117 13 is_stmt 1             @ ../../Library/StdDriver/src/i2c.c:1117:13
	ldrb	r0, [r0]
	add	r1, sp, #28
	.loc	2 1117 21 is_stmt 0             @ ../../Library/StdDriver/src/i2c.c:1117:21
	ldrb	r1, [r1]
	.loc	2 1117 19                       @ ../../Library/StdDriver/src/i2c.c:1117:19
	orrs	r0, r1
	.loc	2 1117 5                        @ ../../Library/StdDriver/src/i2c.c:1117:5
	add	sp, #48
	pop	{r4, pc}
.Ltmp228:
	.p2align	2
@ %bb.32:
	.loc	2 0 5                           @ ../../Library/StdDriver/src/i2c.c:0:5
__arm_cp.32_0:
	.long	g_I2C_i32ErrCode
.Lcpi_end14:
	.size	__arm_cp.32_0, .Lcpi_end14-__arm_cp.32_0
__arm_cp.32_1:
	.long	SystemCoreClock
.Lcpi_end15:
	.size	__arm_cp.32_1, .Lcpi_end15-__arm_cp.32_1
.Lfunc_end32:
	.size	I2C_WriteByteTwoRegs, .Lfunc_end32-I2C_WriteByteTwoRegs
	.cfi_endproc
	.cantunwind
	.fnend
                                        @ -- End function
	.section	.text.I2C_WriteMultiBytesTwoRegs,"ax",%progbits
	.hidden	I2C_WriteMultiBytesTwoRegs      @ -- Begin function I2C_WriteMultiBytesTwoRegs
	.globl	I2C_WriteMultiBytesTwoRegs
	.p2align	2
	.type	I2C_WriteMultiBytesTwoRegs,%function
	.code	16                              @ @I2C_WriteMultiBytesTwoRegs
	.thumb_func
I2C_WriteMultiBytesTwoRegs:
.Lfunc_begin33:
	.loc	2 1137 0 is_stmt 1              @ ../../Library/StdDriver/src/i2c.c:1137:0
	.fnstart
	.cfi_startproc
@ %bb.0:
	.save	{r4, lr}
	push	{r4, lr}
	.cfi_def_cfa_offset 8
	.cfi_offset lr, -4
	.cfi_offset r4, -8
	.pad	#48
	sub	sp, #48
	.cfi_def_cfa_offset 56
	ldr	r4, [sp, #56]
                                        @ kill: def $r4 killed $r2
                                        @ kill: def $r4 killed $r1
	str	r0, [sp, #44]
	add	r0, sp, #40
	strb	r1, [r0]
	add	r0, sp, #36
	strh	r2, [r0]
	str	r3, [sp, #32]
	add	r0, sp, #28
	movs	r1, #1
.Ltmp229:
	.loc	2 1138 13 prologue_end          @ ../../Library/StdDriver/src/i2c.c:1138:13
	strb	r1, [r0]
	add	r2, sp, #24
	movs	r0, #0
	.loc	2 1138 29 is_stmt 0             @ ../../Library/StdDriver/src/i2c.c:1138:29
	strb	r0, [r2]
	add	r2, sp, #20
	.loc	2 1138 41                       @ ../../Library/StdDriver/src/i2c.c:1138:41
	strb	r1, [r2]
	add	r1, sp, #16
	.loc	2 1138 54                       @ ../../Library/StdDriver/src/i2c.c:1138:54
	strb	r0, [r1]
	.loc	2 1139 14 is_stmt 1             @ ../../Library/StdDriver/src/i2c.c:1139:14
	str	r0, [sp, #12]
	.loc	2 1142 22                       @ ../../Library/StdDriver/src/i2c.c:1142:22
	ldr	r1, __arm_cp.33_0
	str	r0, [r1]
	.loc	2 1144 5                        @ ../../Library/StdDriver/src/i2c.c:1144:5
	ldr	r0, [sp, #44]
	ldr	r0, [r0]
	movs	r1, #40
	orrs	r0, r1
	ldr	r1, [sp, #44]
	str	r0, [r1]
	.loc	2 1146 5                        @ ../../Library/StdDriver/src/i2c.c:1146:5
	b	.LBB33_1
.LBB33_1:                               @ =>This Loop Header: Depth=1
                                        @     Child Loop BB33_5 Depth 2
	.loc	2 0 5 is_stmt 0                 @ ../../Library/StdDriver/src/i2c.c:0:5
	add	r0, sp, #28
	.loc	2 1146 12                       @ ../../Library/StdDriver/src/i2c.c:1146:12
	ldrb	r1, [r0]
	movs	r0, #0
	.loc	2 1146 22                       @ ../../Library/StdDriver/src/i2c.c:1146:22
	cmp	r1, #0
	str	r0, [sp, #4]                    @ 4-byte Spill
	beq	.LBB33_3
	b	.LBB33_2
.LBB33_2:                               @   in Loop: Header=BB33_1 Depth=1
	.loc	2 0 22                          @ ../../Library/StdDriver/src/i2c.c:0:22
	add	r0, sp, #24
	.loc	2 1146 26                       @ ../../Library/StdDriver/src/i2c.c:1146:26
	ldrb	r0, [r0]
	.loc	2 1146 32                       @ ../../Library/StdDriver/src/i2c.c:1146:32
	rsbs	r1, r0, #0
	adcs	r0, r1
	str	r0, [sp, #4]                    @ 4-byte Spill
	b	.LBB33_3
.LBB33_3:                               @   in Loop: Header=BB33_1 Depth=1
	.loc	2 0 0                           @ ../../Library/StdDriver/src/i2c.c:0:0
	ldr	r0, [sp, #4]                    @ 4-byte Reload
	.loc	2 1146 5                        @ ../../Library/StdDriver/src/i2c.c:1146:5
	lsls	r0, r0, #31
	cmp	r0, #0
	bne	.LBB33_4
	b	.LBB33_26
.LBB33_4:                               @   in Loop: Header=BB33_1 Depth=1
.Ltmp230:
	.loc	2 1148 27 is_stmt 1             @ ../../Library/StdDriver/src/i2c.c:1148:27
	ldr	r0, __arm_cp.33_1
	ldr	r0, [r0]
	.loc	2 1148 25 is_stmt 0             @ ../../Library/StdDriver/src/i2c.c:1148:25
	str	r0, [sp, #8]
	.loc	2 1149 9 is_stmt 1              @ ../../Library/StdDriver/src/i2c.c:1149:9
	b	.LBB33_5
.LBB33_5:                               @   Parent Loop BB33_1 Depth=1
                                        @ =>  This Inner Loop Header: Depth=2
	ldr	r0, [sp, #44]
	ldr	r0, [r0]
	lsls	r0, r0, #28
	cmp	r0, #0
	bmi	.LBB33_9
	b	.LBB33_6
.LBB33_6:                               @   in Loop: Header=BB33_5 Depth=2
.Ltmp231:
	.loc	2 1151 28                       @ ../../Library/StdDriver/src/i2c.c:1151:28
	ldr	r0, [sp, #8]
	subs	r0, r0, #1
	str	r0, [sp, #8]
.Ltmp232:
	.loc	2 1152 16                       @ ../../Library/StdDriver/src/i2c.c:1152:16
	ldr	r0, [sp, #8]
.Ltmp233:
	.loc	2 1152 16 is_stmt 0             @ ../../Library/StdDriver/src/i2c.c:1152:16
	cmp	r0, #0
	bne	.LBB33_8
	b	.LBB33_7
.LBB33_7:                               @   in Loop: Header=BB33_1 Depth=1
.Ltmp234:
	.loc	2 1154 34 is_stmt 1             @ ../../Library/StdDriver/src/i2c.c:1154:34
	ldr	r1, __arm_cp.33_0
	movs	r0, #0
	mvns	r0, r0
	str	r0, [r1]
	.loc	2 1155 17                       @ ../../Library/StdDriver/src/i2c.c:1155:17
	b	.LBB33_9
.Ltmp235:
.LBB33_8:                               @   in Loop: Header=BB33_5 Depth=2
	.loc	2 1149 9                        @ ../../Library/StdDriver/src/i2c.c:1149:9
	b	.LBB33_5
.LBB33_9:                               @   in Loop: Header=BB33_1 Depth=1
	.loc	2 1159 17                       @ ../../Library/StdDriver/src/i2c.c:1159:17
	ldr	r0, [sp, #44]
	ldr	r0, [r0, #12]
	.loc	2 1159 9 is_stmt 0              @ ../../Library/StdDriver/src/i2c.c:1159:9
	subs	r0, #8
	str	r0, [sp]                        @ 4-byte Spill
	cmp	r0, #48
	bls	.LBB33_10
	b	.LBB33_24
.LBB33_10:                              @   in Loop: Header=BB33_1 Depth=1
	.loc	2 0 9                           @ ../../Library/StdDriver/src/i2c.c:0:9
	ldr	r0, [sp]                        @ 4-byte Reload
	lsls	r1, r0, #2
	adr	r0, .LJTI33_0
	ldr	r0, [r0, r1]
	mov	pc, r0
@ %bb.11:
	.p2align	2
.LJTI33_0:
	.long	.LBB33_12+1
	.long	.LBB33_24+1
	.long	.LBB33_24+1
	.long	.LBB33_24+1
	.long	.LBB33_24+1
	.long	.LBB33_24+1
	.long	.LBB33_24+1
	.long	.LBB33_24+1
	.long	.LBB33_24+1
	.long	.LBB33_24+1
	.long	.LBB33_24+1
	.long	.LBB33_24+1
	.long	.LBB33_24+1
	.long	.LBB33_24+1
	.long	.LBB33_24+1
	.long	.LBB33_24+1
	.long	.LBB33_13+1
	.long	.LBB33_24+1
	.long	.LBB33_24+1
	.long	.LBB33_24+1
	.long	.LBB33_24+1
	.long	.LBB33_24+1
	.long	.LBB33_24+1
	.long	.LBB33_24+1
	.long	.LBB33_14+1
	.long	.LBB33_24+1
	.long	.LBB33_24+1
	.long	.LBB33_24+1
	.long	.LBB33_24+1
	.long	.LBB33_24+1
	.long	.LBB33_24+1
	.long	.LBB33_24+1
	.long	.LBB33_15+1
	.long	.LBB33_24+1
	.long	.LBB33_24+1
	.long	.LBB33_24+1
	.long	.LBB33_24+1
	.long	.LBB33_24+1
	.long	.LBB33_24+1
	.long	.LBB33_24+1
	.long	.LBB33_14+1
	.long	.LBB33_24+1
	.long	.LBB33_24+1
	.long	.LBB33_24+1
	.long	.LBB33_24+1
	.long	.LBB33_24+1
	.long	.LBB33_24+1
	.long	.LBB33_24+1
	.long	.LBB33_23+1
.LBB33_12:                              @   in Loop: Header=BB33_1 Depth=1
.Ltmp236:
	.loc	2 1162 13 is_stmt 1             @ ../../Library/StdDriver/src/i2c.c:1162:13
	ldr	r0, [sp, #40]
	lsls	r0, r0, #25
	lsrs	r0, r0, #24
	ldr	r1, [sp, #44]
	str	r0, [r1, #8]
	add	r1, sp, #16
	movs	r0, #8
	.loc	2 1163 20                       @ ../../Library/StdDriver/src/i2c.c:1163:20
	strb	r0, [r1]
	.loc	2 1164 13                       @ ../../Library/StdDriver/src/i2c.c:1164:13
	b	.LBB33_25
.LBB33_13:                              @   in Loop: Header=BB33_1 Depth=1
	.loc	2 0 13 is_stmt 0                @ ../../Library/StdDriver/src/i2c.c:0:13
	add	r0, sp, #36
	.loc	2 1167 13 is_stmt 1             @ ../../Library/StdDriver/src/i2c.c:1167:13
	ldrb	r0, [r0, #1]
	ldr	r1, [sp, #44]
	str	r0, [r1, #8]
	.loc	2 1168 13                       @ ../../Library/StdDriver/src/i2c.c:1168:13
	b	.LBB33_25
.LBB33_14:                              @   in Loop: Header=BB33_1 Depth=1
	.loc	2 0 13 is_stmt 0                @ ../../Library/StdDriver/src/i2c.c:0:13
	add	r1, sp, #16
	movs	r0, #24
	.loc	2 1172 20 is_stmt 1             @ ../../Library/StdDriver/src/i2c.c:1172:20
	strb	r0, [r1]
	add	r1, sp, #24
	movs	r0, #1
	.loc	2 1173 19                       @ ../../Library/StdDriver/src/i2c.c:1173:19
	strb	r0, [r1]
	.loc	2 1174 13                       @ ../../Library/StdDriver/src/i2c.c:1174:13
	b	.LBB33_25
.LBB33_15:                              @   in Loop: Header=BB33_1 Depth=1
	.loc	2 0 13 is_stmt 0                @ ../../Library/StdDriver/src/i2c.c:0:13
	add	r0, sp, #20
.Ltmp237:
	.loc	2 1177 17 is_stmt 1             @ ../../Library/StdDriver/src/i2c.c:1177:17
	ldrb	r0, [r0]
.Ltmp238:
	.loc	2 1177 17 is_stmt 0             @ ../../Library/StdDriver/src/i2c.c:1177:17
	cmp	r0, #0
	beq	.LBB33_17
	b	.LBB33_16
.LBB33_16:                              @   in Loop: Header=BB33_1 Depth=1
	.loc	2 0 17                          @ ../../Library/StdDriver/src/i2c.c:0:17
	add	r0, sp, #36
.Ltmp239:
	.loc	2 1179 17 is_stmt 1             @ ../../Library/StdDriver/src/i2c.c:1179:17
	ldrb	r0, [r0]
	ldr	r1, [sp, #44]
	str	r0, [r1, #8]
	add	r1, sp, #20
	movs	r0, #0
	.loc	2 1180 24                       @ ../../Library/StdDriver/src/i2c.c:1180:24
	strb	r0, [r1]
	.loc	2 1181 13                       @ ../../Library/StdDriver/src/i2c.c:1181:13
	b	.LBB33_22
.Ltmp240:
.LBB33_17:                              @   in Loop: Header=BB33_1 Depth=1
	.loc	2 1182 23                       @ ../../Library/StdDriver/src/i2c.c:1182:23
	ldr	r0, [sp, #12]
	.loc	2 1182 34 is_stmt 0             @ ../../Library/StdDriver/src/i2c.c:1182:34
	ldr	r1, [sp, #56]
	.loc	2 1182 43                       @ ../../Library/StdDriver/src/i2c.c:1182:43
	cmp	r0, r1
	bhs	.LBB33_20
	b	.LBB33_18
.LBB33_18:                              @   in Loop: Header=BB33_1 Depth=1
	.loc	2 0 43                          @ ../../Library/StdDriver/src/i2c.c:0:43
	add	r0, sp, #20
	.loc	2 1182 47                       @ ../../Library/StdDriver/src/i2c.c:1182:47
	ldrb	r0, [r0]
.Ltmp241:
	.loc	2 1182 22                       @ ../../Library/StdDriver/src/i2c.c:1182:22
	cmp	r0, #0
	bne	.LBB33_20
	b	.LBB33_19
.LBB33_19:                              @   in Loop: Header=BB33_1 Depth=1
.Ltmp242:
	.loc	2 1183 17 is_stmt 1             @ ../../Library/StdDriver/src/i2c.c:1183:17
	ldr	r0, [sp, #32]
	ldr	r1, [sp, #12]
	adds	r2, r1, #1
	str	r2, [sp, #12]
	ldrb	r0, [r0, r1]
	ldr	r1, [sp, #44]
	str	r0, [r1, #8]
	b	.LBB33_21
.LBB33_20:                              @   in Loop: Header=BB33_1 Depth=1
	.loc	2 0 17 is_stmt 0                @ ../../Library/StdDriver/src/i2c.c:0:17
	add	r1, sp, #16
	movs	r0, #24
.Ltmp243:
	.loc	2 1186 24 is_stmt 1             @ ../../Library/StdDriver/src/i2c.c:1186:24
	strb	r0, [r1]
	add	r1, sp, #28
	movs	r0, #0
	.loc	2 1187 27                       @ ../../Library/StdDriver/src/i2c.c:1187:27
	strb	r0, [r1]
	b	.LBB33_21
.Ltmp244:
.LBB33_21:                              @   in Loop: Header=BB33_1 Depth=1
	.loc	2 0 27 is_stmt 0                @ ../../Library/StdDriver/src/i2c.c:0:27
	b	.LBB33_22
.LBB33_22:                              @   in Loop: Header=BB33_1 Depth=1
	.loc	2 1190 13 is_stmt 1             @ ../../Library/StdDriver/src/i2c.c:1190:13
	b	.LBB33_25
.LBB33_23:                              @   in Loop: Header=BB33_1 Depth=1
	b	.LBB33_24
.LBB33_24:                              @   in Loop: Header=BB33_1 Depth=1
	.loc	2 1194 13                       @ ../../Library/StdDriver/src/i2c.c:1194:13
	ldr	r0, [sp, #44]
	ldr	r0, [r0]
	movs	r1, #24
	orrs	r0, r1
	movs	r1, #36
	bics	r0, r1
	ldr	r1, [sp, #44]
	str	r0, [r1]
	add	r1, sp, #16
	movs	r0, #8
	.loc	2 1195 20                       @ ../../Library/StdDriver/src/i2c.c:1195:20
	strb	r0, [r1]
	add	r1, sp, #24
	movs	r0, #1
	.loc	2 1196 19                       @ ../../Library/StdDriver/src/i2c.c:1196:19
	strb	r0, [r1]
	.loc	2 1197 13                       @ ../../Library/StdDriver/src/i2c.c:1197:13
	b	.LBB33_25
.Ltmp245:
.LBB33_25:                              @   in Loop: Header=BB33_1 Depth=1
	.loc	2 1200 9                        @ ../../Library/StdDriver/src/i2c.c:1200:9
	ldr	r0, [sp, #44]
	ldr	r0, [r0]
	movs	r1, #60
	bics	r0, r1
	add	r1, sp, #16
	ldrb	r1, [r1]
	orrs	r0, r1
	ldr	r1, [sp, #44]
	str	r0, [r1]
.Ltmp246:
	.loc	2 1146 5                        @ ../../Library/StdDriver/src/i2c.c:1146:5
	b	.LBB33_1
.LBB33_26:
	.loc	2 1203 23                       @ ../../Library/StdDriver/src/i2c.c:1203:23
	ldr	r0, __arm_cp.33_1
	ldr	r0, [r0]
	.loc	2 1203 21 is_stmt 0             @ ../../Library/StdDriver/src/i2c.c:1203:21
	str	r0, [sp, #8]
	.loc	2 1204 5 is_stmt 1              @ ../../Library/StdDriver/src/i2c.c:1204:5
	b	.LBB33_27
.LBB33_27:                              @ =>This Inner Loop Header: Depth=1
	.loc	2 1204 13 is_stmt 0             @ ../../Library/StdDriver/src/i2c.c:1204:13
	ldr	r0, [sp, #44]
	.loc	2 1204 19                       @ ../../Library/StdDriver/src/i2c.c:1204:19
	ldr	r0, [r0]
	.loc	2 1204 5                        @ ../../Library/StdDriver/src/i2c.c:1204:5
	lsls	r0, r0, #27
	cmp	r0, #0
	bpl	.LBB33_31
	b	.LBB33_28
.LBB33_28:                              @   in Loop: Header=BB33_27 Depth=1
.Ltmp247:
	.loc	2 1206 24 is_stmt 1             @ ../../Library/StdDriver/src/i2c.c:1206:24
	ldr	r0, [sp, #8]
	subs	r0, r0, #1
	str	r0, [sp, #8]
.Ltmp248:
	.loc	2 1207 12                       @ ../../Library/StdDriver/src/i2c.c:1207:12
	ldr	r0, [sp, #8]
.Ltmp249:
	.loc	2 1207 12 is_stmt 0             @ ../../Library/StdDriver/src/i2c.c:1207:12
	cmp	r0, #0
	bne	.LBB33_30
	b	.LBB33_29
.LBB33_29:
.Ltmp250:
	.loc	2 1209 30 is_stmt 1             @ ../../Library/StdDriver/src/i2c.c:1209:30
	ldr	r1, __arm_cp.33_0
	movs	r0, #0
	mvns	r0, r0
	str	r0, [r1]
	.loc	2 1210 13                       @ ../../Library/StdDriver/src/i2c.c:1210:13
	b	.LBB33_31
.Ltmp251:
.LBB33_30:                              @   in Loop: Header=BB33_27 Depth=1
	.loc	2 1204 5                        @ ../../Library/StdDriver/src/i2c.c:1204:5
	b	.LBB33_27
.LBB33_31:
	.loc	2 1214 12                       @ ../../Library/StdDriver/src/i2c.c:1214:12
	ldr	r0, [sp, #12]
	.loc	2 1214 5 is_stmt 0              @ ../../Library/StdDriver/src/i2c.c:1214:5
	add	sp, #48
	pop	{r4, pc}
.Ltmp252:
	.p2align	2
@ %bb.32:
	.loc	2 0 5                           @ ../../Library/StdDriver/src/i2c.c:0:5
__arm_cp.33_0:
	.long	g_I2C_i32ErrCode
.Lcpi_end16:
	.size	__arm_cp.33_0, .Lcpi_end16-__arm_cp.33_0
__arm_cp.33_1:
	.long	SystemCoreClock
.Lcpi_end17:
	.size	__arm_cp.33_1, .Lcpi_end17-__arm_cp.33_1
.Lfunc_end33:
	.size	I2C_WriteMultiBytesTwoRegs, .Lfunc_end33-I2C_WriteMultiBytesTwoRegs
	.cfi_endproc
	.cantunwind
	.fnend
                                        @ -- End function
	.section	.text.I2C_ReadByte,"ax",%progbits
	.hidden	I2C_ReadByte                    @ -- Begin function I2C_ReadByte
	.globl	I2C_ReadByte
	.p2align	2
	.type	I2C_ReadByte,%function
	.code	16                              @ @I2C_ReadByte
	.thumb_func
I2C_ReadByte:
.Lfunc_begin34:
	.loc	2 1229 0 is_stmt 1              @ ../../Library/StdDriver/src/i2c.c:1229:0
	.fnstart
	.cfi_startproc
@ %bb.0:
	.pad	#36
	sub	sp, #36
	.cfi_def_cfa_offset 36
                                        @ kill: def $r2 killed $r1
	str	r0, [sp, #32]
	add	r0, sp, #28
	strb	r1, [r0]
	add	r1, sp, #24
	movs	r0, #1
.Ltmp253:
	.loc	2 1230 13 prologue_end          @ ../../Library/StdDriver/src/i2c.c:1230:13
	strb	r0, [r1]
	add	r1, sp, #20
	movs	r0, #0
	.loc	2 1230 29 is_stmt 0             @ ../../Library/StdDriver/src/i2c.c:1230:29
	strb	r0, [r1]
	add	r1, sp, #16
	.loc	2 1230 41                       @ ../../Library/StdDriver/src/i2c.c:1230:41
	strb	r0, [r1]
	add	r1, sp, #12
	.loc	2 1230 53                       @ ../../Library/StdDriver/src/i2c.c:1230:53
	strb	r0, [r1]
	.loc	2 1233 22 is_stmt 1             @ ../../Library/StdDriver/src/i2c.c:1233:22
	ldr	r1, __arm_cp.34_0
	str	r0, [r1]
	.loc	2 1235 5                        @ ../../Library/StdDriver/src/i2c.c:1235:5
	ldr	r0, [sp, #32]
	ldr	r0, [r0]
	movs	r1, #40
	orrs	r0, r1
	ldr	r1, [sp, #32]
	str	r0, [r1]
	.loc	2 1237 5                        @ ../../Library/StdDriver/src/i2c.c:1237:5
	b	.LBB34_1
.LBB34_1:                               @ =>This Loop Header: Depth=1
                                        @     Child Loop BB34_5 Depth 2
	.loc	2 0 5 is_stmt 0                 @ ../../Library/StdDriver/src/i2c.c:0:5
	add	r0, sp, #24
	.loc	2 1237 12                       @ ../../Library/StdDriver/src/i2c.c:1237:12
	ldrb	r1, [r0]
	movs	r0, #0
	.loc	2 1237 22                       @ ../../Library/StdDriver/src/i2c.c:1237:22
	cmp	r1, #0
	str	r0, [sp, #4]                    @ 4-byte Spill
	beq	.LBB34_3
	b	.LBB34_2
.LBB34_2:                               @   in Loop: Header=BB34_1 Depth=1
	.loc	2 0 22                          @ ../../Library/StdDriver/src/i2c.c:0:22
	add	r0, sp, #20
	.loc	2 1237 26                       @ ../../Library/StdDriver/src/i2c.c:1237:26
	ldrb	r0, [r0]
	.loc	2 1237 32                       @ ../../Library/StdDriver/src/i2c.c:1237:32
	rsbs	r1, r0, #0
	adcs	r0, r1
	str	r0, [sp, #4]                    @ 4-byte Spill
	b	.LBB34_3
.LBB34_3:                               @   in Loop: Header=BB34_1 Depth=1
	.loc	2 0 0                           @ ../../Library/StdDriver/src/i2c.c:0:0
	ldr	r0, [sp, #4]                    @ 4-byte Reload
	.loc	2 1237 5                        @ ../../Library/StdDriver/src/i2c.c:1237:5
	lsls	r0, r0, #31
	cmp	r0, #0
	beq	.LBB34_21
	b	.LBB34_4
.LBB34_4:                               @   in Loop: Header=BB34_1 Depth=1
.Ltmp254:
	.loc	2 1239 27 is_stmt 1             @ ../../Library/StdDriver/src/i2c.c:1239:27
	ldr	r0, __arm_cp.34_1
	ldr	r0, [r0]
	.loc	2 1239 25 is_stmt 0             @ ../../Library/StdDriver/src/i2c.c:1239:25
	str	r0, [sp, #8]
	.loc	2 1240 9 is_stmt 1              @ ../../Library/StdDriver/src/i2c.c:1240:9
	b	.LBB34_5
.LBB34_5:                               @   Parent Loop BB34_1 Depth=1
                                        @ =>  This Inner Loop Header: Depth=2
	ldr	r0, [sp, #32]
	ldr	r0, [r0]
	lsls	r0, r0, #28
	cmp	r0, #0
	bmi	.LBB34_9
	b	.LBB34_6
.LBB34_6:                               @   in Loop: Header=BB34_5 Depth=2
.Ltmp255:
	.loc	2 1242 28                       @ ../../Library/StdDriver/src/i2c.c:1242:28
	ldr	r0, [sp, #8]
	subs	r0, r0, #1
	str	r0, [sp, #8]
.Ltmp256:
	.loc	2 1243 16                       @ ../../Library/StdDriver/src/i2c.c:1243:16
	ldr	r0, [sp, #8]
.Ltmp257:
	.loc	2 1243 16 is_stmt 0             @ ../../Library/StdDriver/src/i2c.c:1243:16
	cmp	r0, #0
	bne	.LBB34_8
	b	.LBB34_7
.LBB34_7:                               @   in Loop: Header=BB34_1 Depth=1
.Ltmp258:
	.loc	2 1245 34 is_stmt 1             @ ../../Library/StdDriver/src/i2c.c:1245:34
	ldr	r1, __arm_cp.34_0
	movs	r0, #0
	mvns	r0, r0
	str	r0, [r1]
	.loc	2 1246 17                       @ ../../Library/StdDriver/src/i2c.c:1246:17
	b	.LBB34_9
.Ltmp259:
.LBB34_8:                               @   in Loop: Header=BB34_5 Depth=2
	.loc	2 1240 9                        @ ../../Library/StdDriver/src/i2c.c:1240:9
	b	.LBB34_5
.LBB34_9:                               @   in Loop: Header=BB34_1 Depth=1
	.loc	2 1250 17                       @ ../../Library/StdDriver/src/i2c.c:1250:17
	ldr	r0, [sp, #32]
	ldr	r0, [r0, #12]
	.loc	2 1250 9 is_stmt 0              @ ../../Library/StdDriver/src/i2c.c:1250:9
	str	r0, [sp]                        @ 4-byte Spill
	cmp	r0, #8
	beq	.LBB34_14
	b	.LBB34_10
.LBB34_10:                              @   in Loop: Header=BB34_1 Depth=1
	ldr	r0, [sp]                        @ 4-byte Reload
	cmp	r0, #56
	beq	.LBB34_18
	b	.LBB34_11
.LBB34_11:                              @   in Loop: Header=BB34_1 Depth=1
	ldr	r0, [sp]                        @ 4-byte Reload
	cmp	r0, #64
	beq	.LBB34_15
	b	.LBB34_12
.LBB34_12:                              @   in Loop: Header=BB34_1 Depth=1
	ldr	r0, [sp]                        @ 4-byte Reload
	cmp	r0, #72
	beq	.LBB34_16
	b	.LBB34_13
.LBB34_13:                              @   in Loop: Header=BB34_1 Depth=1
	ldr	r0, [sp]                        @ 4-byte Reload
	cmp	r0, #88
	beq	.LBB34_17
	b	.LBB34_19
.LBB34_14:                              @   in Loop: Header=BB34_1 Depth=1
.Ltmp260:
	.loc	2 1253 13 is_stmt 1             @ ../../Library/StdDriver/src/i2c.c:1253:13
	ldr	r0, [sp, #28]
	lsls	r0, r0, #1
	adds	r0, r0, #1
	uxtb	r0, r0
	ldr	r1, [sp, #32]
	str	r0, [r1, #8]
	add	r1, sp, #12
	movs	r0, #8
	.loc	2 1254 20                       @ ../../Library/StdDriver/src/i2c.c:1254:20
	strb	r0, [r1]
	.loc	2 1255 13                       @ ../../Library/StdDriver/src/i2c.c:1255:13
	b	.LBB34_20
.LBB34_15:                              @   in Loop: Header=BB34_1 Depth=1
	.loc	2 0 13 is_stmt 0                @ ../../Library/StdDriver/src/i2c.c:0:13
	add	r1, sp, #12
	movs	r0, #8
	.loc	2 1258 20 is_stmt 1             @ ../../Library/StdDriver/src/i2c.c:1258:20
	strb	r0, [r1]
	.loc	2 1259 13                       @ ../../Library/StdDriver/src/i2c.c:1259:13
	b	.LBB34_20
.LBB34_16:                              @   in Loop: Header=BB34_1 Depth=1
	.loc	2 0 13 is_stmt 0                @ ../../Library/StdDriver/src/i2c.c:0:13
	add	r1, sp, #12
	movs	r0, #24
	.loc	2 1262 20 is_stmt 1             @ ../../Library/StdDriver/src/i2c.c:1262:20
	strb	r0, [r1]
	add	r1, sp, #20
	movs	r0, #1
	.loc	2 1263 19                       @ ../../Library/StdDriver/src/i2c.c:1263:19
	strb	r0, [r1]
	.loc	2 1264 13                       @ ../../Library/StdDriver/src/i2c.c:1264:13
	b	.LBB34_20
.LBB34_17:                              @   in Loop: Header=BB34_1 Depth=1
	.loc	2 1267 31                       @ ../../Library/StdDriver/src/i2c.c:1267:31
	ldr	r0, [sp, #32]
	ldr	r0, [r0, #8]
	add	r1, sp, #16
	.loc	2 1267 19 is_stmt 0             @ ../../Library/StdDriver/src/i2c.c:1267:19
	strb	r0, [r1]
	add	r1, sp, #12
	movs	r0, #24
	.loc	2 1268 20 is_stmt 1             @ ../../Library/StdDriver/src/i2c.c:1268:20
	strb	r0, [r1]
	add	r1, sp, #24
	movs	r0, #0
	.loc	2 1269 23                       @ ../../Library/StdDriver/src/i2c.c:1269:23
	strb	r0, [r1]
	.loc	2 1270 13                       @ ../../Library/StdDriver/src/i2c.c:1270:13
	b	.LBB34_20
.LBB34_18:                              @   in Loop: Header=BB34_1 Depth=1
	b	.LBB34_19
.LBB34_19:                              @   in Loop: Header=BB34_1 Depth=1
	.loc	2 1274 13                       @ ../../Library/StdDriver/src/i2c.c:1274:13
	ldr	r0, [sp, #32]
	ldr	r0, [r0]
	movs	r1, #24
	orrs	r0, r1
	movs	r1, #36
	bics	r0, r1
	ldr	r1, [sp, #32]
	str	r0, [r1]
	add	r1, sp, #12
	movs	r0, #8
	.loc	2 1275 20                       @ ../../Library/StdDriver/src/i2c.c:1275:20
	strb	r0, [r1]
	add	r1, sp, #20
	movs	r0, #1
	.loc	2 1276 19                       @ ../../Library/StdDriver/src/i2c.c:1276:19
	strb	r0, [r1]
	.loc	2 1277 13                       @ ../../Library/StdDriver/src/i2c.c:1277:13
	b	.LBB34_20
.Ltmp261:
.LBB34_20:                              @   in Loop: Header=BB34_1 Depth=1
	.loc	2 1280 9                        @ ../../Library/StdDriver/src/i2c.c:1280:9
	ldr	r0, [sp, #32]
	ldr	r0, [r0]
	movs	r1, #60
	bics	r0, r1
	add	r1, sp, #12
	ldrb	r1, [r1]
	orrs	r0, r1
	ldr	r1, [sp, #32]
	str	r0, [r1]
.Ltmp262:
	.loc	2 1237 5                        @ ../../Library/StdDriver/src/i2c.c:1237:5
	b	.LBB34_1
.LBB34_21:
	.loc	2 1283 23                       @ ../../Library/StdDriver/src/i2c.c:1283:23
	ldr	r0, __arm_cp.34_1
	ldr	r0, [r0]
	.loc	2 1283 21 is_stmt 0             @ ../../Library/StdDriver/src/i2c.c:1283:21
	str	r0, [sp, #8]
	.loc	2 1284 5 is_stmt 1              @ ../../Library/StdDriver/src/i2c.c:1284:5
	b	.LBB34_22
.LBB34_22:                              @ =>This Inner Loop Header: Depth=1
	.loc	2 1284 13 is_stmt 0             @ ../../Library/StdDriver/src/i2c.c:1284:13
	ldr	r0, [sp, #32]
	.loc	2 1284 19                       @ ../../Library/StdDriver/src/i2c.c:1284:19
	ldr	r0, [r0]
	.loc	2 1284 5                        @ ../../Library/StdDriver/src/i2c.c:1284:5
	lsls	r0, r0, #27
	cmp	r0, #0
	bpl	.LBB34_26
	b	.LBB34_23
.LBB34_23:                              @   in Loop: Header=BB34_22 Depth=1
.Ltmp263:
	.loc	2 1286 24 is_stmt 1             @ ../../Library/StdDriver/src/i2c.c:1286:24
	ldr	r0, [sp, #8]
	subs	r0, r0, #1
	str	r0, [sp, #8]
.Ltmp264:
	.loc	2 1287 12                       @ ../../Library/StdDriver/src/i2c.c:1287:12
	ldr	r0, [sp, #8]
.Ltmp265:
	.loc	2 1287 12 is_stmt 0             @ ../../Library/StdDriver/src/i2c.c:1287:12
	cmp	r0, #0
	bne	.LBB34_25
	b	.LBB34_24
.LBB34_24:
.Ltmp266:
	.loc	2 1289 30 is_stmt 1             @ ../../Library/StdDriver/src/i2c.c:1289:30
	ldr	r1, __arm_cp.34_0
	movs	r0, #0
	mvns	r0, r0
	str	r0, [r1]
	.loc	2 1290 13                       @ ../../Library/StdDriver/src/i2c.c:1290:13
	b	.LBB34_26
.Ltmp267:
.LBB34_25:                              @   in Loop: Header=BB34_22 Depth=1
	.loc	2 1284 5                        @ ../../Library/StdDriver/src/i2c.c:1284:5
	b	.LBB34_22
.LBB34_26:
	.loc	2 0 5 is_stmt 0                 @ ../../Library/StdDriver/src/i2c.c:0:5
	add	r0, sp, #20
.Ltmp268:
	.loc	2 1294 9 is_stmt 1              @ ../../Library/StdDriver/src/i2c.c:1294:9
	ldrb	r0, [r0]
.Ltmp269:
	.loc	2 1294 9 is_stmt 0              @ ../../Library/StdDriver/src/i2c.c:1294:9
	cmp	r0, #0
	beq	.LBB34_28
	b	.LBB34_27
.LBB34_27:
	.loc	2 0 9                           @ ../../Library/StdDriver/src/i2c.c:0:9
	add	r1, sp, #16
	movs	r0, #0
.Ltmp270:
	.loc	2 1295 15 is_stmt 1             @ ../../Library/StdDriver/src/i2c.c:1295:15
	strb	r0, [r1]
	.loc	2 1295 9 is_stmt 0              @ ../../Library/StdDriver/src/i2c.c:1295:9
	b	.LBB34_28
.Ltmp271:
.LBB34_28:
	.loc	2 0 9                           @ ../../Library/StdDriver/src/i2c.c:0:9
	add	r0, sp, #16
	.loc	2 1297 12 is_stmt 1             @ ../../Library/StdDriver/src/i2c.c:1297:12
	ldrb	r0, [r0]
	.loc	2 1297 5 is_stmt 0              @ ../../Library/StdDriver/src/i2c.c:1297:5
	add	sp, #36
	bx	lr
.Ltmp272:
	.p2align	2
@ %bb.29:
	.loc	2 0 5                           @ ../../Library/StdDriver/src/i2c.c:0:5
__arm_cp.34_0:
	.long	g_I2C_i32ErrCode
.Lcpi_end18:
	.size	__arm_cp.34_0, .Lcpi_end18-__arm_cp.34_0
__arm_cp.34_1:
	.long	SystemCoreClock
.Lcpi_end19:
	.size	__arm_cp.34_1, .Lcpi_end19-__arm_cp.34_1
.Lfunc_end34:
	.size	I2C_ReadByte, .Lfunc_end34-I2C_ReadByte
	.cfi_endproc
	.cantunwind
	.fnend
                                        @ -- End function
	.section	.text.I2C_ReadMultiBytes,"ax",%progbits
	.hidden	I2C_ReadMultiBytes              @ -- Begin function I2C_ReadMultiBytes
	.globl	I2C_ReadMultiBytes
	.p2align	2
	.type	I2C_ReadMultiBytes,%function
	.code	16                              @ @I2C_ReadMultiBytes
	.thumb_func
I2C_ReadMultiBytes:
.Lfunc_begin35:
	.loc	2 1314 0 is_stmt 1              @ ../../Library/StdDriver/src/i2c.c:1314:0
	.fnstart
	.cfi_startproc
@ %bb.0:
	.save	{r4, lr}
	push	{r4, lr}
	.cfi_def_cfa_offset 8
	.cfi_offset lr, -4
	.cfi_offset r4, -8
	.pad	#44
	sub	sp, #44
	.cfi_def_cfa_offset 52
                                        @ kill: def $r4 killed $r1
	str	r0, [sp, #40]
	add	r0, sp, #36
	strb	r1, [r0]
	str	r2, [sp, #32]
	str	r3, [sp, #28]
	add	r1, sp, #24
	movs	r0, #1
.Ltmp273:
	.loc	2 1315 13 prologue_end          @ ../../Library/StdDriver/src/i2c.c:1315:13
	strb	r0, [r1]
	add	r1, sp, #20
	movs	r0, #0
	.loc	2 1315 29 is_stmt 0             @ ../../Library/StdDriver/src/i2c.c:1315:29
	strb	r0, [r1]
	add	r1, sp, #16
	.loc	2 1315 41                       @ ../../Library/StdDriver/src/i2c.c:1315:41
	strb	r0, [r1]
	.loc	2 1316 14 is_stmt 1             @ ../../Library/StdDriver/src/i2c.c:1316:14
	str	r0, [sp, #12]
	.loc	2 1319 22                       @ ../../Library/StdDriver/src/i2c.c:1319:22
	ldr	r1, __arm_cp.35_0
	str	r0, [r1]
	.loc	2 1321 5                        @ ../../Library/StdDriver/src/i2c.c:1321:5
	ldr	r0, [sp, #40]
	ldr	r0, [r0]
	movs	r1, #40
	orrs	r0, r1
	ldr	r1, [sp, #40]
	str	r0, [r1]
	.loc	2 1323 5                        @ ../../Library/StdDriver/src/i2c.c:1323:5
	b	.LBB35_1
.LBB35_1:                               @ =>This Loop Header: Depth=1
                                        @     Child Loop BB35_5 Depth 2
	.loc	2 0 5 is_stmt 0                 @ ../../Library/StdDriver/src/i2c.c:0:5
	add	r0, sp, #24
	.loc	2 1323 12                       @ ../../Library/StdDriver/src/i2c.c:1323:12
	ldrb	r1, [r0]
	movs	r0, #0
	.loc	2 1323 22                       @ ../../Library/StdDriver/src/i2c.c:1323:22
	cmp	r1, #0
	str	r0, [sp, #4]                    @ 4-byte Spill
	beq	.LBB35_3
	b	.LBB35_2
.LBB35_2:                               @   in Loop: Header=BB35_1 Depth=1
	.loc	2 0 22                          @ ../../Library/StdDriver/src/i2c.c:0:22
	add	r0, sp, #20
	.loc	2 1323 26                       @ ../../Library/StdDriver/src/i2c.c:1323:26
	ldrb	r0, [r0]
	.loc	2 1323 32                       @ ../../Library/StdDriver/src/i2c.c:1323:32
	rsbs	r1, r0, #0
	adcs	r0, r1
	str	r0, [sp, #4]                    @ 4-byte Spill
	b	.LBB35_3
.LBB35_3:                               @   in Loop: Header=BB35_1 Depth=1
	.loc	2 0 0                           @ ../../Library/StdDriver/src/i2c.c:0:0
	ldr	r0, [sp, #4]                    @ 4-byte Reload
	.loc	2 1323 5                        @ ../../Library/StdDriver/src/i2c.c:1323:5
	lsls	r0, r0, #31
	cmp	r0, #0
	bne	.LBB35_4
	b	.LBB35_26
.LBB35_4:                               @   in Loop: Header=BB35_1 Depth=1
.Ltmp274:
	.loc	2 1325 27 is_stmt 1             @ ../../Library/StdDriver/src/i2c.c:1325:27
	ldr	r0, __arm_cp.35_1
	ldr	r0, [r0]
	.loc	2 1325 25 is_stmt 0             @ ../../Library/StdDriver/src/i2c.c:1325:25
	str	r0, [sp, #8]
	.loc	2 1326 9 is_stmt 1              @ ../../Library/StdDriver/src/i2c.c:1326:9
	b	.LBB35_5
.LBB35_5:                               @   Parent Loop BB35_1 Depth=1
                                        @ =>  This Inner Loop Header: Depth=2
	ldr	r0, [sp, #40]
	ldr	r0, [r0]
	lsls	r0, r0, #28
	cmp	r0, #0
	bmi	.LBB35_9
	b	.LBB35_6
.LBB35_6:                               @   in Loop: Header=BB35_5 Depth=2
.Ltmp275:
	.loc	2 1328 28                       @ ../../Library/StdDriver/src/i2c.c:1328:28
	ldr	r0, [sp, #8]
	subs	r0, r0, #1
	str	r0, [sp, #8]
.Ltmp276:
	.loc	2 1329 16                       @ ../../Library/StdDriver/src/i2c.c:1329:16
	ldr	r0, [sp, #8]
.Ltmp277:
	.loc	2 1329 16 is_stmt 0             @ ../../Library/StdDriver/src/i2c.c:1329:16
	cmp	r0, #0
	bne	.LBB35_8
	b	.LBB35_7
.LBB35_7:                               @   in Loop: Header=BB35_1 Depth=1
.Ltmp278:
	.loc	2 1331 34 is_stmt 1             @ ../../Library/StdDriver/src/i2c.c:1331:34
	ldr	r1, __arm_cp.35_0
	movs	r0, #0
	mvns	r0, r0
	str	r0, [r1]
	.loc	2 1332 17                       @ ../../Library/StdDriver/src/i2c.c:1332:17
	b	.LBB35_9
.Ltmp279:
.LBB35_8:                               @   in Loop: Header=BB35_5 Depth=2
	.loc	2 1326 9                        @ ../../Library/StdDriver/src/i2c.c:1326:9
	b	.LBB35_5
.LBB35_9:                               @   in Loop: Header=BB35_1 Depth=1
	.loc	2 1336 17                       @ ../../Library/StdDriver/src/i2c.c:1336:17
	ldr	r0, [sp, #40]
	ldr	r0, [r0, #12]
	.loc	2 1336 9 is_stmt 0              @ ../../Library/StdDriver/src/i2c.c:1336:9
	str	r0, [sp]                        @ 4-byte Spill
	cmp	r0, #8
	beq	.LBB35_15
	b	.LBB35_10
.LBB35_10:                              @   in Loop: Header=BB35_1 Depth=1
	ldr	r0, [sp]                        @ 4-byte Reload
	cmp	r0, #56
	beq	.LBB35_23
	b	.LBB35_11
.LBB35_11:                              @   in Loop: Header=BB35_1 Depth=1
	ldr	r0, [sp]                        @ 4-byte Reload
	cmp	r0, #64
	beq	.LBB35_16
	b	.LBB35_12
.LBB35_12:                              @   in Loop: Header=BB35_1 Depth=1
	ldr	r0, [sp]                        @ 4-byte Reload
	cmp	r0, #72
	beq	.LBB35_17
	b	.LBB35_13
.LBB35_13:                              @   in Loop: Header=BB35_1 Depth=1
	ldr	r0, [sp]                        @ 4-byte Reload
	cmp	r0, #80
	beq	.LBB35_18
	b	.LBB35_14
.LBB35_14:                              @   in Loop: Header=BB35_1 Depth=1
	ldr	r0, [sp]                        @ 4-byte Reload
	cmp	r0, #88
	beq	.LBB35_22
	b	.LBB35_24
.LBB35_15:                              @   in Loop: Header=BB35_1 Depth=1
.Ltmp280:
	.loc	2 1339 13 is_stmt 1             @ ../../Library/StdDriver/src/i2c.c:1339:13
	ldr	r0, [sp, #36]
	lsls	r0, r0, #1
	adds	r0, r0, #1
	uxtb	r0, r0
	ldr	r1, [sp, #40]
	str	r0, [r1, #8]
	add	r1, sp, #16
	movs	r0, #8
	.loc	2 1340 20                       @ ../../Library/StdDriver/src/i2c.c:1340:20
	strb	r0, [r1]
	.loc	2 1341 13                       @ ../../Library/StdDriver/src/i2c.c:1341:13
	b	.LBB35_25
.LBB35_16:                              @   in Loop: Header=BB35_1 Depth=1
	.loc	2 0 13 is_stmt 0                @ ../../Library/StdDriver/src/i2c.c:0:13
	add	r1, sp, #16
	movs	r0, #12
	.loc	2 1344 20 is_stmt 1             @ ../../Library/StdDriver/src/i2c.c:1344:20
	strb	r0, [r1]
	.loc	2 1345 13                       @ ../../Library/StdDriver/src/i2c.c:1345:13
	b	.LBB35_25
.LBB35_17:                              @   in Loop: Header=BB35_1 Depth=1
	.loc	2 0 13 is_stmt 0                @ ../../Library/StdDriver/src/i2c.c:0:13
	add	r1, sp, #16
	movs	r0, #24
	.loc	2 1348 20 is_stmt 1             @ ../../Library/StdDriver/src/i2c.c:1348:20
	strb	r0, [r1]
	add	r1, sp, #20
	movs	r0, #1
	.loc	2 1349 19                       @ ../../Library/StdDriver/src/i2c.c:1349:19
	strb	r0, [r1]
	.loc	2 1350 13                       @ ../../Library/StdDriver/src/i2c.c:1350:13
	b	.LBB35_25
.LBB35_18:                              @   in Loop: Header=BB35_1 Depth=1
	.loc	2 1353 43                       @ ../../Library/StdDriver/src/i2c.c:1353:43
	ldr	r0, [sp, #40]
	ldr	r0, [r0, #8]
	.loc	2 1353 13 is_stmt 0             @ ../../Library/StdDriver/src/i2c.c:1353:13
	ldr	r1, [sp, #32]
	.loc	2 1353 27                       @ ../../Library/StdDriver/src/i2c.c:1353:27
	ldr	r2, [sp, #12]
	adds	r3, r2, #1
	str	r3, [sp, #12]
	.loc	2 1353 31                       @ ../../Library/StdDriver/src/i2c.c:1353:31
	strb	r0, [r1, r2]
.Ltmp281:
	.loc	2 1355 17 is_stmt 1             @ ../../Library/StdDriver/src/i2c.c:1355:17
	ldr	r0, [sp, #12]
	.loc	2 1355 29 is_stmt 0             @ ../../Library/StdDriver/src/i2c.c:1355:29
	ldr	r1, [sp, #28]
	.loc	2 1355 37                       @ ../../Library/StdDriver/src/i2c.c:1355:37
	subs	r1, r1, #1
.Ltmp282:
	.loc	2 1355 17                       @ ../../Library/StdDriver/src/i2c.c:1355:17
	cmp	r0, r1
	bhs	.LBB35_20
	b	.LBB35_19
.LBB35_19:                              @   in Loop: Header=BB35_1 Depth=1
	.loc	2 0 17                          @ ../../Library/StdDriver/src/i2c.c:0:17
	add	r1, sp, #16
	movs	r0, #12
.Ltmp283:
	.loc	2 1357 24 is_stmt 1             @ ../../Library/StdDriver/src/i2c.c:1357:24
	strb	r0, [r1]
	.loc	2 1358 13                       @ ../../Library/StdDriver/src/i2c.c:1358:13
	b	.LBB35_21
.Ltmp284:
.LBB35_20:                              @   in Loop: Header=BB35_1 Depth=1
	.loc	2 0 13 is_stmt 0                @ ../../Library/StdDriver/src/i2c.c:0:13
	add	r1, sp, #16
	movs	r0, #8
.Ltmp285:
	.loc	2 1361 24 is_stmt 1             @ ../../Library/StdDriver/src/i2c.c:1361:24
	strb	r0, [r1]
	b	.LBB35_21
.Ltmp286:
.LBB35_21:                              @   in Loop: Header=BB35_1 Depth=1
	.loc	2 1364 13                       @ ../../Library/StdDriver/src/i2c.c:1364:13
	b	.LBB35_25
.LBB35_22:                              @   in Loop: Header=BB35_1 Depth=1
	.loc	2 1367 43                       @ ../../Library/StdDriver/src/i2c.c:1367:43
	ldr	r0, [sp, #40]
	ldr	r0, [r0, #8]
	.loc	2 1367 13 is_stmt 0             @ ../../Library/StdDriver/src/i2c.c:1367:13
	ldr	r1, [sp, #32]
	.loc	2 1367 27                       @ ../../Library/StdDriver/src/i2c.c:1367:27
	ldr	r2, [sp, #12]
	adds	r3, r2, #1
	str	r3, [sp, #12]
	.loc	2 1367 31                       @ ../../Library/StdDriver/src/i2c.c:1367:31
	strb	r0, [r1, r2]
	add	r1, sp, #16
	movs	r0, #24
	.loc	2 1368 20 is_stmt 1             @ ../../Library/StdDriver/src/i2c.c:1368:20
	strb	r0, [r1]
	add	r1, sp, #24
	movs	r0, #0
	.loc	2 1369 23                       @ ../../Library/StdDriver/src/i2c.c:1369:23
	strb	r0, [r1]
	.loc	2 1370 13                       @ ../../Library/StdDriver/src/i2c.c:1370:13
	b	.LBB35_25
.LBB35_23:                              @   in Loop: Header=BB35_1 Depth=1
	b	.LBB35_24
.LBB35_24:                              @   in Loop: Header=BB35_1 Depth=1
	.loc	2 1374 13                       @ ../../Library/StdDriver/src/i2c.c:1374:13
	ldr	r0, [sp, #40]
	ldr	r0, [r0]
	movs	r1, #24
	orrs	r0, r1
	movs	r1, #36
	bics	r0, r1
	ldr	r1, [sp, #40]
	str	r0, [r1]
	add	r1, sp, #16
	movs	r0, #8
	.loc	2 1375 20                       @ ../../Library/StdDriver/src/i2c.c:1375:20
	strb	r0, [r1]
	add	r1, sp, #20
	movs	r0, #1
	.loc	2 1376 19                       @ ../../Library/StdDriver/src/i2c.c:1376:19
	strb	r0, [r1]
	.loc	2 1377 13                       @ ../../Library/StdDriver/src/i2c.c:1377:13
	b	.LBB35_25
.Ltmp287:
.LBB35_25:                              @   in Loop: Header=BB35_1 Depth=1
	.loc	2 1380 9                        @ ../../Library/StdDriver/src/i2c.c:1380:9
	ldr	r0, [sp, #40]
	ldr	r0, [r0]
	movs	r1, #60
	bics	r0, r1
	add	r1, sp, #16
	ldrb	r1, [r1]
	orrs	r0, r1
	ldr	r1, [sp, #40]
	str	r0, [r1]
.Ltmp288:
	.loc	2 1323 5                        @ ../../Library/StdDriver/src/i2c.c:1323:5
	b	.LBB35_1
.LBB35_26:
	.loc	2 1383 23                       @ ../../Library/StdDriver/src/i2c.c:1383:23
	ldr	r0, __arm_cp.35_1
	ldr	r0, [r0]
	.loc	2 1383 21 is_stmt 0             @ ../../Library/StdDriver/src/i2c.c:1383:21
	str	r0, [sp, #8]
	.loc	2 1384 5 is_stmt 1              @ ../../Library/StdDriver/src/i2c.c:1384:5
	b	.LBB35_27
.LBB35_27:                              @ =>This Inner Loop Header: Depth=1
	.loc	2 1384 13 is_stmt 0             @ ../../Library/StdDriver/src/i2c.c:1384:13
	ldr	r0, [sp, #40]
	.loc	2 1384 19                       @ ../../Library/StdDriver/src/i2c.c:1384:19
	ldr	r0, [r0]
	.loc	2 1384 5                        @ ../../Library/StdDriver/src/i2c.c:1384:5
	lsls	r0, r0, #27
	cmp	r0, #0
	bpl	.LBB35_31
	b	.LBB35_28
.LBB35_28:                              @   in Loop: Header=BB35_27 Depth=1
.Ltmp289:
	.loc	2 1386 24 is_stmt 1             @ ../../Library/StdDriver/src/i2c.c:1386:24
	ldr	r0, [sp, #8]
	subs	r0, r0, #1
	str	r0, [sp, #8]
.Ltmp290:
	.loc	2 1387 12                       @ ../../Library/StdDriver/src/i2c.c:1387:12
	ldr	r0, [sp, #8]
.Ltmp291:
	.loc	2 1387 12 is_stmt 0             @ ../../Library/StdDriver/src/i2c.c:1387:12
	cmp	r0, #0
	bne	.LBB35_30
	b	.LBB35_29
.LBB35_29:
.Ltmp292:
	.loc	2 1389 30 is_stmt 1             @ ../../Library/StdDriver/src/i2c.c:1389:30
	ldr	r1, __arm_cp.35_0
	movs	r0, #0
	mvns	r0, r0
	str	r0, [r1]
	.loc	2 1390 13                       @ ../../Library/StdDriver/src/i2c.c:1390:13
	b	.LBB35_31
.Ltmp293:
.LBB35_30:                              @   in Loop: Header=BB35_27 Depth=1
	.loc	2 1384 5                        @ ../../Library/StdDriver/src/i2c.c:1384:5
	b	.LBB35_27
.LBB35_31:
	.loc	2 1394 12                       @ ../../Library/StdDriver/src/i2c.c:1394:12
	ldr	r0, [sp, #12]
	.loc	2 1394 5 is_stmt 0              @ ../../Library/StdDriver/src/i2c.c:1394:5
	add	sp, #44
	pop	{r4, pc}
.Ltmp294:
	.p2align	2
@ %bb.32:
	.loc	2 0 5                           @ ../../Library/StdDriver/src/i2c.c:0:5
__arm_cp.35_0:
	.long	g_I2C_i32ErrCode
.Lcpi_end20:
	.size	__arm_cp.35_0, .Lcpi_end20-__arm_cp.35_0
__arm_cp.35_1:
	.long	SystemCoreClock
.Lcpi_end21:
	.size	__arm_cp.35_1, .Lcpi_end21-__arm_cp.35_1
.Lfunc_end35:
	.size	I2C_ReadMultiBytes, .Lfunc_end35-I2C_ReadMultiBytes
	.cfi_endproc
	.cantunwind
	.fnend
                                        @ -- End function
	.section	.text.I2C_ReadByteOneReg,"ax",%progbits
	.hidden	I2C_ReadByteOneReg              @ -- Begin function I2C_ReadByteOneReg
	.globl	I2C_ReadByteOneReg
	.p2align	2
	.type	I2C_ReadByteOneReg,%function
	.code	16                              @ @I2C_ReadByteOneReg
	.thumb_func
I2C_ReadByteOneReg:
.Lfunc_begin36:
	.loc	2 1412 0 is_stmt 1              @ ../../Library/StdDriver/src/i2c.c:1412:0
	.fnstart
	.cfi_startproc
@ %bb.0:
	.pad	#40
	sub	sp, #40
	.cfi_def_cfa_offset 40
                                        @ kill: def $r3 killed $r2
                                        @ kill: def $r3 killed $r1
	str	r0, [sp, #36]
	add	r0, sp, #32
	strb	r1, [r0]
	add	r0, sp, #28
	strb	r2, [r0]
	add	r1, sp, #24
	movs	r0, #1
.Ltmp295:
	.loc	2 1413 13 prologue_end          @ ../../Library/StdDriver/src/i2c.c:1413:13
	strb	r0, [r1]
	add	r1, sp, #20
	movs	r0, #0
	.loc	2 1413 29 is_stmt 0             @ ../../Library/StdDriver/src/i2c.c:1413:29
	strb	r0, [r1]
	add	r1, sp, #16
	.loc	2 1413 41                       @ ../../Library/StdDriver/src/i2c.c:1413:41
	strb	r0, [r1]
	add	r1, sp, #12
	.loc	2 1413 53                       @ ../../Library/StdDriver/src/i2c.c:1413:53
	strb	r0, [r1]
	.loc	2 1416 22 is_stmt 1             @ ../../Library/StdDriver/src/i2c.c:1416:22
	ldr	r1, __arm_cp.36_0
	str	r0, [r1]
	.loc	2 1418 5                        @ ../../Library/StdDriver/src/i2c.c:1418:5
	ldr	r0, [sp, #36]
	ldr	r0, [r0]
	movs	r1, #40
	orrs	r0, r1
	ldr	r1, [sp, #36]
	str	r0, [r1]
	.loc	2 1420 5                        @ ../../Library/StdDriver/src/i2c.c:1420:5
	b	.LBB36_1
.LBB36_1:                               @ =>This Loop Header: Depth=1
                                        @     Child Loop BB36_5 Depth 2
	.loc	2 0 5 is_stmt 0                 @ ../../Library/StdDriver/src/i2c.c:0:5
	add	r0, sp, #24
	.loc	2 1420 12                       @ ../../Library/StdDriver/src/i2c.c:1420:12
	ldrb	r1, [r0]
	movs	r0, #0
	.loc	2 1420 22                       @ ../../Library/StdDriver/src/i2c.c:1420:22
	cmp	r1, #0
	str	r0, [sp, #4]                    @ 4-byte Spill
	beq	.LBB36_3
	b	.LBB36_2
.LBB36_2:                               @   in Loop: Header=BB36_1 Depth=1
	.loc	2 0 22                          @ ../../Library/StdDriver/src/i2c.c:0:22
	add	r0, sp, #20
	.loc	2 1420 26                       @ ../../Library/StdDriver/src/i2c.c:1420:26
	ldrb	r0, [r0]
	.loc	2 1420 32                       @ ../../Library/StdDriver/src/i2c.c:1420:32
	rsbs	r1, r0, #0
	adcs	r0, r1
	str	r0, [sp, #4]                    @ 4-byte Spill
	b	.LBB36_3
.LBB36_3:                               @   in Loop: Header=BB36_1 Depth=1
	.loc	2 0 0                           @ ../../Library/StdDriver/src/i2c.c:0:0
	ldr	r0, [sp, #4]                    @ 4-byte Reload
	.loc	2 1420 5                        @ ../../Library/StdDriver/src/i2c.c:1420:5
	lsls	r0, r0, #31
	cmp	r0, #0
	bne	.LBB36_4
	b	.LBB36_23
.LBB36_4:                               @   in Loop: Header=BB36_1 Depth=1
.Ltmp296:
	.loc	2 1422 27 is_stmt 1             @ ../../Library/StdDriver/src/i2c.c:1422:27
	ldr	r0, __arm_cp.36_1
	ldr	r0, [r0]
	.loc	2 1422 25 is_stmt 0             @ ../../Library/StdDriver/src/i2c.c:1422:25
	str	r0, [sp, #8]
	.loc	2 1423 9 is_stmt 1              @ ../../Library/StdDriver/src/i2c.c:1423:9
	b	.LBB36_5
.LBB36_5:                               @   Parent Loop BB36_1 Depth=1
                                        @ =>  This Inner Loop Header: Depth=2
	ldr	r0, [sp, #36]
	ldr	r0, [r0]
	lsls	r0, r0, #28
	cmp	r0, #0
	bmi	.LBB36_9
	b	.LBB36_6
.LBB36_6:                               @   in Loop: Header=BB36_5 Depth=2
.Ltmp297:
	.loc	2 1425 28                       @ ../../Library/StdDriver/src/i2c.c:1425:28
	ldr	r0, [sp, #8]
	subs	r0, r0, #1
	str	r0, [sp, #8]
.Ltmp298:
	.loc	2 1426 16                       @ ../../Library/StdDriver/src/i2c.c:1426:16
	ldr	r0, [sp, #8]
.Ltmp299:
	.loc	2 1426 16 is_stmt 0             @ ../../Library/StdDriver/src/i2c.c:1426:16
	cmp	r0, #0
	bne	.LBB36_8
	b	.LBB36_7
.LBB36_7:                               @   in Loop: Header=BB36_1 Depth=1
.Ltmp300:
	.loc	2 1428 34 is_stmt 1             @ ../../Library/StdDriver/src/i2c.c:1428:34
	ldr	r1, __arm_cp.36_0
	movs	r0, #0
	mvns	r0, r0
	str	r0, [r1]
	.loc	2 1429 17                       @ ../../Library/StdDriver/src/i2c.c:1429:17
	b	.LBB36_9
.Ltmp301:
.LBB36_8:                               @   in Loop: Header=BB36_5 Depth=2
	.loc	2 1423 9                        @ ../../Library/StdDriver/src/i2c.c:1423:9
	b	.LBB36_5
.LBB36_9:                               @   in Loop: Header=BB36_1 Depth=1
	.loc	2 1433 17                       @ ../../Library/StdDriver/src/i2c.c:1433:17
	ldr	r0, [sp, #36]
	ldr	r0, [r0, #12]
	.loc	2 1433 9 is_stmt 0              @ ../../Library/StdDriver/src/i2c.c:1433:9
	subs	r0, #8
	str	r0, [sp]                        @ 4-byte Spill
	cmp	r0, #80
	bls	.LBB36_10
	b	.LBB36_21
.LBB36_10:                              @   in Loop: Header=BB36_1 Depth=1
	.loc	2 0 9                           @ ../../Library/StdDriver/src/i2c.c:0:9
	ldr	r0, [sp]                        @ 4-byte Reload
	lsls	r1, r0, #2
	adr	r0, .LJTI36_0
	ldr	r0, [r0, r1]
	mov	pc, r0
@ %bb.11:
	.p2align	2
.LJTI36_0:
	.long	.LBB36_12+1
	.long	.LBB36_21+1
	.long	.LBB36_21+1
	.long	.LBB36_21+1
	.long	.LBB36_21+1
	.long	.LBB36_21+1
	.long	.LBB36_21+1
	.long	.LBB36_21+1
	.long	.LBB36_16+1
	.long	.LBB36_21+1
	.long	.LBB36_21+1
	.long	.LBB36_21+1
	.long	.LBB36_21+1
	.long	.LBB36_21+1
	.long	.LBB36_21+1
	.long	.LBB36_21+1
	.long	.LBB36_13+1
	.long	.LBB36_21+1
	.long	.LBB36_21+1
	.long	.LBB36_21+1
	.long	.LBB36_21+1
	.long	.LBB36_21+1
	.long	.LBB36_21+1
	.long	.LBB36_21+1
	.long	.LBB36_14+1
	.long	.LBB36_21+1
	.long	.LBB36_21+1
	.long	.LBB36_21+1
	.long	.LBB36_21+1
	.long	.LBB36_21+1
	.long	.LBB36_21+1
	.long	.LBB36_21+1
	.long	.LBB36_15+1
	.long	.LBB36_21+1
	.long	.LBB36_21+1
	.long	.LBB36_21+1
	.long	.LBB36_21+1
	.long	.LBB36_21+1
	.long	.LBB36_21+1
	.long	.LBB36_21+1
	.long	.LBB36_14+1
	.long	.LBB36_21+1
	.long	.LBB36_21+1
	.long	.LBB36_21+1
	.long	.LBB36_21+1
	.long	.LBB36_21+1
	.long	.LBB36_21+1
	.long	.LBB36_21+1
	.long	.LBB36_20+1
	.long	.LBB36_21+1
	.long	.LBB36_21+1
	.long	.LBB36_21+1
	.long	.LBB36_21+1
	.long	.LBB36_21+1
	.long	.LBB36_21+1
	.long	.LBB36_21+1
	.long	.LBB36_17+1
	.long	.LBB36_21+1
	.long	.LBB36_21+1
	.long	.LBB36_21+1
	.long	.LBB36_21+1
	.long	.LBB36_21+1
	.long	.LBB36_21+1
	.long	.LBB36_21+1
	.long	.LBB36_18+1
	.long	.LBB36_21+1
	.long	.LBB36_21+1
	.long	.LBB36_21+1
	.long	.LBB36_21+1
	.long	.LBB36_21+1
	.long	.LBB36_21+1
	.long	.LBB36_21+1
	.long	.LBB36_21+1
	.long	.LBB36_21+1
	.long	.LBB36_21+1
	.long	.LBB36_21+1
	.long	.LBB36_21+1
	.long	.LBB36_21+1
	.long	.LBB36_21+1
	.long	.LBB36_21+1
	.long	.LBB36_19+1
.LBB36_12:                              @   in Loop: Header=BB36_1 Depth=1
.Ltmp302:
	.loc	2 1436 13 is_stmt 1             @ ../../Library/StdDriver/src/i2c.c:1436:13
	ldr	r0, [sp, #32]
	lsls	r0, r0, #25
	lsrs	r0, r0, #24
	ldr	r1, [sp, #36]
	str	r0, [r1, #8]
	add	r1, sp, #12
	movs	r0, #8
	.loc	2 1437 20                       @ ../../Library/StdDriver/src/i2c.c:1437:20
	strb	r0, [r1]
	.loc	2 1438 13                       @ ../../Library/StdDriver/src/i2c.c:1438:13
	b	.LBB36_22
.LBB36_13:                              @   in Loop: Header=BB36_1 Depth=1
	.loc	2 0 13 is_stmt 0                @ ../../Library/StdDriver/src/i2c.c:0:13
	add	r0, sp, #28
	.loc	2 1441 13 is_stmt 1             @ ../../Library/StdDriver/src/i2c.c:1441:13
	ldrb	r0, [r0]
	ldr	r1, [sp, #36]
	str	r0, [r1, #8]
	.loc	2 1442 13                       @ ../../Library/StdDriver/src/i2c.c:1442:13
	b	.LBB36_22
.LBB36_14:                              @   in Loop: Header=BB36_1 Depth=1
	.loc	2 0 13 is_stmt 0                @ ../../Library/StdDriver/src/i2c.c:0:13
	add	r1, sp, #12
	movs	r0, #24
	.loc	2 1446 20 is_stmt 1             @ ../../Library/StdDriver/src/i2c.c:1446:20
	strb	r0, [r1]
	add	r1, sp, #20
	movs	r0, #1
	.loc	2 1447 19                       @ ../../Library/StdDriver/src/i2c.c:1447:19
	strb	r0, [r1]
	.loc	2 1448 13                       @ ../../Library/StdDriver/src/i2c.c:1448:13
	b	.LBB36_22
.LBB36_15:                              @   in Loop: Header=BB36_1 Depth=1
	.loc	2 0 13 is_stmt 0                @ ../../Library/StdDriver/src/i2c.c:0:13
	add	r1, sp, #12
	movs	r0, #40
	.loc	2 1451 20 is_stmt 1             @ ../../Library/StdDriver/src/i2c.c:1451:20
	strb	r0, [r1]
	.loc	2 1452 13                       @ ../../Library/StdDriver/src/i2c.c:1452:13
	b	.LBB36_22
.LBB36_16:                              @   in Loop: Header=BB36_1 Depth=1
	.loc	2 1455 13                       @ ../../Library/StdDriver/src/i2c.c:1455:13
	ldr	r0, [sp, #32]
	lsls	r0, r0, #1
	adds	r0, r0, #1
	uxtb	r0, r0
	ldr	r1, [sp, #36]
	str	r0, [r1, #8]
	add	r1, sp, #12
	movs	r0, #8
	.loc	2 1456 20                       @ ../../Library/StdDriver/src/i2c.c:1456:20
	strb	r0, [r1]
	.loc	2 1457 13                       @ ../../Library/StdDriver/src/i2c.c:1457:13
	b	.LBB36_22
.LBB36_17:                              @   in Loop: Header=BB36_1 Depth=1
	.loc	2 0 13 is_stmt 0                @ ../../Library/StdDriver/src/i2c.c:0:13
	add	r1, sp, #12
	movs	r0, #8
	.loc	2 1460 20 is_stmt 1             @ ../../Library/StdDriver/src/i2c.c:1460:20
	strb	r0, [r1]
	.loc	2 1461 13                       @ ../../Library/StdDriver/src/i2c.c:1461:13
	b	.LBB36_22
.LBB36_18:                              @   in Loop: Header=BB36_1 Depth=1
	.loc	2 0 13 is_stmt 0                @ ../../Library/StdDriver/src/i2c.c:0:13
	add	r1, sp, #12
	movs	r0, #24
	.loc	2 1464 20 is_stmt 1             @ ../../Library/StdDriver/src/i2c.c:1464:20
	strb	r0, [r1]
	add	r1, sp, #20
	movs	r0, #1
	.loc	2 1465 19                       @ ../../Library/StdDriver/src/i2c.c:1465:19
	strb	r0, [r1]
	.loc	2 1466 13                       @ ../../Library/StdDriver/src/i2c.c:1466:13
	b	.LBB36_22
.LBB36_19:                              @   in Loop: Header=BB36_1 Depth=1
	.loc	2 1469 31                       @ ../../Library/StdDriver/src/i2c.c:1469:31
	ldr	r0, [sp, #36]
	ldr	r0, [r0, #8]
	add	r1, sp, #16
	.loc	2 1469 19 is_stmt 0             @ ../../Library/StdDriver/src/i2c.c:1469:19
	strb	r0, [r1]
	add	r1, sp, #12
	movs	r0, #24
	.loc	2 1470 20 is_stmt 1             @ ../../Library/StdDriver/src/i2c.c:1470:20
	strb	r0, [r1]
	add	r1, sp, #24
	movs	r0, #0
	.loc	2 1471 23                       @ ../../Library/StdDriver/src/i2c.c:1471:23
	strb	r0, [r1]
	.loc	2 1472 13                       @ ../../Library/StdDriver/src/i2c.c:1472:13
	b	.LBB36_22
.LBB36_20:                              @   in Loop: Header=BB36_1 Depth=1
	b	.LBB36_21
.LBB36_21:                              @   in Loop: Header=BB36_1 Depth=1
	.loc	2 1476 13                       @ ../../Library/StdDriver/src/i2c.c:1476:13
	ldr	r0, [sp, #36]
	ldr	r0, [r0]
	movs	r1, #24
	orrs	r0, r1
	movs	r1, #36
	bics	r0, r1
	ldr	r1, [sp, #36]
	str	r0, [r1]
	add	r1, sp, #12
	movs	r0, #8
	.loc	2 1477 20                       @ ../../Library/StdDriver/src/i2c.c:1477:20
	strb	r0, [r1]
	add	r1, sp, #20
	movs	r0, #1
	.loc	2 1478 19                       @ ../../Library/StdDriver/src/i2c.c:1478:19
	strb	r0, [r1]
	.loc	2 1479 13                       @ ../../Library/StdDriver/src/i2c.c:1479:13
	b	.LBB36_22
.Ltmp303:
.LBB36_22:                              @   in Loop: Header=BB36_1 Depth=1
	.loc	2 1482 9                        @ ../../Library/StdDriver/src/i2c.c:1482:9
	ldr	r0, [sp, #36]
	ldr	r0, [r0]
	movs	r1, #60
	bics	r0, r1
	add	r1, sp, #12
	ldrb	r1, [r1]
	orrs	r0, r1
	ldr	r1, [sp, #36]
	str	r0, [r1]
.Ltmp304:
	.loc	2 1420 5                        @ ../../Library/StdDriver/src/i2c.c:1420:5
	b	.LBB36_1
.LBB36_23:
	.loc	2 1485 23                       @ ../../Library/StdDriver/src/i2c.c:1485:23
	ldr	r0, __arm_cp.36_1
	ldr	r0, [r0]
	.loc	2 1485 21 is_stmt 0             @ ../../Library/StdDriver/src/i2c.c:1485:21
	str	r0, [sp, #8]
	.loc	2 1486 5 is_stmt 1              @ ../../Library/StdDriver/src/i2c.c:1486:5
	b	.LBB36_24
.LBB36_24:                              @ =>This Inner Loop Header: Depth=1
	.loc	2 1486 13 is_stmt 0             @ ../../Library/StdDriver/src/i2c.c:1486:13
	ldr	r0, [sp, #36]
	.loc	2 1486 19                       @ ../../Library/StdDriver/src/i2c.c:1486:19
	ldr	r0, [r0]
	.loc	2 1486 5                        @ ../../Library/StdDriver/src/i2c.c:1486:5
	lsls	r0, r0, #27
	cmp	r0, #0
	bpl	.LBB36_28
	b	.LBB36_25
.LBB36_25:                              @   in Loop: Header=BB36_24 Depth=1
.Ltmp305:
	.loc	2 1488 24 is_stmt 1             @ ../../Library/StdDriver/src/i2c.c:1488:24
	ldr	r0, [sp, #8]
	subs	r0, r0, #1
	str	r0, [sp, #8]
.Ltmp306:
	.loc	2 1489 12                       @ ../../Library/StdDriver/src/i2c.c:1489:12
	ldr	r0, [sp, #8]
.Ltmp307:
	.loc	2 1489 12 is_stmt 0             @ ../../Library/StdDriver/src/i2c.c:1489:12
	cmp	r0, #0
	bne	.LBB36_27
	b	.LBB36_26
.LBB36_26:
.Ltmp308:
	.loc	2 1491 30 is_stmt 1             @ ../../Library/StdDriver/src/i2c.c:1491:30
	ldr	r1, __arm_cp.36_0
	movs	r0, #0
	mvns	r0, r0
	str	r0, [r1]
	.loc	2 1492 13                       @ ../../Library/StdDriver/src/i2c.c:1492:13
	b	.LBB36_28
.Ltmp309:
.LBB36_27:                              @   in Loop: Header=BB36_24 Depth=1
	.loc	2 1486 5                        @ ../../Library/StdDriver/src/i2c.c:1486:5
	b	.LBB36_24
.LBB36_28:
	.loc	2 0 5 is_stmt 0                 @ ../../Library/StdDriver/src/i2c.c:0:5
	add	r0, sp, #20
.Ltmp310:
	.loc	2 1496 9 is_stmt 1              @ ../../Library/StdDriver/src/i2c.c:1496:9
	ldrb	r0, [r0]
.Ltmp311:
	.loc	2 1496 9 is_stmt 0              @ ../../Library/StdDriver/src/i2c.c:1496:9
	cmp	r0, #0
	beq	.LBB36_30
	b	.LBB36_29
.LBB36_29:
	.loc	2 0 9                           @ ../../Library/StdDriver/src/i2c.c:0:9
	add	r1, sp, #16
	movs	r0, #0
.Ltmp312:
	.loc	2 1498 15 is_stmt 1             @ ../../Library/StdDriver/src/i2c.c:1498:15
	strb	r0, [r1]
	.loc	2 1499 22                       @ ../../Library/StdDriver/src/i2c.c:1499:22
	ldr	r1, __arm_cp.36_0
	mvns	r0, r0
	str	r0, [r1]
	.loc	2 1500 3                        @ ../../Library/StdDriver/src/i2c.c:1500:3
	b	.LBB36_30
.Ltmp313:
.LBB36_30:
	.loc	2 0 3 is_stmt 0                 @ ../../Library/StdDriver/src/i2c.c:0:3
	add	r0, sp, #16
	.loc	2 1502 12 is_stmt 1             @ ../../Library/StdDriver/src/i2c.c:1502:12
	ldrb	r0, [r0]
	.loc	2 1502 5 is_stmt 0              @ ../../Library/StdDriver/src/i2c.c:1502:5
	add	sp, #40
	bx	lr
.Ltmp314:
	.p2align	2
@ %bb.31:
	.loc	2 0 5                           @ ../../Library/StdDriver/src/i2c.c:0:5
__arm_cp.36_0:
	.long	g_I2C_i32ErrCode
.Lcpi_end22:
	.size	__arm_cp.36_0, .Lcpi_end22-__arm_cp.36_0
__arm_cp.36_1:
	.long	SystemCoreClock
.Lcpi_end23:
	.size	__arm_cp.36_1, .Lcpi_end23-__arm_cp.36_1
.Lfunc_end36:
	.size	I2C_ReadByteOneReg, .Lfunc_end36-I2C_ReadByteOneReg
	.cfi_endproc
	.cantunwind
	.fnend
                                        @ -- End function
	.section	.text.I2C_ReadMultiBytesOneReg,"ax",%progbits
	.hidden	I2C_ReadMultiBytesOneReg        @ -- Begin function I2C_ReadMultiBytesOneReg
	.globl	I2C_ReadMultiBytesOneReg
	.p2align	2
	.type	I2C_ReadMultiBytesOneReg,%function
	.code	16                              @ @I2C_ReadMultiBytesOneReg
	.thumb_func
I2C_ReadMultiBytesOneReg:
.Lfunc_begin37:
	.loc	2 1521 0 is_stmt 1              @ ../../Library/StdDriver/src/i2c.c:1521:0
	.fnstart
	.cfi_startproc
@ %bb.0:
	.save	{r4, lr}
	push	{r4, lr}
	.cfi_def_cfa_offset 8
	.cfi_offset lr, -4
	.cfi_offset r4, -8
	.pad	#44
	sub	sp, #44
	.cfi_def_cfa_offset 52
	ldr	r4, [sp, #52]
                                        @ kill: def $r4 killed $r2
                                        @ kill: def $r4 killed $r1
	str	r0, [sp, #40]
	add	r0, sp, #36
	strb	r1, [r0]
	add	r0, sp, #32
	strb	r2, [r0]
	str	r3, [sp, #28]
	add	r1, sp, #24
	movs	r0, #1
.Ltmp315:
	.loc	2 1522 13 prologue_end          @ ../../Library/StdDriver/src/i2c.c:1522:13
	strb	r0, [r1]
	add	r1, sp, #20
	movs	r0, #0
	.loc	2 1522 29 is_stmt 0             @ ../../Library/StdDriver/src/i2c.c:1522:29
	strb	r0, [r1]
	add	r1, sp, #16
	.loc	2 1522 41                       @ ../../Library/StdDriver/src/i2c.c:1522:41
	strb	r0, [r1]
	.loc	2 1523 14 is_stmt 1             @ ../../Library/StdDriver/src/i2c.c:1523:14
	str	r0, [sp, #12]
	.loc	2 1526 22                       @ ../../Library/StdDriver/src/i2c.c:1526:22
	ldr	r1, __arm_cp.37_0
	str	r0, [r1]
	.loc	2 1528 5                        @ ../../Library/StdDriver/src/i2c.c:1528:5
	ldr	r0, [sp, #40]
	ldr	r0, [r0]
	movs	r1, #40
	orrs	r0, r1
	ldr	r1, [sp, #40]
	str	r0, [r1]
	.loc	2 1530 5                        @ ../../Library/StdDriver/src/i2c.c:1530:5
	b	.LBB37_1
.LBB37_1:                               @ =>This Loop Header: Depth=1
                                        @     Child Loop BB37_5 Depth 2
	.loc	2 0 5 is_stmt 0                 @ ../../Library/StdDriver/src/i2c.c:0:5
	add	r0, sp, #24
	.loc	2 1530 12                       @ ../../Library/StdDriver/src/i2c.c:1530:12
	ldrb	r1, [r0]
	movs	r0, #0
	.loc	2 1530 22                       @ ../../Library/StdDriver/src/i2c.c:1530:22
	cmp	r1, #0
	str	r0, [sp, #4]                    @ 4-byte Spill
	beq	.LBB37_3
	b	.LBB37_2
.LBB37_2:                               @   in Loop: Header=BB37_1 Depth=1
	.loc	2 0 22                          @ ../../Library/StdDriver/src/i2c.c:0:22
	add	r0, sp, #20
	.loc	2 1530 26                       @ ../../Library/StdDriver/src/i2c.c:1530:26
	ldrb	r0, [r0]
	.loc	2 1530 32                       @ ../../Library/StdDriver/src/i2c.c:1530:32
	rsbs	r1, r0, #0
	adcs	r0, r1
	str	r0, [sp, #4]                    @ 4-byte Spill
	b	.LBB37_3
.LBB37_3:                               @   in Loop: Header=BB37_1 Depth=1
	.loc	2 0 0                           @ ../../Library/StdDriver/src/i2c.c:0:0
	ldr	r0, [sp, #4]                    @ 4-byte Reload
	.loc	2 1530 5                        @ ../../Library/StdDriver/src/i2c.c:1530:5
	lsls	r0, r0, #31
	cmp	r0, #0
	bne	.LBB37_4
	b	.LBB37_27
.LBB37_4:                               @   in Loop: Header=BB37_1 Depth=1
.Ltmp316:
	.loc	2 1532 27 is_stmt 1             @ ../../Library/StdDriver/src/i2c.c:1532:27
	ldr	r0, __arm_cp.37_1
	ldr	r0, [r0]
	.loc	2 1532 25 is_stmt 0             @ ../../Library/StdDriver/src/i2c.c:1532:25
	str	r0, [sp, #8]
	.loc	2 1533 9 is_stmt 1              @ ../../Library/StdDriver/src/i2c.c:1533:9
	b	.LBB37_5
.LBB37_5:                               @   Parent Loop BB37_1 Depth=1
                                        @ =>  This Inner Loop Header: Depth=2
	ldr	r0, [sp, #40]
	ldr	r0, [r0]
	lsls	r0, r0, #28
	cmp	r0, #0
	bmi	.LBB37_9
	b	.LBB37_6
.LBB37_6:                               @   in Loop: Header=BB37_5 Depth=2
.Ltmp317:
	.loc	2 1535 28                       @ ../../Library/StdDriver/src/i2c.c:1535:28
	ldr	r0, [sp, #8]
	subs	r0, r0, #1
	str	r0, [sp, #8]
.Ltmp318:
	.loc	2 1536 16                       @ ../../Library/StdDriver/src/i2c.c:1536:16
	ldr	r0, [sp, #8]
.Ltmp319:
	.loc	2 1536 16 is_stmt 0             @ ../../Library/StdDriver/src/i2c.c:1536:16
	cmp	r0, #0
	bne	.LBB37_8
	b	.LBB37_7
.LBB37_7:                               @   in Loop: Header=BB37_1 Depth=1
.Ltmp320:
	.loc	2 1538 34 is_stmt 1             @ ../../Library/StdDriver/src/i2c.c:1538:34
	ldr	r1, __arm_cp.37_0
	movs	r0, #0
	mvns	r0, r0
	str	r0, [r1]
	.loc	2 1539 17                       @ ../../Library/StdDriver/src/i2c.c:1539:17
	b	.LBB37_9
.Ltmp321:
.LBB37_8:                               @   in Loop: Header=BB37_5 Depth=2
	.loc	2 1533 9                        @ ../../Library/StdDriver/src/i2c.c:1533:9
	b	.LBB37_5
.LBB37_9:                               @   in Loop: Header=BB37_1 Depth=1
	.loc	2 1543 17                       @ ../../Library/StdDriver/src/i2c.c:1543:17
	ldr	r0, [sp, #40]
	ldr	r0, [r0, #12]
	.loc	2 1543 9 is_stmt 0              @ ../../Library/StdDriver/src/i2c.c:1543:9
	subs	r0, #8
	str	r0, [sp]                        @ 4-byte Spill
	cmp	r0, #80
	bls	.LBB37_10
	b	.LBB37_25
.LBB37_10:                              @   in Loop: Header=BB37_1 Depth=1
	.loc	2 0 9                           @ ../../Library/StdDriver/src/i2c.c:0:9
	ldr	r0, [sp]                        @ 4-byte Reload
	lsls	r1, r0, #2
	adr	r0, .LJTI37_0
	ldr	r0, [r0, r1]
	mov	pc, r0
@ %bb.11:
	.p2align	2
.LJTI37_0:
	.long	.LBB37_12+1
	.long	.LBB37_25+1
	.long	.LBB37_25+1
	.long	.LBB37_25+1
	.long	.LBB37_25+1
	.long	.LBB37_25+1
	.long	.LBB37_25+1
	.long	.LBB37_25+1
	.long	.LBB37_16+1
	.long	.LBB37_25+1
	.long	.LBB37_25+1
	.long	.LBB37_25+1
	.long	.LBB37_25+1
	.long	.LBB37_25+1
	.long	.LBB37_25+1
	.long	.LBB37_25+1
	.long	.LBB37_13+1
	.long	.LBB37_25+1
	.long	.LBB37_25+1
	.long	.LBB37_25+1
	.long	.LBB37_25+1
	.long	.LBB37_25+1
	.long	.LBB37_25+1
	.long	.LBB37_25+1
	.long	.LBB37_14+1
	.long	.LBB37_25+1
	.long	.LBB37_25+1
	.long	.LBB37_25+1
	.long	.LBB37_25+1
	.long	.LBB37_25+1
	.long	.LBB37_25+1
	.long	.LBB37_25+1
	.long	.LBB37_15+1
	.long	.LBB37_25+1
	.long	.LBB37_25+1
	.long	.LBB37_25+1
	.long	.LBB37_25+1
	.long	.LBB37_25+1
	.long	.LBB37_25+1
	.long	.LBB37_25+1
	.long	.LBB37_14+1
	.long	.LBB37_25+1
	.long	.LBB37_25+1
	.long	.LBB37_25+1
	.long	.LBB37_25+1
	.long	.LBB37_25+1
	.long	.LBB37_25+1
	.long	.LBB37_25+1
	.long	.LBB37_24+1
	.long	.LBB37_25+1
	.long	.LBB37_25+1
	.long	.LBB37_25+1
	.long	.LBB37_25+1
	.long	.LBB37_25+1
	.long	.LBB37_25+1
	.long	.LBB37_25+1
	.long	.LBB37_17+1
	.long	.LBB37_25+1
	.long	.LBB37_25+1
	.long	.LBB37_25+1
	.long	.LBB37_25+1
	.long	.LBB37_25+1
	.long	.LBB37_25+1
	.long	.LBB37_25+1
	.long	.LBB37_18+1
	.long	.LBB37_25+1
	.long	.LBB37_25+1
	.long	.LBB37_25+1
	.long	.LBB37_25+1
	.long	.LBB37_25+1
	.long	.LBB37_25+1
	.long	.LBB37_25+1
	.long	.LBB37_19+1
	.long	.LBB37_25+1
	.long	.LBB37_25+1
	.long	.LBB37_25+1
	.long	.LBB37_25+1
	.long	.LBB37_25+1
	.long	.LBB37_25+1
	.long	.LBB37_25+1
	.long	.LBB37_23+1
.LBB37_12:                              @   in Loop: Header=BB37_1 Depth=1
.Ltmp322:
	.loc	2 1546 13 is_stmt 1             @ ../../Library/StdDriver/src/i2c.c:1546:13
	ldr	r0, [sp, #36]
	lsls	r0, r0, #25
	lsrs	r0, r0, #24
	ldr	r1, [sp, #40]
	str	r0, [r1, #8]
	add	r1, sp, #16
	movs	r0, #8
	.loc	2 1547 20                       @ ../../Library/StdDriver/src/i2c.c:1547:20
	strb	r0, [r1]
	.loc	2 1548 13                       @ ../../Library/StdDriver/src/i2c.c:1548:13
	b	.LBB37_26
.LBB37_13:                              @   in Loop: Header=BB37_1 Depth=1
	.loc	2 0 13 is_stmt 0                @ ../../Library/StdDriver/src/i2c.c:0:13
	add	r0, sp, #32
	.loc	2 1551 13 is_stmt 1             @ ../../Library/StdDriver/src/i2c.c:1551:13
	ldrb	r0, [r0]
	ldr	r1, [sp, #40]
	str	r0, [r1, #8]
	.loc	2 1552 13                       @ ../../Library/StdDriver/src/i2c.c:1552:13
	b	.LBB37_26
.LBB37_14:                              @   in Loop: Header=BB37_1 Depth=1
	.loc	2 0 13 is_stmt 0                @ ../../Library/StdDriver/src/i2c.c:0:13
	add	r1, sp, #16
	movs	r0, #24
	.loc	2 1556 20 is_stmt 1             @ ../../Library/StdDriver/src/i2c.c:1556:20
	strb	r0, [r1]
	add	r1, sp, #20
	movs	r0, #1
	.loc	2 1557 19                       @ ../../Library/StdDriver/src/i2c.c:1557:19
	strb	r0, [r1]
	.loc	2 1558 13                       @ ../../Library/StdDriver/src/i2c.c:1558:13
	b	.LBB37_26
.LBB37_15:                              @   in Loop: Header=BB37_1 Depth=1
	.loc	2 0 13 is_stmt 0                @ ../../Library/StdDriver/src/i2c.c:0:13
	add	r1, sp, #16
	movs	r0, #40
	.loc	2 1561 20 is_stmt 1             @ ../../Library/StdDriver/src/i2c.c:1561:20
	strb	r0, [r1]
	.loc	2 1562 13                       @ ../../Library/StdDriver/src/i2c.c:1562:13
	b	.LBB37_26
.LBB37_16:                              @   in Loop: Header=BB37_1 Depth=1
	.loc	2 1565 13                       @ ../../Library/StdDriver/src/i2c.c:1565:13
	ldr	r0, [sp, #36]
	lsls	r0, r0, #1
	adds	r0, r0, #1
	uxtb	r0, r0
	ldr	r1, [sp, #40]
	str	r0, [r1, #8]
	add	r1, sp, #16
	movs	r0, #8
	.loc	2 1566 20                       @ ../../Library/StdDriver/src/i2c.c:1566:20
	strb	r0, [r1]
	.loc	2 1567 13                       @ ../../Library/StdDriver/src/i2c.c:1567:13
	b	.LBB37_26
.LBB37_17:                              @   in Loop: Header=BB37_1 Depth=1
	.loc	2 0 13 is_stmt 0                @ ../../Library/StdDriver/src/i2c.c:0:13
	add	r1, sp, #16
	movs	r0, #12
	.loc	2 1570 20 is_stmt 1             @ ../../Library/StdDriver/src/i2c.c:1570:20
	strb	r0, [r1]
	.loc	2 1571 13                       @ ../../Library/StdDriver/src/i2c.c:1571:13
	b	.LBB37_26
.LBB37_18:                              @   in Loop: Header=BB37_1 Depth=1
	.loc	2 0 13 is_stmt 0                @ ../../Library/StdDriver/src/i2c.c:0:13
	add	r1, sp, #16
	movs	r0, #24
	.loc	2 1574 20 is_stmt 1             @ ../../Library/StdDriver/src/i2c.c:1574:20
	strb	r0, [r1]
	add	r1, sp, #20
	movs	r0, #1
	.loc	2 1575 19                       @ ../../Library/StdDriver/src/i2c.c:1575:19
	strb	r0, [r1]
	.loc	2 1576 13                       @ ../../Library/StdDriver/src/i2c.c:1576:13
	b	.LBB37_26
.LBB37_19:                              @   in Loop: Header=BB37_1 Depth=1
	.loc	2 1579 43                       @ ../../Library/StdDriver/src/i2c.c:1579:43
	ldr	r0, [sp, #40]
	ldr	r0, [r0, #8]
	.loc	2 1579 13 is_stmt 0             @ ../../Library/StdDriver/src/i2c.c:1579:13
	ldr	r1, [sp, #28]
	.loc	2 1579 27                       @ ../../Library/StdDriver/src/i2c.c:1579:27
	ldr	r2, [sp, #12]
	adds	r3, r2, #1
	str	r3, [sp, #12]
	.loc	2 1579 31                       @ ../../Library/StdDriver/src/i2c.c:1579:31
	strb	r0, [r1, r2]
.Ltmp323:
	.loc	2 1581 17 is_stmt 1             @ ../../Library/StdDriver/src/i2c.c:1581:17
	ldr	r0, [sp, #12]
	.loc	2 1581 29 is_stmt 0             @ ../../Library/StdDriver/src/i2c.c:1581:29
	ldr	r1, [sp, #52]
	.loc	2 1581 37                       @ ../../Library/StdDriver/src/i2c.c:1581:37
	subs	r1, r1, #1
.Ltmp324:
	.loc	2 1581 17                       @ ../../Library/StdDriver/src/i2c.c:1581:17
	cmp	r0, r1
	bhs	.LBB37_21
	b	.LBB37_20
.LBB37_20:                              @   in Loop: Header=BB37_1 Depth=1
	.loc	2 0 17                          @ ../../Library/StdDriver/src/i2c.c:0:17
	add	r1, sp, #16
	movs	r0, #12
.Ltmp325:
	.loc	2 1582 24 is_stmt 1             @ ../../Library/StdDriver/src/i2c.c:1582:24
	strb	r0, [r1]
	.loc	2 1582 17 is_stmt 0             @ ../../Library/StdDriver/src/i2c.c:1582:17
	b	.LBB37_22
.LBB37_21:                              @   in Loop: Header=BB37_1 Depth=1
	.loc	2 0 17                          @ ../../Library/StdDriver/src/i2c.c:0:17
	add	r1, sp, #16
	movs	r0, #8
	.loc	2 1584 24 is_stmt 1             @ ../../Library/StdDriver/src/i2c.c:1584:24
	strb	r0, [r1]
	b	.LBB37_22
.Ltmp326:
.LBB37_22:                              @   in Loop: Header=BB37_1 Depth=1
	.loc	2 1586 13                       @ ../../Library/StdDriver/src/i2c.c:1586:13
	b	.LBB37_26
.LBB37_23:                              @   in Loop: Header=BB37_1 Depth=1
	.loc	2 1589 43                       @ ../../Library/StdDriver/src/i2c.c:1589:43
	ldr	r0, [sp, #40]
	ldr	r0, [r0, #8]
	.loc	2 1589 13 is_stmt 0             @ ../../Library/StdDriver/src/i2c.c:1589:13
	ldr	r1, [sp, #28]
	.loc	2 1589 27                       @ ../../Library/StdDriver/src/i2c.c:1589:27
	ldr	r2, [sp, #12]
	adds	r3, r2, #1
	str	r3, [sp, #12]
	.loc	2 1589 31                       @ ../../Library/StdDriver/src/i2c.c:1589:31
	strb	r0, [r1, r2]
	add	r1, sp, #16
	movs	r0, #24
	.loc	2 1590 20 is_stmt 1             @ ../../Library/StdDriver/src/i2c.c:1590:20
	strb	r0, [r1]
	add	r1, sp, #24
	movs	r0, #0
	.loc	2 1591 23                       @ ../../Library/StdDriver/src/i2c.c:1591:23
	strb	r0, [r1]
	.loc	2 1592 13                       @ ../../Library/StdDriver/src/i2c.c:1592:13
	b	.LBB37_26
.LBB37_24:                              @   in Loop: Header=BB37_1 Depth=1
	b	.LBB37_25
.LBB37_25:                              @   in Loop: Header=BB37_1 Depth=1
	.loc	2 1596 13                       @ ../../Library/StdDriver/src/i2c.c:1596:13
	ldr	r0, [sp, #40]
	ldr	r0, [r0]
	movs	r1, #24
	orrs	r0, r1
	movs	r1, #36
	bics	r0, r1
	ldr	r1, [sp, #40]
	str	r0, [r1]
	add	r1, sp, #16
	movs	r0, #8
	.loc	2 1597 20                       @ ../../Library/StdDriver/src/i2c.c:1597:20
	strb	r0, [r1]
	add	r1, sp, #20
	movs	r0, #1
	.loc	2 1598 19                       @ ../../Library/StdDriver/src/i2c.c:1598:19
	strb	r0, [r1]
	.loc	2 1599 13                       @ ../../Library/StdDriver/src/i2c.c:1599:13
	b	.LBB37_26
.Ltmp327:
.LBB37_26:                              @   in Loop: Header=BB37_1 Depth=1
	.loc	2 1602 9                        @ ../../Library/StdDriver/src/i2c.c:1602:9
	ldr	r0, [sp, #40]
	ldr	r0, [r0]
	movs	r1, #60
	bics	r0, r1
	add	r1, sp, #16
	ldrb	r1, [r1]
	orrs	r0, r1
	ldr	r1, [sp, #40]
	str	r0, [r1]
.Ltmp328:
	.loc	2 1530 5                        @ ../../Library/StdDriver/src/i2c.c:1530:5
	b	.LBB37_1
.LBB37_27:
	.loc	2 1605 23                       @ ../../Library/StdDriver/src/i2c.c:1605:23
	ldr	r0, __arm_cp.37_1
	ldr	r0, [r0]
	.loc	2 1605 21 is_stmt 0             @ ../../Library/StdDriver/src/i2c.c:1605:21
	str	r0, [sp, #8]
	.loc	2 1606 5 is_stmt 1              @ ../../Library/StdDriver/src/i2c.c:1606:5
	b	.LBB37_28
.LBB37_28:                              @ =>This Inner Loop Header: Depth=1
	.loc	2 1606 13 is_stmt 0             @ ../../Library/StdDriver/src/i2c.c:1606:13
	ldr	r0, [sp, #40]
	.loc	2 1606 19                       @ ../../Library/StdDriver/src/i2c.c:1606:19
	ldr	r0, [r0]
	.loc	2 1606 5                        @ ../../Library/StdDriver/src/i2c.c:1606:5
	lsls	r0, r0, #27
	cmp	r0, #0
	bpl	.LBB37_32
	b	.LBB37_29
.LBB37_29:                              @   in Loop: Header=BB37_28 Depth=1
.Ltmp329:
	.loc	2 1608 24 is_stmt 1             @ ../../Library/StdDriver/src/i2c.c:1608:24
	ldr	r0, [sp, #8]
	subs	r0, r0, #1
	str	r0, [sp, #8]
.Ltmp330:
	.loc	2 1609 12                       @ ../../Library/StdDriver/src/i2c.c:1609:12
	ldr	r0, [sp, #8]
.Ltmp331:
	.loc	2 1609 12 is_stmt 0             @ ../../Library/StdDriver/src/i2c.c:1609:12
	cmp	r0, #0
	bne	.LBB37_31
	b	.LBB37_30
.LBB37_30:
.Ltmp332:
	.loc	2 1611 30 is_stmt 1             @ ../../Library/StdDriver/src/i2c.c:1611:30
	ldr	r1, __arm_cp.37_0
	movs	r0, #0
	mvns	r0, r0
	str	r0, [r1]
	.loc	2 1612 13                       @ ../../Library/StdDriver/src/i2c.c:1612:13
	b	.LBB37_32
.Ltmp333:
.LBB37_31:                              @   in Loop: Header=BB37_28 Depth=1
	.loc	2 1606 5                        @ ../../Library/StdDriver/src/i2c.c:1606:5
	b	.LBB37_28
.LBB37_32:
	.loc	2 1616 12                       @ ../../Library/StdDriver/src/i2c.c:1616:12
	ldr	r0, [sp, #12]
	.loc	2 1616 5 is_stmt 0              @ ../../Library/StdDriver/src/i2c.c:1616:5
	add	sp, #44
	pop	{r4, pc}
.Ltmp334:
	.p2align	2
@ %bb.33:
	.loc	2 0 5                           @ ../../Library/StdDriver/src/i2c.c:0:5
__arm_cp.37_0:
	.long	g_I2C_i32ErrCode
.Lcpi_end24:
	.size	__arm_cp.37_0, .Lcpi_end24-__arm_cp.37_0
__arm_cp.37_1:
	.long	SystemCoreClock
.Lcpi_end25:
	.size	__arm_cp.37_1, .Lcpi_end25-__arm_cp.37_1
.Lfunc_end37:
	.size	I2C_ReadMultiBytesOneReg, .Lfunc_end37-I2C_ReadMultiBytesOneReg
	.cfi_endproc
	.cantunwind
	.fnend
                                        @ -- End function
	.section	.text.I2C_ReadByteTwoRegs,"ax",%progbits
	.hidden	I2C_ReadByteTwoRegs             @ -- Begin function I2C_ReadByteTwoRegs
	.globl	I2C_ReadByteTwoRegs
	.p2align	2
	.type	I2C_ReadByteTwoRegs,%function
	.code	16                              @ @I2C_ReadByteTwoRegs
	.thumb_func
I2C_ReadByteTwoRegs:
.Lfunc_begin38:
	.loc	2 1633 0 is_stmt 1              @ ../../Library/StdDriver/src/i2c.c:1633:0
	.fnstart
	.cfi_startproc
@ %bb.0:
	.pad	#44
	sub	sp, #44
	.cfi_def_cfa_offset 44
                                        @ kill: def $r3 killed $r2
                                        @ kill: def $r3 killed $r1
	str	r0, [sp, #40]
	add	r0, sp, #36
	strb	r1, [r0]
	add	r0, sp, #32
	strh	r2, [r0]
	add	r0, sp, #28
	movs	r1, #1
.Ltmp335:
	.loc	2 1634 13 prologue_end          @ ../../Library/StdDriver/src/i2c.c:1634:13
	strb	r1, [r0]
	add	r2, sp, #24
	movs	r0, #0
	.loc	2 1634 29 is_stmt 0             @ ../../Library/StdDriver/src/i2c.c:1634:29
	strb	r0, [r2]
	add	r2, sp, #20
	.loc	2 1634 41                       @ ../../Library/StdDriver/src/i2c.c:1634:41
	strb	r0, [r2]
	add	r2, sp, #16
	.loc	2 1634 53                       @ ../../Library/StdDriver/src/i2c.c:1634:53
	strb	r1, [r2]
	add	r1, sp, #12
	.loc	2 1634 66                       @ ../../Library/StdDriver/src/i2c.c:1634:66
	strb	r0, [r1]
	.loc	2 1637 22 is_stmt 1             @ ../../Library/StdDriver/src/i2c.c:1637:22
	ldr	r1, __arm_cp.38_0
	str	r0, [r1]
	.loc	2 1639 5                        @ ../../Library/StdDriver/src/i2c.c:1639:5
	ldr	r0, [sp, #40]
	ldr	r0, [r0]
	movs	r1, #40
	orrs	r0, r1
	ldr	r1, [sp, #40]
	str	r0, [r1]
	.loc	2 1641 5                        @ ../../Library/StdDriver/src/i2c.c:1641:5
	b	.LBB38_1
.LBB38_1:                               @ =>This Loop Header: Depth=1
                                        @     Child Loop BB38_5 Depth 2
	.loc	2 0 5 is_stmt 0                 @ ../../Library/StdDriver/src/i2c.c:0:5
	add	r0, sp, #28
	.loc	2 1641 12                       @ ../../Library/StdDriver/src/i2c.c:1641:12
	ldrb	r1, [r0]
	movs	r0, #0
	.loc	2 1641 22                       @ ../../Library/StdDriver/src/i2c.c:1641:22
	cmp	r1, #0
	str	r0, [sp, #4]                    @ 4-byte Spill
	beq	.LBB38_3
	b	.LBB38_2
.LBB38_2:                               @   in Loop: Header=BB38_1 Depth=1
	.loc	2 0 22                          @ ../../Library/StdDriver/src/i2c.c:0:22
	add	r0, sp, #24
	.loc	2 1641 26                       @ ../../Library/StdDriver/src/i2c.c:1641:26
	ldrb	r0, [r0]
	.loc	2 1641 32                       @ ../../Library/StdDriver/src/i2c.c:1641:32
	rsbs	r1, r0, #0
	adcs	r0, r1
	str	r0, [sp, #4]                    @ 4-byte Spill
	b	.LBB38_3
.LBB38_3:                               @   in Loop: Header=BB38_1 Depth=1
	.loc	2 0 0                           @ ../../Library/StdDriver/src/i2c.c:0:0
	ldr	r0, [sp, #4]                    @ 4-byte Reload
	.loc	2 1641 5                        @ ../../Library/StdDriver/src/i2c.c:1641:5
	lsls	r0, r0, #31
	cmp	r0, #0
	bne	.LBB38_4
	b	.LBB38_26
.LBB38_4:                               @   in Loop: Header=BB38_1 Depth=1
.Ltmp336:
	.loc	2 1643 27 is_stmt 1             @ ../../Library/StdDriver/src/i2c.c:1643:27
	ldr	r0, __arm_cp.38_1
	ldr	r0, [r0]
	.loc	2 1643 25 is_stmt 0             @ ../../Library/StdDriver/src/i2c.c:1643:25
	str	r0, [sp, #8]
	.loc	2 1644 9 is_stmt 1              @ ../../Library/StdDriver/src/i2c.c:1644:9
	b	.LBB38_5
.LBB38_5:                               @   Parent Loop BB38_1 Depth=1
                                        @ =>  This Inner Loop Header: Depth=2
	ldr	r0, [sp, #40]
	ldr	r0, [r0]
	lsls	r0, r0, #28
	cmp	r0, #0
	bmi	.LBB38_9
	b	.LBB38_6
.LBB38_6:                               @   in Loop: Header=BB38_5 Depth=2
.Ltmp337:
	.loc	2 1646 28                       @ ../../Library/StdDriver/src/i2c.c:1646:28
	ldr	r0, [sp, #8]
	subs	r0, r0, #1
	str	r0, [sp, #8]
.Ltmp338:
	.loc	2 1647 16                       @ ../../Library/StdDriver/src/i2c.c:1647:16
	ldr	r0, [sp, #8]
.Ltmp339:
	.loc	2 1647 16 is_stmt 0             @ ../../Library/StdDriver/src/i2c.c:1647:16
	cmp	r0, #0
	bne	.LBB38_8
	b	.LBB38_7
.LBB38_7:                               @   in Loop: Header=BB38_1 Depth=1
.Ltmp340:
	.loc	2 1649 34 is_stmt 1             @ ../../Library/StdDriver/src/i2c.c:1649:34
	ldr	r1, __arm_cp.38_0
	movs	r0, #0
	mvns	r0, r0
	str	r0, [r1]
	.loc	2 1650 17                       @ ../../Library/StdDriver/src/i2c.c:1650:17
	b	.LBB38_9
.Ltmp341:
.LBB38_8:                               @   in Loop: Header=BB38_5 Depth=2
	.loc	2 1644 9                        @ ../../Library/StdDriver/src/i2c.c:1644:9
	b	.LBB38_5
.LBB38_9:                               @   in Loop: Header=BB38_1 Depth=1
	.loc	2 1654 17                       @ ../../Library/StdDriver/src/i2c.c:1654:17
	ldr	r0, [sp, #40]
	ldr	r0, [r0, #12]
	.loc	2 1654 9 is_stmt 0              @ ../../Library/StdDriver/src/i2c.c:1654:9
	subs	r0, #8
	str	r0, [sp]                        @ 4-byte Spill
	cmp	r0, #80
	bls	.LBB38_10
	b	.LBB38_24
.LBB38_10:                              @   in Loop: Header=BB38_1 Depth=1
	.loc	2 0 9                           @ ../../Library/StdDriver/src/i2c.c:0:9
	ldr	r0, [sp]                        @ 4-byte Reload
	lsls	r1, r0, #2
	adr	r0, .LJTI38_0
	ldr	r0, [r0, r1]
	mov	pc, r0
@ %bb.11:
	.p2align	2
.LJTI38_0:
	.long	.LBB38_12+1
	.long	.LBB38_24+1
	.long	.LBB38_24+1
	.long	.LBB38_24+1
	.long	.LBB38_24+1
	.long	.LBB38_24+1
	.long	.LBB38_24+1
	.long	.LBB38_24+1
	.long	.LBB38_19+1
	.long	.LBB38_24+1
	.long	.LBB38_24+1
	.long	.LBB38_24+1
	.long	.LBB38_24+1
	.long	.LBB38_24+1
	.long	.LBB38_24+1
	.long	.LBB38_24+1
	.long	.LBB38_13+1
	.long	.LBB38_24+1
	.long	.LBB38_24+1
	.long	.LBB38_24+1
	.long	.LBB38_24+1
	.long	.LBB38_24+1
	.long	.LBB38_24+1
	.long	.LBB38_24+1
	.long	.LBB38_14+1
	.long	.LBB38_24+1
	.long	.LBB38_24+1
	.long	.LBB38_24+1
	.long	.LBB38_24+1
	.long	.LBB38_24+1
	.long	.LBB38_24+1
	.long	.LBB38_24+1
	.long	.LBB38_15+1
	.long	.LBB38_24+1
	.long	.LBB38_24+1
	.long	.LBB38_24+1
	.long	.LBB38_24+1
	.long	.LBB38_24+1
	.long	.LBB38_24+1
	.long	.LBB38_24+1
	.long	.LBB38_14+1
	.long	.LBB38_24+1
	.long	.LBB38_24+1
	.long	.LBB38_24+1
	.long	.LBB38_24+1
	.long	.LBB38_24+1
	.long	.LBB38_24+1
	.long	.LBB38_24+1
	.long	.LBB38_23+1
	.long	.LBB38_24+1
	.long	.LBB38_24+1
	.long	.LBB38_24+1
	.long	.LBB38_24+1
	.long	.LBB38_24+1
	.long	.LBB38_24+1
	.long	.LBB38_24+1
	.long	.LBB38_20+1
	.long	.LBB38_24+1
	.long	.LBB38_24+1
	.long	.LBB38_24+1
	.long	.LBB38_24+1
	.long	.LBB38_24+1
	.long	.LBB38_24+1
	.long	.LBB38_24+1
	.long	.LBB38_21+1
	.long	.LBB38_24+1
	.long	.LBB38_24+1
	.long	.LBB38_24+1
	.long	.LBB38_24+1
	.long	.LBB38_24+1
	.long	.LBB38_24+1
	.long	.LBB38_24+1
	.long	.LBB38_24+1
	.long	.LBB38_24+1
	.long	.LBB38_24+1
	.long	.LBB38_24+1
	.long	.LBB38_24+1
	.long	.LBB38_24+1
	.long	.LBB38_24+1
	.long	.LBB38_24+1
	.long	.LBB38_22+1
.LBB38_12:                              @   in Loop: Header=BB38_1 Depth=1
.Ltmp342:
	.loc	2 1657 13 is_stmt 1             @ ../../Library/StdDriver/src/i2c.c:1657:13
	ldr	r0, [sp, #36]
	lsls	r0, r0, #25
	lsrs	r0, r0, #24
	ldr	r1, [sp, #40]
	str	r0, [r1, #8]
	add	r1, sp, #12
	movs	r0, #8
	.loc	2 1658 20                       @ ../../Library/StdDriver/src/i2c.c:1658:20
	strb	r0, [r1]
	.loc	2 1659 13                       @ ../../Library/StdDriver/src/i2c.c:1659:13
	b	.LBB38_25
.LBB38_13:                              @   in Loop: Header=BB38_1 Depth=1
	.loc	2 0 13 is_stmt 0                @ ../../Library/StdDriver/src/i2c.c:0:13
	add	r0, sp, #32
	.loc	2 1662 13 is_stmt 1             @ ../../Library/StdDriver/src/i2c.c:1662:13
	ldrb	r0, [r0, #1]
	ldr	r1, [sp, #40]
	str	r0, [r1, #8]
	.loc	2 1663 13                       @ ../../Library/StdDriver/src/i2c.c:1663:13
	b	.LBB38_25
.LBB38_14:                              @   in Loop: Header=BB38_1 Depth=1
	.loc	2 0 13 is_stmt 0                @ ../../Library/StdDriver/src/i2c.c:0:13
	add	r1, sp, #12
	movs	r0, #24
	.loc	2 1667 20 is_stmt 1             @ ../../Library/StdDriver/src/i2c.c:1667:20
	strb	r0, [r1]
	add	r1, sp, #24
	movs	r0, #1
	.loc	2 1668 19                       @ ../../Library/StdDriver/src/i2c.c:1668:19
	strb	r0, [r1]
	.loc	2 1669 13                       @ ../../Library/StdDriver/src/i2c.c:1669:13
	b	.LBB38_25
.LBB38_15:                              @   in Loop: Header=BB38_1 Depth=1
	.loc	2 0 13 is_stmt 0                @ ../../Library/StdDriver/src/i2c.c:0:13
	add	r0, sp, #16
.Ltmp343:
	.loc	2 1672 17 is_stmt 1             @ ../../Library/StdDriver/src/i2c.c:1672:17
	ldrb	r0, [r0]
.Ltmp344:
	.loc	2 1672 17 is_stmt 0             @ ../../Library/StdDriver/src/i2c.c:1672:17
	cmp	r0, #0
	beq	.LBB38_17
	b	.LBB38_16
.LBB38_16:                              @   in Loop: Header=BB38_1 Depth=1
	.loc	2 0 17                          @ ../../Library/StdDriver/src/i2c.c:0:17
	add	r0, sp, #32
.Ltmp345:
	.loc	2 1674 17 is_stmt 1             @ ../../Library/StdDriver/src/i2c.c:1674:17
	ldrb	r0, [r0]
	ldr	r1, [sp, #40]
	str	r0, [r1, #8]
	add	r1, sp, #16
	movs	r0, #0
	.loc	2 1675 24                       @ ../../Library/StdDriver/src/i2c.c:1675:24
	strb	r0, [r1]
	.loc	2 1676 13                       @ ../../Library/StdDriver/src/i2c.c:1676:13
	b	.LBB38_18
.Ltmp346:
.LBB38_17:                              @   in Loop: Header=BB38_1 Depth=1
	.loc	2 0 13 is_stmt 0                @ ../../Library/StdDriver/src/i2c.c:0:13
	add	r1, sp, #12
	movs	r0, #40
	.loc	2 1678 24 is_stmt 1             @ ../../Library/StdDriver/src/i2c.c:1678:24
	strb	r0, [r1]
	b	.LBB38_18
.Ltmp347:
.LBB38_18:                              @   in Loop: Header=BB38_1 Depth=1
	.loc	2 1680 13                       @ ../../Library/StdDriver/src/i2c.c:1680:13
	b	.LBB38_25
.LBB38_19:                              @   in Loop: Header=BB38_1 Depth=1
	.loc	2 1683 13                       @ ../../Library/StdDriver/src/i2c.c:1683:13
	ldr	r0, [sp, #36]
	lsls	r0, r0, #1
	adds	r0, r0, #1
	uxtb	r0, r0
	ldr	r1, [sp, #40]
	str	r0, [r1, #8]
	add	r1, sp, #12
	movs	r0, #8
	.loc	2 1684 20                       @ ../../Library/StdDriver/src/i2c.c:1684:20
	strb	r0, [r1]
	.loc	2 1685 13                       @ ../../Library/StdDriver/src/i2c.c:1685:13
	b	.LBB38_25
.LBB38_20:                              @   in Loop: Header=BB38_1 Depth=1
	.loc	2 0 13 is_stmt 0                @ ../../Library/StdDriver/src/i2c.c:0:13
	add	r1, sp, #12
	movs	r0, #8
	.loc	2 1688 20 is_stmt 1             @ ../../Library/StdDriver/src/i2c.c:1688:20
	strb	r0, [r1]
	.loc	2 1689 13                       @ ../../Library/StdDriver/src/i2c.c:1689:13
	b	.LBB38_25
.LBB38_21:                              @   in Loop: Header=BB38_1 Depth=1
	.loc	2 0 13 is_stmt 0                @ ../../Library/StdDriver/src/i2c.c:0:13
	add	r1, sp, #12
	movs	r0, #24
	.loc	2 1692 20 is_stmt 1             @ ../../Library/StdDriver/src/i2c.c:1692:20
	strb	r0, [r1]
	add	r1, sp, #24
	movs	r0, #1
	.loc	2 1693 19                       @ ../../Library/StdDriver/src/i2c.c:1693:19
	strb	r0, [r1]
	.loc	2 1694 13                       @ ../../Library/StdDriver/src/i2c.c:1694:13
	b	.LBB38_25
.LBB38_22:                              @   in Loop: Header=BB38_1 Depth=1
	.loc	2 1697 31                       @ ../../Library/StdDriver/src/i2c.c:1697:31
	ldr	r0, [sp, #40]
	ldr	r0, [r0, #8]
	add	r1, sp, #20
	.loc	2 1697 19 is_stmt 0             @ ../../Library/StdDriver/src/i2c.c:1697:19
	strb	r0, [r1]
	add	r1, sp, #12
	movs	r0, #24
	.loc	2 1698 20 is_stmt 1             @ ../../Library/StdDriver/src/i2c.c:1698:20
	strb	r0, [r1]
	add	r1, sp, #28
	movs	r0, #0
	.loc	2 1699 23                       @ ../../Library/StdDriver/src/i2c.c:1699:23
	strb	r0, [r1]
	.loc	2 1700 13                       @ ../../Library/StdDriver/src/i2c.c:1700:13
	b	.LBB38_25
.LBB38_23:                              @   in Loop: Header=BB38_1 Depth=1
	b	.LBB38_24
.LBB38_24:                              @   in Loop: Header=BB38_1 Depth=1
	.loc	2 1704 13                       @ ../../Library/StdDriver/src/i2c.c:1704:13
	ldr	r0, [sp, #40]
	ldr	r0, [r0]
	movs	r1, #24
	orrs	r0, r1
	movs	r1, #36
	bics	r0, r1
	ldr	r1, [sp, #40]
	str	r0, [r1]
	add	r1, sp, #12
	movs	r0, #8
	.loc	2 1705 20                       @ ../../Library/StdDriver/src/i2c.c:1705:20
	strb	r0, [r1]
	add	r1, sp, #24
	movs	r0, #1
	.loc	2 1706 19                       @ ../../Library/StdDriver/src/i2c.c:1706:19
	strb	r0, [r1]
	.loc	2 1707 13                       @ ../../Library/StdDriver/src/i2c.c:1707:13
	b	.LBB38_25
.Ltmp348:
.LBB38_25:                              @   in Loop: Header=BB38_1 Depth=1
	.loc	2 1710 9                        @ ../../Library/StdDriver/src/i2c.c:1710:9
	ldr	r0, [sp, #40]
	ldr	r0, [r0]
	movs	r1, #60
	bics	r0, r1
	add	r1, sp, #12
	ldrb	r1, [r1]
	orrs	r0, r1
	ldr	r1, [sp, #40]
	str	r0, [r1]
.Ltmp349:
	.loc	2 1641 5                        @ ../../Library/StdDriver/src/i2c.c:1641:5
	b	.LBB38_1
.LBB38_26:
	.loc	2 1713 23                       @ ../../Library/StdDriver/src/i2c.c:1713:23
	ldr	r0, __arm_cp.38_1
	ldr	r0, [r0]
	.loc	2 1713 21 is_stmt 0             @ ../../Library/StdDriver/src/i2c.c:1713:21
	str	r0, [sp, #8]
	.loc	2 1714 5 is_stmt 1              @ ../../Library/StdDriver/src/i2c.c:1714:5
	b	.LBB38_27
.LBB38_27:                              @ =>This Inner Loop Header: Depth=1
	.loc	2 1714 13 is_stmt 0             @ ../../Library/StdDriver/src/i2c.c:1714:13
	ldr	r0, [sp, #40]
	.loc	2 1714 19                       @ ../../Library/StdDriver/src/i2c.c:1714:19
	ldr	r0, [r0]
	.loc	2 1714 5                        @ ../../Library/StdDriver/src/i2c.c:1714:5
	lsls	r0, r0, #27
	cmp	r0, #0
	bpl	.LBB38_31
	b	.LBB38_28
.LBB38_28:                              @   in Loop: Header=BB38_27 Depth=1
.Ltmp350:
	.loc	2 1716 24 is_stmt 1             @ ../../Library/StdDriver/src/i2c.c:1716:24
	ldr	r0, [sp, #8]
	subs	r0, r0, #1
	str	r0, [sp, #8]
.Ltmp351:
	.loc	2 1717 12                       @ ../../Library/StdDriver/src/i2c.c:1717:12
	ldr	r0, [sp, #8]
.Ltmp352:
	.loc	2 1717 12 is_stmt 0             @ ../../Library/StdDriver/src/i2c.c:1717:12
	cmp	r0, #0
	bne	.LBB38_30
	b	.LBB38_29
.LBB38_29:
.Ltmp353:
	.loc	2 1719 30 is_stmt 1             @ ../../Library/StdDriver/src/i2c.c:1719:30
	ldr	r1, __arm_cp.38_0
	movs	r0, #0
	mvns	r0, r0
	str	r0, [r1]
	.loc	2 1720 13                       @ ../../Library/StdDriver/src/i2c.c:1720:13
	b	.LBB38_31
.Ltmp354:
.LBB38_30:                              @   in Loop: Header=BB38_27 Depth=1
	.loc	2 1714 5                        @ ../../Library/StdDriver/src/i2c.c:1714:5
	b	.LBB38_27
.LBB38_31:
	.loc	2 0 5 is_stmt 0                 @ ../../Library/StdDriver/src/i2c.c:0:5
	add	r0, sp, #24
.Ltmp355:
	.loc	2 1724 9 is_stmt 1              @ ../../Library/StdDriver/src/i2c.c:1724:9
	ldrb	r0, [r0]
.Ltmp356:
	.loc	2 1724 9 is_stmt 0              @ ../../Library/StdDriver/src/i2c.c:1724:9
	cmp	r0, #0
	beq	.LBB38_33
	b	.LBB38_32
.LBB38_32:
	.loc	2 0 9                           @ ../../Library/StdDriver/src/i2c.c:0:9
	add	r1, sp, #20
	movs	r0, #0
.Ltmp357:
	.loc	2 1725 15 is_stmt 1             @ ../../Library/StdDriver/src/i2c.c:1725:15
	strb	r0, [r1]
	.loc	2 1725 9 is_stmt 0              @ ../../Library/StdDriver/src/i2c.c:1725:9
	b	.LBB38_33
.Ltmp358:
.LBB38_33:
	.loc	2 0 9                           @ ../../Library/StdDriver/src/i2c.c:0:9
	add	r0, sp, #20
	.loc	2 1727 12 is_stmt 1             @ ../../Library/StdDriver/src/i2c.c:1727:12
	ldrb	r0, [r0]
	.loc	2 1727 5 is_stmt 0              @ ../../Library/StdDriver/src/i2c.c:1727:5
	add	sp, #44
	bx	lr
.Ltmp359:
	.p2align	2
@ %bb.34:
	.loc	2 0 5                           @ ../../Library/StdDriver/src/i2c.c:0:5
__arm_cp.38_0:
	.long	g_I2C_i32ErrCode
.Lcpi_end26:
	.size	__arm_cp.38_0, .Lcpi_end26-__arm_cp.38_0
__arm_cp.38_1:
	.long	SystemCoreClock
.Lcpi_end27:
	.size	__arm_cp.38_1, .Lcpi_end27-__arm_cp.38_1
.Lfunc_end38:
	.size	I2C_ReadByteTwoRegs, .Lfunc_end38-I2C_ReadByteTwoRegs
	.cfi_endproc
	.cantunwind
	.fnend
                                        @ -- End function
	.section	.text.I2C_ReadMultiBytesTwoRegs,"ax",%progbits
	.hidden	I2C_ReadMultiBytesTwoRegs       @ -- Begin function I2C_ReadMultiBytesTwoRegs
	.globl	I2C_ReadMultiBytesTwoRegs
	.p2align	2
	.type	I2C_ReadMultiBytesTwoRegs,%function
	.code	16                              @ @I2C_ReadMultiBytesTwoRegs
	.thumb_func
I2C_ReadMultiBytesTwoRegs:
.Lfunc_begin39:
	.loc	2 1746 0 is_stmt 1              @ ../../Library/StdDriver/src/i2c.c:1746:0
	.fnstart
	.cfi_startproc
@ %bb.0:
	.save	{r4, lr}
	push	{r4, lr}
	.cfi_def_cfa_offset 8
	.cfi_offset lr, -4
	.cfi_offset r4, -8
	.pad	#48
	sub	sp, #48
	.cfi_def_cfa_offset 56
	ldr	r4, [sp, #56]
                                        @ kill: def $r4 killed $r2
                                        @ kill: def $r4 killed $r1
	str	r0, [sp, #44]
	add	r0, sp, #40
	strb	r1, [r0]
	add	r0, sp, #36
	strh	r2, [r0]
	str	r3, [sp, #32]
	add	r0, sp, #28
	movs	r1, #1
.Ltmp360:
	.loc	2 1747 13 prologue_end          @ ../../Library/StdDriver/src/i2c.c:1747:13
	strb	r1, [r0]
	add	r2, sp, #24
	movs	r0, #0
	.loc	2 1747 29 is_stmt 0             @ ../../Library/StdDriver/src/i2c.c:1747:29
	strb	r0, [r2]
	add	r2, sp, #20
	.loc	2 1747 41                       @ ../../Library/StdDriver/src/i2c.c:1747:41
	strb	r1, [r2]
	add	r1, sp, #16
	.loc	2 1747 54                       @ ../../Library/StdDriver/src/i2c.c:1747:54
	strb	r0, [r1]
	.loc	2 1748 14 is_stmt 1             @ ../../Library/StdDriver/src/i2c.c:1748:14
	str	r0, [sp, #12]
	.loc	2 1751 22                       @ ../../Library/StdDriver/src/i2c.c:1751:22
	ldr	r1, __arm_cp.39_0
	str	r0, [r1]
	.loc	2 1753 5                        @ ../../Library/StdDriver/src/i2c.c:1753:5
	ldr	r0, [sp, #44]
	ldr	r0, [r0]
	movs	r1, #40
	orrs	r0, r1
	ldr	r1, [sp, #44]
	str	r0, [r1]
	.loc	2 1755 5                        @ ../../Library/StdDriver/src/i2c.c:1755:5
	b	.LBB39_1
.LBB39_1:                               @ =>This Loop Header: Depth=1
                                        @     Child Loop BB39_5 Depth 2
	.loc	2 0 5 is_stmt 0                 @ ../../Library/StdDriver/src/i2c.c:0:5
	add	r0, sp, #28
	.loc	2 1755 12                       @ ../../Library/StdDriver/src/i2c.c:1755:12
	ldrb	r1, [r0]
	movs	r0, #0
	.loc	2 1755 22                       @ ../../Library/StdDriver/src/i2c.c:1755:22
	cmp	r1, #0
	str	r0, [sp, #4]                    @ 4-byte Spill
	beq	.LBB39_3
	b	.LBB39_2
.LBB39_2:                               @   in Loop: Header=BB39_1 Depth=1
	.loc	2 0 22                          @ ../../Library/StdDriver/src/i2c.c:0:22
	add	r0, sp, #24
	.loc	2 1755 26                       @ ../../Library/StdDriver/src/i2c.c:1755:26
	ldrb	r0, [r0]
	.loc	2 1755 32                       @ ../../Library/StdDriver/src/i2c.c:1755:32
	rsbs	r1, r0, #0
	adcs	r0, r1
	str	r0, [sp, #4]                    @ 4-byte Spill
	b	.LBB39_3
.LBB39_3:                               @   in Loop: Header=BB39_1 Depth=1
	.loc	2 0 0                           @ ../../Library/StdDriver/src/i2c.c:0:0
	ldr	r0, [sp, #4]                    @ 4-byte Reload
	.loc	2 1755 5                        @ ../../Library/StdDriver/src/i2c.c:1755:5
	lsls	r0, r0, #31
	cmp	r0, #0
	bne	.LBB39_4
	b	.LBB39_30
.LBB39_4:                               @   in Loop: Header=BB39_1 Depth=1
.Ltmp361:
	.loc	2 1757 27 is_stmt 1             @ ../../Library/StdDriver/src/i2c.c:1757:27
	ldr	r0, __arm_cp.39_1
	ldr	r0, [r0]
	.loc	2 1757 25 is_stmt 0             @ ../../Library/StdDriver/src/i2c.c:1757:25
	str	r0, [sp, #8]
	.loc	2 1758 9 is_stmt 1              @ ../../Library/StdDriver/src/i2c.c:1758:9
	b	.LBB39_5
.LBB39_5:                               @   Parent Loop BB39_1 Depth=1
                                        @ =>  This Inner Loop Header: Depth=2
	ldr	r0, [sp, #44]
	ldr	r0, [r0]
	lsls	r0, r0, #28
	cmp	r0, #0
	bmi	.LBB39_9
	b	.LBB39_6
.LBB39_6:                               @   in Loop: Header=BB39_5 Depth=2
.Ltmp362:
	.loc	2 1760 28                       @ ../../Library/StdDriver/src/i2c.c:1760:28
	ldr	r0, [sp, #8]
	subs	r0, r0, #1
	str	r0, [sp, #8]
.Ltmp363:
	.loc	2 1761 16                       @ ../../Library/StdDriver/src/i2c.c:1761:16
	ldr	r0, [sp, #8]
.Ltmp364:
	.loc	2 1761 16 is_stmt 0             @ ../../Library/StdDriver/src/i2c.c:1761:16
	cmp	r0, #0
	bne	.LBB39_8
	b	.LBB39_7
.LBB39_7:                               @   in Loop: Header=BB39_1 Depth=1
.Ltmp365:
	.loc	2 1763 34 is_stmt 1             @ ../../Library/StdDriver/src/i2c.c:1763:34
	ldr	r1, __arm_cp.39_0
	movs	r0, #0
	mvns	r0, r0
	str	r0, [r1]
	.loc	2 1764 17                       @ ../../Library/StdDriver/src/i2c.c:1764:17
	b	.LBB39_9
.Ltmp366:
.LBB39_8:                               @   in Loop: Header=BB39_5 Depth=2
	.loc	2 1758 9                        @ ../../Library/StdDriver/src/i2c.c:1758:9
	b	.LBB39_5
.LBB39_9:                               @   in Loop: Header=BB39_1 Depth=1
	.loc	2 1768 17                       @ ../../Library/StdDriver/src/i2c.c:1768:17
	ldr	r0, [sp, #44]
	ldr	r0, [r0, #12]
	.loc	2 1768 9 is_stmt 0              @ ../../Library/StdDriver/src/i2c.c:1768:9
	subs	r0, #8
	str	r0, [sp]                        @ 4-byte Spill
	cmp	r0, #80
	bls	.LBB39_10
	b	.LBB39_28
.LBB39_10:                              @   in Loop: Header=BB39_1 Depth=1
	.loc	2 0 9                           @ ../../Library/StdDriver/src/i2c.c:0:9
	ldr	r0, [sp]                        @ 4-byte Reload
	lsls	r1, r0, #2
	adr	r0, .LJTI39_0
	ldr	r0, [r0, r1]
	mov	pc, r0
@ %bb.11:
	.p2align	2
.LJTI39_0:
	.long	.LBB39_12+1
	.long	.LBB39_28+1
	.long	.LBB39_28+1
	.long	.LBB39_28+1
	.long	.LBB39_28+1
	.long	.LBB39_28+1
	.long	.LBB39_28+1
	.long	.LBB39_28+1
	.long	.LBB39_19+1
	.long	.LBB39_28+1
	.long	.LBB39_28+1
	.long	.LBB39_28+1
	.long	.LBB39_28+1
	.long	.LBB39_28+1
	.long	.LBB39_28+1
	.long	.LBB39_28+1
	.long	.LBB39_13+1
	.long	.LBB39_28+1
	.long	.LBB39_28+1
	.long	.LBB39_28+1
	.long	.LBB39_28+1
	.long	.LBB39_28+1
	.long	.LBB39_28+1
	.long	.LBB39_28+1
	.long	.LBB39_14+1
	.long	.LBB39_28+1
	.long	.LBB39_28+1
	.long	.LBB39_28+1
	.long	.LBB39_28+1
	.long	.LBB39_28+1
	.long	.LBB39_28+1
	.long	.LBB39_28+1
	.long	.LBB39_15+1
	.long	.LBB39_28+1
	.long	.LBB39_28+1
	.long	.LBB39_28+1
	.long	.LBB39_28+1
	.long	.LBB39_28+1
	.long	.LBB39_28+1
	.long	.LBB39_28+1
	.long	.LBB39_14+1
	.long	.LBB39_28+1
	.long	.LBB39_28+1
	.long	.LBB39_28+1
	.long	.LBB39_28+1
	.long	.LBB39_28+1
	.long	.LBB39_28+1
	.long	.LBB39_28+1
	.long	.LBB39_27+1
	.long	.LBB39_28+1
	.long	.LBB39_28+1
	.long	.LBB39_28+1
	.long	.LBB39_28+1
	.long	.LBB39_28+1
	.long	.LBB39_28+1
	.long	.LBB39_28+1
	.long	.LBB39_20+1
	.long	.LBB39_28+1
	.long	.LBB39_28+1
	.long	.LBB39_28+1
	.long	.LBB39_28+1
	.long	.LBB39_28+1
	.long	.LBB39_28+1
	.long	.LBB39_28+1
	.long	.LBB39_21+1
	.long	.LBB39_28+1
	.long	.LBB39_28+1
	.long	.LBB39_28+1
	.long	.LBB39_28+1
	.long	.LBB39_28+1
	.long	.LBB39_28+1
	.long	.LBB39_28+1
	.long	.LBB39_22+1
	.long	.LBB39_28+1
	.long	.LBB39_28+1
	.long	.LBB39_28+1
	.long	.LBB39_28+1
	.long	.LBB39_28+1
	.long	.LBB39_28+1
	.long	.LBB39_28+1
	.long	.LBB39_26+1
.LBB39_12:                              @   in Loop: Header=BB39_1 Depth=1
.Ltmp367:
	.loc	2 1771 13 is_stmt 1             @ ../../Library/StdDriver/src/i2c.c:1771:13
	ldr	r0, [sp, #40]
	lsls	r0, r0, #25
	lsrs	r0, r0, #24
	ldr	r1, [sp, #44]
	str	r0, [r1, #8]
	add	r1, sp, #16
	movs	r0, #8
	.loc	2 1772 20                       @ ../../Library/StdDriver/src/i2c.c:1772:20
	strb	r0, [r1]
	.loc	2 1773 13                       @ ../../Library/StdDriver/src/i2c.c:1773:13
	b	.LBB39_29
.LBB39_13:                              @   in Loop: Header=BB39_1 Depth=1
	.loc	2 0 13 is_stmt 0                @ ../../Library/StdDriver/src/i2c.c:0:13
	add	r0, sp, #36
	.loc	2 1776 13 is_stmt 1             @ ../../Library/StdDriver/src/i2c.c:1776:13
	ldrb	r0, [r0, #1]
	ldr	r1, [sp, #44]
	str	r0, [r1, #8]
	.loc	2 1777 13                       @ ../../Library/StdDriver/src/i2c.c:1777:13
	b	.LBB39_29
.LBB39_14:                              @   in Loop: Header=BB39_1 Depth=1
	.loc	2 0 13 is_stmt 0                @ ../../Library/StdDriver/src/i2c.c:0:13
	add	r1, sp, #16
	movs	r0, #24
	.loc	2 1781 20 is_stmt 1             @ ../../Library/StdDriver/src/i2c.c:1781:20
	strb	r0, [r1]
	add	r1, sp, #24
	movs	r0, #1
	.loc	2 1782 19                       @ ../../Library/StdDriver/src/i2c.c:1782:19
	strb	r0, [r1]
	.loc	2 1783 13                       @ ../../Library/StdDriver/src/i2c.c:1783:13
	b	.LBB39_29
.LBB39_15:                              @   in Loop: Header=BB39_1 Depth=1
	.loc	2 0 13 is_stmt 0                @ ../../Library/StdDriver/src/i2c.c:0:13
	add	r0, sp, #20
.Ltmp368:
	.loc	2 1786 17 is_stmt 1             @ ../../Library/StdDriver/src/i2c.c:1786:17
	ldrb	r0, [r0]
.Ltmp369:
	.loc	2 1786 17 is_stmt 0             @ ../../Library/StdDriver/src/i2c.c:1786:17
	cmp	r0, #0
	beq	.LBB39_17
	b	.LBB39_16
.LBB39_16:                              @   in Loop: Header=BB39_1 Depth=1
	.loc	2 0 17                          @ ../../Library/StdDriver/src/i2c.c:0:17
	add	r0, sp, #36
.Ltmp370:
	.loc	2 1788 17 is_stmt 1             @ ../../Library/StdDriver/src/i2c.c:1788:17
	ldrb	r0, [r0]
	ldr	r1, [sp, #44]
	str	r0, [r1, #8]
	add	r1, sp, #20
	movs	r0, #0
	.loc	2 1789 24                       @ ../../Library/StdDriver/src/i2c.c:1789:24
	strb	r0, [r1]
	.loc	2 1790 13                       @ ../../Library/StdDriver/src/i2c.c:1790:13
	b	.LBB39_18
.Ltmp371:
.LBB39_17:                              @   in Loop: Header=BB39_1 Depth=1
	.loc	2 0 13 is_stmt 0                @ ../../Library/StdDriver/src/i2c.c:0:13
	add	r1, sp, #16
	movs	r0, #40
	.loc	2 1792 24 is_stmt 1             @ ../../Library/StdDriver/src/i2c.c:1792:24
	strb	r0, [r1]
	b	.LBB39_18
.Ltmp372:
.LBB39_18:                              @   in Loop: Header=BB39_1 Depth=1
	.loc	2 1794 13                       @ ../../Library/StdDriver/src/i2c.c:1794:13
	b	.LBB39_29
.LBB39_19:                              @   in Loop: Header=BB39_1 Depth=1
	.loc	2 1797 13                       @ ../../Library/StdDriver/src/i2c.c:1797:13
	ldr	r0, [sp, #40]
	lsls	r0, r0, #1
	adds	r0, r0, #1
	uxtb	r0, r0
	ldr	r1, [sp, #44]
	str	r0, [r1, #8]
	add	r1, sp, #16
	movs	r0, #8
	.loc	2 1798 20                       @ ../../Library/StdDriver/src/i2c.c:1798:20
	strb	r0, [r1]
	.loc	2 1799 13                       @ ../../Library/StdDriver/src/i2c.c:1799:13
	b	.LBB39_29
.LBB39_20:                              @   in Loop: Header=BB39_1 Depth=1
	.loc	2 0 13 is_stmt 0                @ ../../Library/StdDriver/src/i2c.c:0:13
	add	r1, sp, #16
	movs	r0, #12
	.loc	2 1802 20 is_stmt 1             @ ../../Library/StdDriver/src/i2c.c:1802:20
	strb	r0, [r1]
	.loc	2 1803 13                       @ ../../Library/StdDriver/src/i2c.c:1803:13
	b	.LBB39_29
.LBB39_21:                              @   in Loop: Header=BB39_1 Depth=1
	.loc	2 0 13 is_stmt 0                @ ../../Library/StdDriver/src/i2c.c:0:13
	add	r1, sp, #16
	movs	r0, #24
	.loc	2 1806 20 is_stmt 1             @ ../../Library/StdDriver/src/i2c.c:1806:20
	strb	r0, [r1]
	add	r1, sp, #24
	movs	r0, #1
	.loc	2 1807 19                       @ ../../Library/StdDriver/src/i2c.c:1807:19
	strb	r0, [r1]
	.loc	2 1808 13                       @ ../../Library/StdDriver/src/i2c.c:1808:13
	b	.LBB39_29
.LBB39_22:                              @   in Loop: Header=BB39_1 Depth=1
	.loc	2 1811 43                       @ ../../Library/StdDriver/src/i2c.c:1811:43
	ldr	r0, [sp, #44]
	ldr	r0, [r0, #8]
	.loc	2 1811 13 is_stmt 0             @ ../../Library/StdDriver/src/i2c.c:1811:13
	ldr	r1, [sp, #32]
	.loc	2 1811 27                       @ ../../Library/StdDriver/src/i2c.c:1811:27
	ldr	r2, [sp, #12]
	adds	r3, r2, #1
	str	r3, [sp, #12]
	.loc	2 1811 31                       @ ../../Library/StdDriver/src/i2c.c:1811:31
	strb	r0, [r1, r2]
.Ltmp373:
	.loc	2 1813 17 is_stmt 1             @ ../../Library/StdDriver/src/i2c.c:1813:17
	ldr	r0, [sp, #12]
	.loc	2 1813 29 is_stmt 0             @ ../../Library/StdDriver/src/i2c.c:1813:29
	ldr	r1, [sp, #56]
	.loc	2 1813 37                       @ ../../Library/StdDriver/src/i2c.c:1813:37
	subs	r1, r1, #1
.Ltmp374:
	.loc	2 1813 17                       @ ../../Library/StdDriver/src/i2c.c:1813:17
	cmp	r0, r1
	bhs	.LBB39_24
	b	.LBB39_23
.LBB39_23:                              @   in Loop: Header=BB39_1 Depth=1
	.loc	2 0 17                          @ ../../Library/StdDriver/src/i2c.c:0:17
	add	r1, sp, #16
	movs	r0, #12
.Ltmp375:
	.loc	2 1815 24 is_stmt 1             @ ../../Library/StdDriver/src/i2c.c:1815:24
	strb	r0, [r1]
	.loc	2 1816 13                       @ ../../Library/StdDriver/src/i2c.c:1816:13
	b	.LBB39_25
.Ltmp376:
.LBB39_24:                              @   in Loop: Header=BB39_1 Depth=1
	.loc	2 0 13 is_stmt 0                @ ../../Library/StdDriver/src/i2c.c:0:13
	add	r1, sp, #16
	movs	r0, #8
.Ltmp377:
	.loc	2 1819 24 is_stmt 1             @ ../../Library/StdDriver/src/i2c.c:1819:24
	strb	r0, [r1]
	b	.LBB39_25
.Ltmp378:
.LBB39_25:                              @   in Loop: Header=BB39_1 Depth=1
	.loc	2 1822 13                       @ ../../Library/StdDriver/src/i2c.c:1822:13
	b	.LBB39_29
.LBB39_26:                              @   in Loop: Header=BB39_1 Depth=1
	.loc	2 1825 43                       @ ../../Library/StdDriver/src/i2c.c:1825:43
	ldr	r0, [sp, #44]
	ldr	r0, [r0, #8]
	.loc	2 1825 13 is_stmt 0             @ ../../Library/StdDriver/src/i2c.c:1825:13
	ldr	r1, [sp, #32]
	.loc	2 1825 27                       @ ../../Library/StdDriver/src/i2c.c:1825:27
	ldr	r2, [sp, #12]
	adds	r3, r2, #1
	str	r3, [sp, #12]
	.loc	2 1825 31                       @ ../../Library/StdDriver/src/i2c.c:1825:31
	strb	r0, [r1, r2]
	add	r1, sp, #16
	movs	r0, #24
	.loc	2 1826 20 is_stmt 1             @ ../../Library/StdDriver/src/i2c.c:1826:20
	strb	r0, [r1]
	add	r1, sp, #28
	movs	r0, #0
	.loc	2 1827 23                       @ ../../Library/StdDriver/src/i2c.c:1827:23
	strb	r0, [r1]
	.loc	2 1828 13                       @ ../../Library/StdDriver/src/i2c.c:1828:13
	b	.LBB39_29
.LBB39_27:                              @   in Loop: Header=BB39_1 Depth=1
	b	.LBB39_28
.LBB39_28:                              @   in Loop: Header=BB39_1 Depth=1
	.loc	2 1832 13                       @ ../../Library/StdDriver/src/i2c.c:1832:13
	ldr	r0, [sp, #44]
	ldr	r0, [r0]
	movs	r1, #24
	orrs	r0, r1
	movs	r1, #36
	bics	r0, r1
	ldr	r1, [sp, #44]
	str	r0, [r1]
	add	r1, sp, #16
	movs	r0, #8
	.loc	2 1833 20                       @ ../../Library/StdDriver/src/i2c.c:1833:20
	strb	r0, [r1]
	add	r1, sp, #24
	movs	r0, #1
	.loc	2 1834 19                       @ ../../Library/StdDriver/src/i2c.c:1834:19
	strb	r0, [r1]
	.loc	2 1835 13                       @ ../../Library/StdDriver/src/i2c.c:1835:13
	b	.LBB39_29
.Ltmp379:
.LBB39_29:                              @   in Loop: Header=BB39_1 Depth=1
	.loc	2 1838 9                        @ ../../Library/StdDriver/src/i2c.c:1838:9
	ldr	r0, [sp, #44]
	ldr	r0, [r0]
	movs	r1, #60
	bics	r0, r1
	add	r1, sp, #16
	ldrb	r1, [r1]
	orrs	r0, r1
	ldr	r1, [sp, #44]
	str	r0, [r1]
.Ltmp380:
	.loc	2 1755 5                        @ ../../Library/StdDriver/src/i2c.c:1755:5
	b	.LBB39_1
.LBB39_30:
	.loc	2 1841 23                       @ ../../Library/StdDriver/src/i2c.c:1841:23
	ldr	r0, __arm_cp.39_1
	ldr	r0, [r0]
	.loc	2 1841 21 is_stmt 0             @ ../../Library/StdDriver/src/i2c.c:1841:21
	str	r0, [sp, #8]
	.loc	2 1842 5 is_stmt 1              @ ../../Library/StdDriver/src/i2c.c:1842:5
	b	.LBB39_31
.LBB39_31:                              @ =>This Inner Loop Header: Depth=1
	.loc	2 1842 13 is_stmt 0             @ ../../Library/StdDriver/src/i2c.c:1842:13
	ldr	r0, [sp, #44]
	.loc	2 1842 19                       @ ../../Library/StdDriver/src/i2c.c:1842:19
	ldr	r0, [r0]
	.loc	2 1842 5                        @ ../../Library/StdDriver/src/i2c.c:1842:5
	lsls	r0, r0, #27
	cmp	r0, #0
	bpl	.LBB39_35
	b	.LBB39_32
.LBB39_32:                              @   in Loop: Header=BB39_31 Depth=1
.Ltmp381:
	.loc	2 1844 24 is_stmt 1             @ ../../Library/StdDriver/src/i2c.c:1844:24
	ldr	r0, [sp, #8]
	subs	r0, r0, #1
	str	r0, [sp, #8]
.Ltmp382:
	.loc	2 1845 12                       @ ../../Library/StdDriver/src/i2c.c:1845:12
	ldr	r0, [sp, #8]
.Ltmp383:
	.loc	2 1845 12 is_stmt 0             @ ../../Library/StdDriver/src/i2c.c:1845:12
	cmp	r0, #0
	bne	.LBB39_34
	b	.LBB39_33
.LBB39_33:
.Ltmp384:
	.loc	2 1847 30 is_stmt 1             @ ../../Library/StdDriver/src/i2c.c:1847:30
	ldr	r1, __arm_cp.39_0
	movs	r0, #0
	mvns	r0, r0
	str	r0, [r1]
	.loc	2 1848 13                       @ ../../Library/StdDriver/src/i2c.c:1848:13
	b	.LBB39_35
.Ltmp385:
.LBB39_34:                              @   in Loop: Header=BB39_31 Depth=1
	.loc	2 1842 5                        @ ../../Library/StdDriver/src/i2c.c:1842:5
	b	.LBB39_31
.LBB39_35:
	.loc	2 1852 12                       @ ../../Library/StdDriver/src/i2c.c:1852:12
	ldr	r0, [sp, #12]
	.loc	2 1852 5 is_stmt 0              @ ../../Library/StdDriver/src/i2c.c:1852:5
	add	sp, #48
	pop	{r4, pc}
.Ltmp386:
	.p2align	2
@ %bb.36:
	.loc	2 0 5                           @ ../../Library/StdDriver/src/i2c.c:0:5
__arm_cp.39_0:
	.long	g_I2C_i32ErrCode
.Lcpi_end28:
	.size	__arm_cp.39_0, .Lcpi_end28-__arm_cp.39_0
__arm_cp.39_1:
	.long	SystemCoreClock
.Lcpi_end29:
	.size	__arm_cp.39_1, .Lcpi_end29-__arm_cp.39_1
.Lfunc_end39:
	.size	I2C_ReadMultiBytesTwoRegs, .Lfunc_end39-I2C_ReadMultiBytesTwoRegs
	.cfi_endproc
	.cantunwind
	.fnend
                                        @ -- End function
	.hidden	g_I2C_i32ErrCode                @ @g_I2C_i32ErrCode
	.type	g_I2C_i32ErrCode,%object
	.section	.bss.g_I2C_i32ErrCode,"aw",%nobits
	.globl	g_I2C_i32ErrCode
	.p2align	2
g_I2C_i32ErrCode:
	.long	0                               @ 0x0
	.size	g_I2C_i32ErrCode, 4

	.section	".note.GNU-stack","",%progbits
	.eabi_attribute	30, 6	@ Tag_ABI_optimization_goals
	.ARM_attribute	16, 1	@ Tag_AV_eba