	.text
	.syntax unified
	.eabi_attribute	67, "2.09"	@ Tag_conformance
	.cpu	cortex-m0
	.eabi_attribute	6, 12	@ Tag_CPU_arch
	.eabi_attribute	7, 77	@ Tag_CPU_arch_profile
	.eabi_attribute	8, 0	@ Tag_ARM_ISA_use
	.eabi_attribute	9, 1	@ Tag_THUMB_ISA_use
	.eabi_attribute	34, 0	@ Tag_CPU_unaligned_access
	.eabi_attribute	17, 1	@ Tag_ABI_PCS_GOT_use
	.eabi_attribute	20, 2	@ Tag_ABI_FP_denormal
	.eabi_attribute	21, 0	@ Tag_ABI_FP_exceptions
	.eabi_attribute	23, 1	@ Tag_ABI_FP_number_model
	.eabi_attribute	24, 1	@ Tag_ABI_align_needed
	.eabi_attribute	25, 1	@ Tag_ABI_align_preserved
	.eabi_attribute	38, 1	@ Tag_ABI_FP_16bit_format
	.eabi_attribute	18, 2	@ Tag_ABI_PCS_wchar_t
	.eabi_attribute	26, 1	@ Tag_ABI_enum_size
	.eabi_attribute	14, 0	@ Tag_ABI_PCS_R9_use
	.file	"Main.c"
	.file	1 "C:\\Keil_v5\\ARM\\ARMCLANG\\Bin\\..\\include" "stdint.h"
	.file	2 "D:\\Projects\\CCMSFloridaPhpr\\Application\\KEIL" "../Source/Main.c"
	.file	3 "D:\\Projects\\CCMSFloridaPhpr\\Application\\KEIL" "../Header/Hardware.h"
	.file	4 "D:\\Projects\\CCMSFloridaPhpr\\Application\\KEIL" "../../Library/Device/Nuvoton/M031/Include\\M031Series.h"
	.file	5 "D:\\Projects\\CCMSFloridaPhpr\\Application\\KEIL" "../../Library/CMSIS/Include\\core_cm0.h"
	.section	.text.Delay,"ax",%progbits
	.hidden	Delay                           @ -- Begin function Delay
	.globl	Delay
	.p2align	2
	.type	Delay,%function
	.code	16                              @ @Delay
	.thumb_func
Delay:
.Lfunc_begin0:
	.loc	2 53 0                          @ ../Source/Main.c:53:0
	.fnstart
	.cfi_sections .debug_frame
	.cfi_startproc
@ %bb.0:
	.pad	#4
	sub	sp, #4
	.cfi_def_cfa_offset 4
	str	r0, [sp]
.Ltmp0:
	.loc	2 54 17 prologue_end            @ ../Source/Main.c:54:17
	ldr	r0, [sp]
	.loc	2 54 15 is_stmt 0               @ ../Source/Main.c:54:15
	ldr	r1, __arm_cp.0_0
	str	r0, [r1]
	.loc	2 56 4 is_stmt 1                @ ../Source/Main.c:56:4
	b	.LBB0_1
.LBB0_1:                                @ =>This Inner Loop Header: Depth=1
	.loc	2 56 10 is_stmt 0               @ ../Source/Main.c:56:10
	ldr	r0, __arm_cp.0_0
	ldr	r0, [r0]
	.loc	2 56 4                          @ ../Source/Main.c:56:4
	cmp	r0, #0
	beq	.LBB0_3
	b	.LBB0_2
.LBB0_2:                                @   in Loop: Header=BB0_1 Depth=1
	b	.LBB0_1
.LBB0_3:
	.loc	2 57 1 is_stmt 1                @ ../Source/Main.c:57:1
	add	sp, #4
	bx	lr
.Ltmp1:
	.p2align	2
@ %bb.4:
	.loc	2 0 1 is_stmt 0                 @ ../Source/Main.c:0:1
__arm_cp.0_0:
	.long	TimingDelay
.Lcpi_end0:
	.size	__arm_cp.0_0, .Lcpi_end0-__arm_cp.0_0
.Lfunc_end0:
	.size	Delay, .Lfunc_end0-Delay
	.cfi_endproc
	.cantunwind
	.fnend
                                        @ -- End function
	.section	.text.TimingDelay_Decrement,"ax",%progbits
	.hidden	TimingDelay_Decrement           @ -- Begin function TimingDelay_Decrement
	.globl	TimingDelay_Decrement
	.p2align	2
	.type	TimingDelay_Decrement,%function
	.code	16                              @ @TimingDelay_Decrement
	.thumb_func
TimingDelay_Decrement:
.Lfunc_begin1:
	.loc	2 61 0 is_stmt 1                @ ../Source/Main.c:61:0
	.fnstart
	.cfi_startproc
@ %bb.0:
	.loc	2 62 6 prologue_end             @ ../Source/Main.c:62:6
	ldr	r0, __arm_cp.1_0
	ldr	r0, [r0]
.Ltmp2:
	.loc	2 62 6 is_stmt 0                @ ../Source/Main.c:62:6
	cmp	r0, #0
	beq	.LBB1_2
	b	.LBB1_1
.LBB1_1:
.Ltmp3:
	.loc	2 64 16 is_stmt 1               @ ../Source/Main.c:64:16
	ldr	r1, __arm_cp.1_0
	ldr	r0, [r1]
	subs	r0, r0, #1
	str	r0, [r1]
	.loc	2 65 3                          @ ../Source/Main.c:65:3
	b	.LBB1_2
.Ltmp4:
.LBB1_2:
	.loc	2 66 11                         @ ../Source/Main.c:66:11
	ldr	r0, __arm_cp.1_1
	ldrh	r1, [r0]
	adds	r1, r1, #1
	strh	r1, [r0]
.Ltmp5:
	.loc	2 67 5                          @ ../Source/Main.c:67:5
	ldrh	r0, [r0]
	movs	r1, #245
	lsls	r1, r1, #2
.Ltmp6:
	.loc	2 67 5 is_stmt 0                @ ../Source/Main.c:67:5
	cmp	r0, r1
	blt	.LBB1_8
	b	.LBB1_3
.LBB1_3:
.Ltmp7:
	.loc	2 69 12 is_stmt 1               @ ../Source/Main.c:69:12
	ldr	r1, __arm_cp.1_1
	movs	r0, #0
	strh	r0, [r1]
.Ltmp8:
	.loc	2 70 6                          @ ../Source/Main.c:70:6
	ldr	r0, __arm_cp.1_2
	ldrb	r0, [r0]
.Ltmp9:
	.loc	2 70 6 is_stmt 0                @ ../Source/Main.c:70:6
	cmp	r0, #0
	beq	.LBB1_7
	b	.LBB1_4
.LBB1_4:
.Ltmp10:
	.loc	2 72 13 is_stmt 1               @ ../Source/Main.c:72:13
	ldr	r0, __arm_cp.1_3
	ldrh	r1, [r0]
	adds	r1, r1, #1
	strh	r1, [r0]
.Ltmp11:
	.loc	2 74 7                          @ ../Source/Main.c:74:7
	ldrh	r0, [r0]
.Ltmp12:
	.loc	2 74 7 is_stmt 0                @ ../Source/Main.c:74:7
	cmp	r0, #60
	blt	.LBB1_6
	b	.LBB1_5
.LBB1_5:
.Ltmp13:
	.loc	2 77 14 is_stmt 1               @ ../Source/Main.c:77:14
	ldr	r1, __arm_cp.1_3
	movs	r0, #0
	strh	r0, [r1]
	.loc	2 78 4                          @ ../Source/Main.c:78:4
	b	.LBB1_6
.Ltmp14:
.LBB1_6:
	.loc	2 79 3                          @ ../Source/Main.c:79:3
	b	.LBB1_7
.Ltmp15:
.LBB1_7:
	.loc	2 80 2                          @ ../Source/Main.c:80:2
	b	.LBB1_8
.Ltmp16:
.LBB1_8:
	.loc	2 83 1                          @ ../Source/Main.c:83:1
	bx	lr
.Ltmp17:
	.p2align	2
@ %bb.9:
	.loc	2 0 1 is_stmt 0                 @ ../Source/Main.c:0:1
__arm_cp.1_0:
	.long	TimingDelay
.Lcpi_end1:
	.size	__arm_cp.1_0, .Lcpi_end1-__arm_cp.1_0
__arm_cp.1_1:
	.long	Count1Sec
.Lcpi_end2:
	.size	__arm_cp.1_1, .Lcpi_end2-__arm_cp.1_1
__arm_cp.1_2:
	.long	IsInit
.Lcpi_end3:
	.size	__arm_cp.1_2, .Lcpi_end3-__arm_cp.1_2
__arm_cp.1_3:
	.long	Count1Min
.Lcpi_end4:
	.size	__arm_cp.1_3, .Lcpi_end4-__arm_cp.1_3
.Lfunc_end1:
	.size	TimingDelay_Decrement, .Lfunc_end1-TimingDelay_Decrement
	.cfi_endproc
	.cantunwind
	.fnend
                                        @ -- End function
	.section	.text.SysTick_Handler,"ax",%progbits
	.hidden	SysTick_Handler                 @ -- Begin function SysTick_Handler
	.globl	SysTick_Handler
	.p2align	1
	.type	SysTick_Handler,%function
	.code	16                              @ @SysTick_Handler
	.thumb_func
SysTick_Handler:
.Lfunc_begin2:
	.loc	2 86 0 is_stmt 1                @ ../Source/Main.c:86:0
	.fnstart
	.cfi_startproc
@ %bb.0:
	.save	{r7, lr}
	push	{r7, lr}
	.cfi_def_cfa_offset 8
	.cfi_offset lr, -4
	.cfi_offset r7, -8
.Ltmp18:
	.loc	2 87 2 prologue_end             @ ../Source/Main.c:87:2
	bl	TimingDelay_Decrement
	.loc	2 88 1                          @ ../Source/Main.c:88:1
	pop	{r7, pc}
.Ltmp19:
.Lfunc_end2:
	.size	SysTick_Handler, .Lfunc_end2-SysTick_Handler
	.cfi_endproc
	.cantunwind
	.fnend
                                        @ -- End function
	.section	.text.Init,"ax",%progbits
	.hidden	Init                            @ -- Begin function Init
	.globl	Init
	.p2align	2
	.type	Init,%function
	.code	16                              @ @Init
	.thumb_func
Init:
.Lfunc_begin3:
	.loc	2 96 0                          @ ../Source/Main.c:96:0
	.fnstart
	.cfi_startproc
@ %bb.0:
	.save	{r7, lr}
	push	{r7, lr}
	.cfi_def_cfa_offset 8
	.cfi_offset lr, -4
	.cfi_offset r7, -8
	.pad	#8
	sub	sp, #8
	.cfi_def_cfa_offset 16
.Ltmp20:
	.loc	2 98 3 prologue_end             @ ../Source/Main.c:98:3
	bl	SYS_Init
.Ltmp21:
	.file	6 "D:\\Projects\\CCMSFloridaPhpr\\Application\\KEIL" "../../Library/CMSIS/Include/cmsis_armcc_V6.h"
	.loc	6 52 3                          @ ../../Library/CMSIS/Include/cmsis_armcc_V6.h:52:3
	@APP
	cpsie i
	@NO_APP
.Ltmp22:
	.loc	2 100 8                         @ ../Source/Main.c:100:8
	ldr	r1, __arm_cp.3_0
	str	r1, [sp, #4]                    @ 4-byte Spill
	movs	r0, #0
	strb	r0, [r1]
	mvns	r0, r0
	.loc	2 101 2                         @ ../Source/Main.c:101:2
	bl	NVIC_EnableIRQ
	.loc	2 102 2                         @ ../Source/Main.c:102:2
	bl	PeripheralInit
	.loc	2 103 2                         @ ../Source/Main.c:103:2
	bl	LoadBootConfig
	.loc	2 104 2                         @ ../Source/Main.c:104:2
	bl	DS1307_Init
	.loc	2 105 10                        @ ../Source/Main.c:105:10
	bl	CheckRTC
	.loc	2 105 8 is_stmt 0               @ ../Source/Main.c:105:8
	ldr	r1, __arm_cp.3_1
	strb	r0, [r1]
	.loc	2 106 2 is_stmt 1               @ ../Source/Main.c:106:2
	bl	ProcessRTC
	.loc	2 107 2                         @ ../Source/Main.c:107:2
	bl	InitModemComm
	.loc	2 108 2                         @ ../Source/Main.c:108:2
	bl	EMeterInit
	ldr	r1, [sp, #4]                    @ 4-byte Reload
	movs	r0, #1
	.loc	2 109 8                         @ ../Source/Main.c:109:8
	strb	r0, [r1]
	.loc	2 110 1                         @ ../Source/Main.c:110:1
	add	sp, #8
	pop	{r7, pc}
.Ltmp23:
	.p2align	2
@ %bb.1:
	.loc	2 0 1 is_stmt 0                 @ ../Source/Main.c:0:1
__arm_cp.3_0:
	.long	IsInit
.Lcpi_end5:
	.size	__arm_cp.3_0, .Lcpi_end5-__arm_cp.3_0
__arm_cp.3_1:
	.long	IsRTC
.Lcpi_end6:
	.size	__arm_cp.3_1, .Lcpi_end6-__arm_cp.3_1
.Lfunc_end3:
	.size	Init, .Lfunc_end3-Init
	.cfi_endproc
	.cantunwind
	.fnend
                                        @ -- End function
	.section	.text.NVIC_EnableIRQ,"ax",%progbits
	.p2align	2                               @ -- Begin function NVIC_EnableIRQ
	.type	NVIC_EnableIRQ,%function
	.code	16                              @ @NVIC_EnableIRQ
	.thumb_func
NVIC_EnableIRQ:
.Lfunc_begin4:
	.loc	5 630 0 is_stmt 1               @ ../../Library/CMSIS/Include\core_cm0.h:630:0
	.fnstart
	.cfi_startproc
@ %bb.0:
	.pad	#4
	sub	sp, #4
	.cfi_def_cfa_offset 4
	mov	r1, r0
                                        @ kill: def $r0 killed $r1
	mov	r0, sp
	strb	r1, [r0]
.Ltmp24:
	.loc	5 631 50 prologue_end           @ ../../Library/CMSIS/Include\core_cm0.h:631:50
	ldrb	r1, [r0]
	movs	r0, #31
	.loc	5 631 65 is_stmt 0              @ ../../Library/CMSIS/Include\core_cm0.h:631:65
	ands	r1, r0
	movs	r0, #1
	.loc	5 631 35                        @ ../../Library/CMSIS/Include\core_cm0.h:631:35
	lsls	r0, r1
	ldr	r1, __arm_cp.4_0
	.loc	5 631 18                        @ ../../Library/CMSIS/Include\core_cm0.h:631:18
	str	r0, [r1]
	.loc	5 632 1 is_stmt 1               @ ../../Library/CMSIS/Include\core_cm0.h:632:1
	add	sp, #4
	bx	lr
.Ltmp25:
	.p2align	2
@ %bb.1:
	.loc	5 0 1 is_stmt 0                 @ ../../Library/CMSIS/Include\core_cm0.h:0:1
__arm_cp.4_0:
	.long	3758153984                      @ 0xe000e100
.Lcpi_end7:
	.size	__arm_cp.4_0, .Lcpi_end7-__arm_cp.4_0
.Lfunc_end4:
	.size	NVIC_EnableIRQ, .Lfunc_end4-NVIC_EnableIRQ
	.cfi_endproc
	.cantunwind
	.fnend
                                        @ -- End function
	.section	.text.main,"ax",%progbits
	.hidden	main                            @ -- Begin function main
	.globl	main
	.p2align	1
	.type	main,%function
	.code	16                              @ @main
	.thumb_func
main:
.Lfunc_begin5:
	.loc	2 112 0 is_stmt 1               @ ../Source/Main.c:112:0
	.fnstart
	.cfi_startproc
@ %bb.0:
	.save	{r7, lr}
	push	{r7, lr}
	.cfi_def_cfa_offset 8
	.cfi_offset lr, -4
	.cfi_offset r7, -8
	.pad	#8
	sub	sp, #8
	.cfi_def_cfa_offset 16
	movs	r0, #0
	str	r0, [sp, #4]
.Ltmp26:
	.loc	2 113 5 prologue_end            @ ../Source/Main.c:113:5
	bl	Init
	.loc	2 114 5                         @ ../Source/Main.c:114:5
	b	.LBB5_1
.LBB5_1:                                @ =>This Inner Loop Header: Depth=1
.Ltmp27:
	.loc	2 116 4                         @ ../Source/Main.c:116:4
	bl	ProcessRTC
	.loc	2 117 4                         @ ../Source/Main.c:117:4
	bl	ProcessPeripheral
	.loc	2 118 4                         @ ../Source/Main.c:118:4
	bl	ProcessMeter
	.loc	2 119 4                         @ ../Source/Main.c:119:4
	bl	ProcessModemComm
.Ltmp28:
	.loc	2 114 5                         @ ../Source/Main.c:114:5
	b	.LBB5_1
.Ltmp29:
.Lfunc_end5:
	.size	main, .Lfunc_end5-main
	.cfi_endproc
	.cantunwind
	.fnend
                                        @ -- End function
	.hidden	InitPhase                       @ @InitPhase
	.type	InitPhase,%object
	.section	.data.InitPhase,"aw",%progbits
	.globl	InitPhase
InitPhase:
	.byte	3                               @ 0x3
	.size	InitPhase, 1

	.hidden	TimingDelay                     @ @TimingDelay
	.type	TimingDelay,%object
	.section	.bss.TimingDelay,"aw",%nobits
	.globl	TimingDelay
	.p2align	2
TimingDelay:
	.long	0                               @ 0x0
	.size	TimingDelay, 4

	.hidden	Count1Sec                       @ @Count1Sec
	.type	Count1Sec,%object
	.section	.bss.Count1Sec,"aw",%nobits
	.globl	Count1Sec
	.p2align	1
Count1Sec:
	.short	0                               @ 0x0
	.size	Count1Sec, 2

	.hidden	IsInit                          @ @IsInit
	.type	IsInit,%object
	.section	.bss.IsInit,"aw",%nobits
	.globl	IsInit
IsInit:
	.byte	0                               @ 0x0
	.size	IsInit, 1

	.hidden	Count1Min                       @ @Count1Min
	.type	Count1Min,%object
	.section	.bss.Count1Min,"aw",%nobits
	.globl	Count1Min
	.p2align	1
Count1Min:
	.short	0                               @ 0x0
	.size	Count1Min, 2

	.hidden	IsRTC                           @ @IsRTC
	.type	IsRTC,%object
	.section	.bss.IsRTC,"aw",%nobits
	.globl	IsRTC
IsRTC:
	.byte	0                               @ 0x0
	.size	IsRTC, 1

	.hidden	LED_Count                       @ @LED_Count
	.type	LED_Count,%object
	.section	.bss.LED_Count,"aw",%nobits
	.globl	LED_Count
	.p2align	1
LED_Count:
	.short	0                               @ 0x0
	.size	LED_Count, 2

	.hidden	CurrentDateTime                 @ @CurrentDateTime
	.type	CurrentDateTime,%object
	.section	.bss.CurrentDateTime,"aw",%nobits
	.globl	CurrentDateTime
	.p2align	1
CurrentDateTime:
	.zero	8
	.size	CurrentDateTime, 8

	.hidden	IsTimeSet                       @ @IsTimeSet
	.type	IsTimeSet,%object
	.section	.bss.IsTimeSet,"aw",%nobits
	.globl	IsTimeSet
IsTimeSet:
	.byte	0                               @ 0x0
	.size	IsTimeSet, 1

	.hidden	Fsize                           @ @Fsize
	.type	Fsize,%object
	.section	.bss.Fsize,"aw",%nobits
	.globl	Fsize
	.p2align	1
Fsize:
	.short	0                               @ 0x0
	.size	Fsize, 2

	.hidden	FlashID                         @ @FlashID
	.type	FlashID,%object
	.section	.bss.FlashID,"aw",%nobits
	.globl	FlashID
	.p2align	2
FlashID:
	.long	0                               @ 0x0
	.size	FlashID, 4

	.hidden	IsFlash                         @ @IsFlash
	.type	IsFlash,%object
	.section	.bss.IsFlash,"aw",%nobits
	.globl	IsFlash
	.p2align	1
IsFlash:
	.short	0                               @ 0x0
	.size	IsFlash, 2

	.type	__ARM_use_no_argv,%object       @ @__ARM_use_no_argv
	.section	.ARM.use_no_argv,"aw",%progbits
	.globl	__ARM_use_no_argv
	.p2align	2
__ARM_use_no_argv:
	.long	1                               @ 0x1
	.size	__ARM_use_no_argv, 4

	.globl	__ARM_use_no_argv
	.section	".note.GNU-stack","",%progbits
	.eabi_attribute	30, 6	@ Tag_ABI_optimization_goals
	.ARM_attribute	16, 1	@ Tag_AV_eba