	.text
	.syntax unified
	.eabi_attribute	67, "2.09"	@ Tag_conformance
	.cpu	cortex-m0
	.eabi_attribute	6, 12	@ Tag_CPU_arch
	.eabi_attribute	7, 77	@ Tag_CPU_arch_profile
	.eabi_attribute	8, 0	@ Tag_ARM_ISA_use
	.eabi_attribute	9, 1	@ Tag_THUMB_ISA_use
	.eabi_attribute	34, 0	@ Tag_CPU_unaligned_access
	.eabi_attribute	17, 1	@ Tag_ABI_PCS_GOT_use
	.eabi_attribute	20, 2	@ Tag_ABI_FP_denormal
	.eabi_attribute	21, 0	@ Tag_ABI_FP_exceptions
	.eabi_attribute	23, 1	@ Tag_ABI_FP_number_model
	.eabi_attribute	24, 1	@ Tag_ABI_align_needed
	.eabi_attribute	25, 1	@ Tag_ABI_align_preserved
	.eabi_attribute	38, 1	@ Tag_ABI_FP_16bit_format
	.eabi_attribute	18, 2	@ Tag_ABI_PCS_wchar_t
	.eabi_attribute	26, 1	@ Tag_ABI_enum_size
	.eabi_attribute	14, 0	@ Tag_ABI_PCS_R9_use
	.file	"MComm.c"
	.file	1 "C:\\Keil_v5\\ARM\\ARMCLANG\\Bin\\..\\include" "stdint.h"
	.file	2 "D:\\Projects\\CCMSFloridaPhpr\\Application\\KEIL" "../Source/MComm.c"
	.file	3 "D:\\Projects\\CCMSFloridaPhpr\\Application\\KEIL" "../Header/Hardware.h"
	.file	4 "D:\\Projects\\CCMSFloridaPhpr\\Application\\KEIL" "../Header\\MComm.h"
	.file	5 "D:\\Projects\\CCMSFloridaPhpr\\Application\\KEIL" "../../Library/Device/Nuvoton/M031/Include\\M031Series.h"
	.file	6 "D:\\Projects\\CCMSFloridaPhpr\\Application\\KEIL" "../../Library/Device/Nuvoton/M031/Include/uart_reg.h"
	.file	7 "D:\\Projects\\CCMSFloridaPhpr\\Application\\KEIL" "../../Library/CMSIS/Include\\core_cm0.h"
	.section	.text.InitModemComm,"ax",%progbits
	.hidden	InitModemComm                   @ -- Begin function InitModemComm
	.globl	InitModemComm
	.p2align	2
	.type	InitModemComm,%function
	.code	16                              @ @InitModemComm
	.thumb_func
InitModemComm:
.Lfunc_begin0:
	.loc	2 15 0                          @ ../Source/MComm.c:15:0
	.fnstart
	.cfi_sections .debug_frame
	.cfi_startproc
@ %bb.0:
	.save	{r7, lr}
	push	{r7, lr}
	.cfi_def_cfa_offset 8
	.cfi_offset lr, -4
	.cfi_offset r7, -8
	.pad	#8
	sub	sp, #8
	.cfi_def_cfa_offset 16
	ldr	r0, __arm_cp.0_0
.Ltmp0:
	.loc	2 16 2 prologue_end             @ ../Source/MComm.c:16:2
	bl	SYS_ResetModule
	movs	r0, #225
	lsls	r1, r0, #10
	ldr	r0, __arm_cp.0_1
	.loc	2 17 2                          @ ../Source/MComm.c:17:2
	str	r0, [sp, #4]                    @ 4-byte Spill
	bl	UART_Open
	movs	r0, #12
	.loc	2 18 2                          @ ../Source/MComm.c:18:2
	bl	NVIC_EnableIRQ
	ldr	r0, [sp, #4]                    @ 4-byte Reload
	movs	r1, #1
	.loc	2 19 3                          @ ../Source/MComm.c:19:3
	bl	UART_EnableInt
	.loc	2 20 1                          @ ../Source/MComm.c:20:1
	add	sp, #8
	pop	{r7, pc}
.Ltmp1:
	.p2align	2
@ %bb.1:
	.loc	2 0 1 is_stmt 0                 @ ../Source/MComm.c:0:1
__arm_cp.0_0:
	.long	67108882                        @ 0x4000012
.Lcpi_end0:
	.size	__arm_cp.0_0, .Lcpi_end0-__arm_cp.0_0
__arm_cp.0_1:
	.long	1074208768                      @ 0x40072000
.Lcpi_end1:
	.size	__arm_cp.0_1, .Lcpi_end1-__arm_cp.0_1
.Lfunc_end0:
	.size	InitModemComm, .Lfunc_end0-InitModemComm
	.cfi_endproc
	.cantunwind
	.fnend
                                        @ -- End function
	.section	.text.NVIC_EnableIRQ,"ax",%progbits
	.p2align	2                               @ -- Begin function NVIC_EnableIRQ
	.type	NVIC_EnableIRQ,%function
	.code	16                              @ @NVIC_EnableIRQ
	.thumb_func
NVIC_EnableIRQ:
.Lfunc_begin1:
	.loc	7 630 0 is_stmt 1               @ ../../Library/CMSIS/Include\core_cm0.h:630:0
	.fnstart
	.cfi_startproc
@ %bb.0:
	.pad	#4
	sub	sp, #4
	.cfi_def_cfa_offset 4
	mov	r1, r0
                                        @ kill: def $r0 killed $r1
	mov	r0, sp
	strb	r1, [r0]
.Ltmp2:
	.loc	7 631 50 prologue_end           @ ../../Library/CMSIS/Include\core_cm0.h:631:50
	ldrb	r1, [r0]
	movs	r0, #31
	.loc	7 631 65 is_stmt 0              @ ../../Library/CMSIS/Include\core_cm0.h:631:65
	ands	r1, r0
	movs	r0, #1
	.loc	7 631 35                        @ ../../Library/CMSIS/Include\core_cm0.h:631:35
	lsls	r0, r1
	ldr	r1, __arm_cp.1_0
	.loc	7 631 18                        @ ../../Library/CMSIS/Include\core_cm0.h:631:18
	str	r0, [r1]
	.loc	7 632 1 is_stmt 1               @ ../../Library/CMSIS/Include\core_cm0.h:632:1
	add	sp, #4
	bx	lr
.Ltmp3:
	.p2align	2
@ %bb.1:
	.loc	7 0 1 is_stmt 0                 @ ../../Library/CMSIS/Include\core_cm0.h:0:1
__arm_cp.1_0:
	.long	3758153984                      @ 0xe000e100
.Lcpi_end2:
	.size	__arm_cp.1_0, .Lcpi_end2-__arm_cp.1_0
.Lfunc_end1:
	.size	NVIC_EnableIRQ, .Lfunc_end1-NVIC_EnableIRQ
	.cfi_endproc
	.cantunwind
	.fnend
                                        @ -- End function
	.section	.text.SendDatatoModem,"ax",%progbits
	.hidden	SendDatatoModem                 @ -- Begin function SendDatatoModem
	.globl	SendDatatoModem
	.p2align	2
	.type	SendDatatoModem,%function
	.code	16                              @ @SendDatatoModem
	.thumb_func
SendDatatoModem:
.Lfunc_begin2:
	.loc	2 23 0 is_stmt 1                @ ../Source/MComm.c:23:0
	.fnstart
	.cfi_startproc
@ %bb.0:
	.pad	#8
	sub	sp, #8
	.cfi_def_cfa_offset 8
	str	r0, [sp, #4]
	str	r1, [sp]
.Ltmp4:
	.loc	2 24 2 prologue_end             @ ../Source/MComm.c:24:2
	b	.LBB2_1
.LBB2_1:                                @ =>This Loop Header: Depth=1
                                        @     Child Loop BB2_3 Depth 2
	.loc	2 24 8 is_stmt 0                @ ../Source/MComm.c:24:8
	ldr	r0, [sp]
	.loc	2 24 2                          @ ../Source/MComm.c:24:2
	cmp	r0, #0
	beq	.LBB2_6
	b	.LBB2_2
.LBB2_2:                                @   in Loop: Header=BB2_1 Depth=1
.Ltmp5:
	.loc	2 26 3 is_stmt 1                @ ../Source/MComm.c:26:3
	b	.LBB2_3
.LBB2_3:                                @   Parent Loop BB2_1 Depth=1
                                        @ =>  This Inner Loop Header: Depth=2
	.loc	2 0 3 is_stmt 0                 @ ../Source/MComm.c:0:3
	ldr	r0, __arm_cp.2_0
	.loc	2 26 9                          @ ../Source/MComm.c:26:9
	ldr	r0, [r0]
	movs	r1, #1
	lsls	r1, r1, #23
	ands	r0, r1
	lsrs	r0, r0, #23
	.loc	2 26 3                          @ ../Source/MComm.c:26:3
	cmp	r0, #0
	beq	.LBB2_5
	b	.LBB2_4
.LBB2_4:                                @   in Loop: Header=BB2_3 Depth=2
	b	.LBB2_3
.LBB2_5:                                @   in Loop: Header=BB2_1 Depth=1
	.loc	2 27 3 is_stmt 1                @ ../Source/MComm.c:27:3
	ldr	r0, [sp, #4]
	ldrb	r0, [r0]
	ldr	r1, __arm_cp.2_1
	str	r0, [r1]
	.loc	2 28 6                          @ ../Source/MComm.c:28:6
	ldr	r0, [sp, #4]
	adds	r0, r0, #1
	str	r0, [sp, #4]
	.loc	2 29 6                          @ ../Source/MComm.c:29:6
	ldr	r0, [sp]
	subs	r0, r0, #1
	str	r0, [sp]
.Ltmp6:
	.loc	2 24 2                          @ ../Source/MComm.c:24:2
	b	.LBB2_1
.LBB2_6:
	.loc	2 31 1                          @ ../Source/MComm.c:31:1
	add	sp, #8
	bx	lr
.Ltmp7:
	.p2align	2
@ %bb.7:
	.loc	2 0 1 is_stmt 0                 @ ../Source/MComm.c:0:1
__arm_cp.2_0:
	.long	1074208792                      @ 0x40072018
.Lcpi_end3:
	.size	__arm_cp.2_0, .Lcpi_end3-__arm_cp.2_0
__arm_cp.2_1:
	.long	1074208768                      @ 0x40072000
.Lcpi_end4:
	.size	__arm_cp.2_1, .Lcpi_end4-__arm_cp.2_1
.Lfunc_end2:
	.size	SendDatatoModem, .Lfunc_end2-SendDatatoModem
	.cfi_endproc
	.cantunwind
	.fnend
                                        @ -- End function
	.section	.text.UART02_IRQHandler,"ax",%progbits
	.hidden	UART02_IRQHandler               @ -- Begin function UART02_IRQHandler
	.globl	UART02_IRQHandler
	.p2align	2
	.type	UART02_IRQHandler,%function
	.code	16                              @ @UART02_IRQHandler
	.thumb_func
UART02_IRQHandler:
.Lfunc_begin3:
	.loc	2 34 0 is_stmt 1                @ ../Source/MComm.c:34:0
	.fnstart
	.cfi_startproc
@ %bb.0:
	.pad	#8
	sub	sp, #8
	.cfi_def_cfa_offset 8
	add	r1, sp, #4
	movs	r0, #255
.Ltmp8:
	.loc	2 35 10 prologue_end            @ ../Source/MComm.c:35:10
	strb	r0, [r1]
	ldr	r0, __arm_cp.3_0
.Ltmp9:
	.loc	2 36 6                          @ ../Source/MComm.c:36:6
	ldr	r0, [r0]
.Ltmp10:
	.loc	2 36 6 is_stmt 0                @ ../Source/MComm.c:36:6
	lsls	r0, r0, #23
	cmp	r0, #0
	bpl	.LBB3_2
	b	.LBB3_1
.LBB3_1:
	.loc	2 0 6                           @ ../Source/MComm.c:0:6
	movs	r0, #1
.Ltmp11:
	.loc	2 36 6                          @ ../Source/MComm.c:36:6
	cmp	r0, #0
	bne	.LBB3_3
	b	.LBB3_22
.Ltmp12:
.LBB3_2:
	.loc	2 0 6                           @ ../Source/MComm.c:0:6
	movs	r0, #1
	.loc	2 36 6                          @ ../Source/MComm.c:36:6
	cmp	r0, #0
	bne	.LBB3_22
	b	.LBB3_3
.LBB3_3:
.Ltmp13:
	.loc	2 38 3 is_stmt 1                @ ../Source/MComm.c:38:3
	b	.LBB3_4
.LBB3_4:                                @ =>This Inner Loop Header: Depth=1
	.loc	2 0 3 is_stmt 0                 @ ../Source/MComm.c:0:3
	ldr	r0, __arm_cp.3_0
	.loc	2 38 9                          @ ../Source/MComm.c:38:9
	ldr	r0, [r0]
	.loc	2 38 3                          @ ../Source/MComm.c:38:3
	lsls	r0, r0, #31
	cmp	r0, #0
	beq	.LBB3_21
	b	.LBB3_5
.LBB3_5:                                @   in Loop: Header=BB3_4 Depth=1
	.loc	2 0 3                           @ ../Source/MComm.c:0:3
	ldr	r0, __arm_cp.3_1
.Ltmp14:
	.loc	2 40 10 is_stmt 1               @ ../Source/MComm.c:40:10
	ldr	r0, [r0]
	add	r1, sp, #4
	.loc	2 40 8 is_stmt 0                @ ../Source/MComm.c:40:8
	strb	r0, [r1]
	.loc	2 41 11 is_stmt 1               @ ../Source/MComm.c:41:11
	ldr	r0, __arm_cp.3_2
	ldrb	r0, [r0]
	.loc	2 41 4 is_stmt 0                @ ../Source/MComm.c:41:4
	str	r0, [sp]                        @ 4-byte Spill
	cmp	r0, #3
	bhi	.LBB3_20
@ %bb.6:                                @   in Loop: Header=BB3_4 Depth=1
	.loc	2 0 4                           @ ../Source/MComm.c:0:4
	ldr	r0, [sp]                        @ 4-byte Reload
	lsls	r1, r0, #2
	adr	r0, .LJTI3_0
	ldr	r0, [r0, r1]
	mov	pc, r0
@ %bb.7:
	.p2align	2
.LJTI3_0:
	.long	.LBB3_9+1
	.long	.LBB3_12+1
	.long	.LBB3_15+1
	.long	.LBB3_8+1
.LBB3_8:
.Ltmp15:
	.loc	2 44 7 is_stmt 1                @ ../Source/MComm.c:44:7
	b	.LBB3_22
.LBB3_9:
	.loc	2 0 7 is_stmt 0                 @ ../Source/MComm.c:0:7
	add	r0, sp, #4
.Ltmp16:
	.loc	2 46 9 is_stmt 1                @ ../Source/MComm.c:46:9
	ldrb	r0, [r0]
.Ltmp17:
	.loc	2 46 9 is_stmt 0                @ ../Source/MComm.c:46:9
	cmp	r0, #38
	beq	.LBB3_11
	b	.LBB3_10
.LBB3_10:
.Ltmp18:
	.loc	2 47 7 is_stmt 1                @ ../Source/MComm.c:47:7
	b	.LBB3_22
.Ltmp19:
.LBB3_11:
	.loc	2 48 21                         @ ../Source/MComm.c:48:21
	ldr	r0, [sp, #4]
	.loc	2 48 20 is_stmt 0               @ ../Source/MComm.c:48:20
	ldr	r1, __arm_cp.3_4
	strb	r0, [r1]
	.loc	2 49 13 is_stmt 1               @ ../Source/MComm.c:49:13
	ldr	r1, __arm_cp.3_3
	movs	r0, #1
	strh	r0, [r1]
	.loc	2 50 13                         @ ../Source/MComm.c:50:13
	ldr	r1, __arm_cp.3_2
	strb	r0, [r1]
	.loc	2 51 6                          @ ../Source/MComm.c:51:6
	b	.LBB3_22
.LBB3_12:
	.loc	2 0 6 is_stmt 0                 @ ../Source/MComm.c:0:6
	add	r0, sp, #4
.Ltmp20:
	.loc	2 53 9 is_stmt 1                @ ../Source/MComm.c:53:9
	ldrb	r0, [r0]
.Ltmp21:
	.loc	2 53 9 is_stmt 0                @ ../Source/MComm.c:53:9
	cmp	r0, #11
	blt	.LBB3_14
	b	.LBB3_13
.LBB3_13:
.Ltmp22:
	.loc	2 55 14 is_stmt 1               @ ../Source/MComm.c:55:14
	ldr	r1, __arm_cp.3_2
	movs	r0, #0
	strb	r0, [r1]
	.loc	2 56 7                          @ ../Source/MComm.c:56:7
	b	.LBB3_22
.Ltmp23:
.LBB3_14:
	.loc	2 0 7 is_stmt 0                 @ ../Source/MComm.c:0:7
	add	r0, sp, #4
	.loc	2 58 27 is_stmt 1               @ ../Source/MComm.c:58:27
	ldrb	r0, [r0]
	.loc	2 58 18 is_stmt 0               @ ../Source/MComm.c:58:18
	lsls	r1, r0, #1
	ldr	r0, __arm_cp.3_6
	ldrh	r0, [r0, r1]
	.loc	2 58 17                         @ ../Source/MComm.c:58:17
	ldr	r1, __arm_cp.3_5
	strh	r0, [r1]
	.loc	2 59 31 is_stmt 1               @ ../Source/MComm.c:59:31
	ldr	r0, [sp, #4]
	.loc	2 59 25 is_stmt 0               @ ../Source/MComm.c:59:25
	ldr	r3, __arm_cp.3_3
	ldrh	r2, [r3]
	adds	r1, r2, #1
	strh	r1, [r3]
	.loc	2 59 6                          @ ../Source/MComm.c:59:6
	ldr	r1, __arm_cp.3_4
	.loc	2 59 29                         @ ../Source/MComm.c:59:29
	strb	r0, [r1, r2]
	.loc	2 60 13 is_stmt 1               @ ../Source/MComm.c:60:13
	ldr	r1, __arm_cp.3_2
	movs	r0, #2
	strb	r0, [r1]
	.loc	2 61 6                          @ ../Source/MComm.c:61:6
	b	.LBB3_22
.LBB3_15:                               @   in Loop: Header=BB3_4 Depth=1
	.loc	2 63 31                         @ ../Source/MComm.c:63:31
	ldr	r1, [sp, #4]
	.loc	2 63 25 is_stmt 0               @ ../Source/MComm.c:63:25
	ldr	r0, __arm_cp.3_3
	ldrh	r3, [r0]
	adds	r2, r3, #1
	strh	r2, [r0]
	.loc	2 63 6                          @ ../Source/MComm.c:63:6
	ldr	r2, __arm_cp.3_4
	.loc	2 63 29                         @ ../Source/MComm.c:63:29
	strb	r1, [r2, r3]
.Ltmp24:
	.loc	2 64 9 is_stmt 1                @ ../Source/MComm.c:64:9
	ldrh	r0, [r0]
	.loc	2 64 18 is_stmt 0               @ ../Source/MComm.c:64:18
	ldr	r1, __arm_cp.3_5
	ldrh	r1, [r1]
.Ltmp25:
	.loc	2 64 9                          @ ../Source/MComm.c:64:9
	cmp	r0, r1
	bne	.LBB3_19
	b	.LBB3_16
.LBB3_16:
	.loc	2 0 9                           @ ../Source/MComm.c:0:9
	add	r0, sp, #4
.Ltmp26:
	.loc	2 66 10 is_stmt 1               @ ../Source/MComm.c:66:10
	ldrb	r0, [r0]
.Ltmp27:
	.loc	2 66 10 is_stmt 0               @ ../Source/MComm.c:66:10
	cmp	r0, #126
	beq	.LBB3_18
	b	.LBB3_17
.LBB3_17:
.Ltmp28:
	.loc	2 68 15 is_stmt 1               @ ../Source/MComm.c:68:15
	ldr	r1, __arm_cp.3_2
	movs	r0, #0
	strb	r0, [r1]
	.loc	2 69 8                          @ ../Source/MComm.c:69:8
	b	.LBB3_22
.Ltmp29:
.LBB3_18:
	.loc	2 71 14                         @ ../Source/MComm.c:71:14
	ldr	r1, __arm_cp.3_2
	movs	r0, #3
	strb	r0, [r1]
	.loc	2 72 7                          @ ../Source/MComm.c:72:7
	b	.LBB3_22
.Ltmp30:
.LBB3_19:                               @   in Loop: Header=BB3_4 Depth=1
	.loc	2 74 4                          @ ../Source/MComm.c:74:4
	b	.LBB3_20
.Ltmp31:
.LBB3_20:                               @   in Loop: Header=BB3_4 Depth=1
	.loc	2 38 3                          @ ../Source/MComm.c:38:3
	b	.LBB3_4
.LBB3_21:
	.loc	2 77 2                          @ ../Source/MComm.c:77:2
	b	.LBB3_22
.Ltmp32:
.LBB3_22:
	.loc	2 78 1                          @ ../Source/MComm.c:78:1
	add	sp, #8
	bx	lr
.Ltmp33:
	.p2align	2
@ %bb.23:
	.loc	2 0 1 is_stmt 0                 @ ../Source/MComm.c:0:1
__arm_cp.3_0:
	.long	1074208796                      @ 0x4007201c
.Lcpi_end5:
	.size	__arm_cp.3_0, .Lcpi_end5-__arm_cp.3_0
__arm_cp.3_1:
	.long	1074208768                      @ 0x40072000
.Lcpi_end6:
	.size	__arm_cp.3_1, .Lcpi_end6-__arm_cp.3_1
__arm_cp.3_2:
	.long	RxState
.Lcpi_end7:
	.size	__arm_cp.3_2, .Lcpi_end7-__arm_cp.3_2
__arm_cp.3_3:
	.long	RxCount
.Lcpi_end8:
	.size	__arm_cp.3_3, .Lcpi_end8-__arm_cp.3_3
__arm_cp.3_4:
	.long	MCOMMRxBuff
.Lcpi_end9:
	.size	__arm_cp.3_4, .Lcpi_end9-__arm_cp.3_4
__arm_cp.3_5:
	.long	ExpectedLEN
.Lcpi_end10:
	.size	__arm_cp.3_5, .Lcpi_end10-__arm_cp.3_5
__arm_cp.3_6:
	.long	LENTABLE
.Lcpi_end11:
	.size	__arm_cp.3_6, .Lcpi_end11-__arm_cp.3_6
.Lfunc_end3:
	.size	UART02_IRQHandler, .Lfunc_end3-UART02_IRQHandler
	.cfi_endproc
	.cantunwind
	.fnend
                                        @ -- End function
	.section	.text.MCOMM_SendSuccess,"ax",%progbits
	.hidden	MCOMM_SendSuccess               @ -- Begin function MCOMM_SendSuccess
	.globl	MCOMM_SendSuccess
	.p2align	2
	.type	MCOMM_SendSuccess,%function
	.code	16                              @ @MCOMM_SendSuccess
	.thumb_func
MCOMM_SendSuccess:
.Lfunc_begin4:
	.loc	2 81 0 is_stmt 1                @ ../Source/MComm.c:81:0
	.fnstart
	.cfi_startproc
@ %bb.0:
	.save	{r7, lr}
	push	{r7, lr}
	.cfi_def_cfa_offset 8
	.cfi_offset lr, -4
	.cfi_offset r7, -8
.Ltmp34:
	.loc	2 82 2 prologue_end             @ ../Source/MComm.c:82:2
	bl	ClearMCOMMTXBuffer
	.loc	2 83 38                         @ ../Source/MComm.c:83:38
	ldr	r0, __arm_cp.4_0
	movs	r1, #38
	strb	r1, [r0]
	movs	r1, #1
	.loc	2 84 40                         @ ../Source/MComm.c:84:40
	strb	r1, [r0, #1]
	movs	r1, #126
	.loc	2 85 42                         @ ../Source/MComm.c:85:42
	strb	r1, [r0, #2]
	movs	r1, #3
	.loc	2 86 2                          @ ../Source/MComm.c:86:2
	bl	SendDatatoModem
	.loc	2 87 1                          @ ../Source/MComm.c:87:1
	pop	{r7, pc}
.Ltmp35:
	.p2align	2
@ %bb.1:
	.loc	2 0 1 is_stmt 0                 @ ../Source/MComm.c:0:1
__arm_cp.4_0:
	.long	MCOMMTxBuff
.Lcpi_end12:
	.size	__arm_cp.4_0, .Lcpi_end12-__arm_cp.4_0
.Lfunc_end4:
	.size	MCOMM_SendSuccess, .Lfunc_end4-MCOMM_SendSuccess
	.cfi_endproc
	.cantunwind
	.fnend
                                        @ -- End function
	.section	.text.ClearMCOMMTXBuffer,"ax",%progbits
	.p2align	2                               @ -- Begin function ClearMCOMMTXBuffer
	.type	ClearMCOMMTXBuffer,%function
	.code	16                              @ @ClearMCOMMTXBuffer
	.thumb_func
ClearMCOMMTXBuffer:
.Lfunc_begin5:
	.loc	4 33 0 is_stmt 1                @ ../Header\MComm.h:33:0
	.fnstart
	.cfi_startproc
@ %bb.0:
	.save	{r7, lr}
	push	{r7, lr}
	.cfi_def_cfa_offset 8
	.cfi_offset lr, -4
	.cfi_offset r7, -8
.Ltmp36:
	.loc	4 34 5 prologue_end             @ ../Header\MComm.h:34:5
	ldr	r0, __arm_cp.5_0
	movs	r1, #75
	lsls	r1, r1, #2
	bl	__aeabi_memclr
	.loc	4 35 1                          @ ../Header\MComm.h:35:1
	pop	{r7, pc}
.Ltmp37:
	.p2align	2
@ %bb.1:
	.loc	4 0 1 is_stmt 0                 @ ../Header\MComm.h:0:1
__arm_cp.5_0:
	.long	MCOMMTxBuff
.Lcpi_end13:
	.size	__arm_cp.5_0, .Lcpi_end13-__arm_cp.5_0
.Lfunc_end5:
	.size	ClearMCOMMTXBuffer, .Lfunc_end5-ClearMCOMMTXBuffer
	.cfi_endproc
	.cantunwind
	.fnend
                                        @ -- End function
	.section	.text.MCOMM_SendError,"ax",%progbits
	.hidden	MCOMM_SendError                 @ -- Begin function MCOMM_SendError
	.globl	MCOMM_SendError
	.p2align	2
	.type	MCOMM_SendError,%function
	.code	16                              @ @MCOMM_SendError
	.thumb_func
MCOMM_SendError:
.Lfunc_begin6:
	.loc	2 90 0 is_stmt 1                @ ../Source/MComm.c:90:0
	.fnstart
	.cfi_startproc
@ %bb.0:
	.save	{r7, lr}
	push	{r7, lr}
	.cfi_def_cfa_offset 8
	.cfi_offset lr, -4
	.cfi_offset r7, -8
.Ltmp38:
	.loc	2 91 2 prologue_end             @ ../Source/MComm.c:91:2
	bl	ClearMCOMMTXBuffer
	.loc	2 92 38                         @ ../Source/MComm.c:92:38
	ldr	r0, __arm_cp.6_0
	movs	r1, #38
	strb	r1, [r0]
	movs	r1, #0
	.loc	2 93 40                         @ ../Source/MComm.c:93:40
	strb	r1, [r0, #1]
	movs	r1, #126
	.loc	2 94 40                         @ ../Source/MComm.c:94:40
	strb	r1, [r0, #2]
	movs	r1, #3
	.loc	2 95 2                          @ ../Source/MComm.c:95:2
	bl	SendDatatoModem
	.loc	2 96 1                          @ ../Source/MComm.c:96:1
	pop	{r7, pc}
.Ltmp39:
	.p2align	2
@ %bb.1:
	.loc	2 0 1 is_stmt 0                 @ ../Source/MComm.c:0:1
__arm_cp.6_0:
	.long	MCOMMTxBuff
.Lcpi_end14:
	.size	__arm_cp.6_0, .Lcpi_end14-__arm_cp.6_0
.Lfunc_end6:
	.size	MCOMM_SendError, .Lfunc_end6-MCOMM_SendError
	.cfi_endproc
	.cantunwind
	.fnend
                                        @ -- End function
	.section	.text.MCOMM_SendPhpr,"ax",%progbits
	.hidden	MCOMM_SendPhpr                  @ -- Begin function MCOMM_SendPhpr
	.globl	MCOMM_SendPhpr
	.p2align	2
	.type	MCOMM_SendPhpr,%function
	.code	16                              @ @MCOMM_SendPhpr
	.thumb_func
MCOMM_SendPhpr:
.Lfunc_begin7:
	.loc	2 99 0 is_stmt 1                @ ../Source/MComm.c:99:0
	.fnstart
	.cfi_startproc
@ %bb.0:
	.save	{r7, lr}
	push	{r7, lr}
	.cfi_def_cfa_offset 8
	.cfi_offset lr, -4
	.cfi_offset r7, -8
	.pad	#8
	sub	sp, #8
	.cfi_def_cfa_offset 16
.Ltmp40:
	.loc	2 100 2 prologue_end            @ ../Source/MComm.c:100:2
	bl	ClearMCOMMTXBuffer
	.loc	2 101 38                        @ ../Source/MComm.c:101:38
	ldr	r0, __arm_cp.7_0
	str	r0, [sp, #4]                    @ 4-byte Spill
	movs	r1, #38
	strb	r1, [r0]
	movs	r1, #2
	.loc	2 102 40                        @ ../Source/MComm.c:102:40
	strb	r1, [r0, #1]
	.loc	2 103 2                         @ ../Source/MComm.c:103:2
	adds	r0, r0, #2
	ldr	r1, __arm_cp.7_1
	movs	r2, #56
	bl	__aeabi_memcpy
                                        @ kill: def $r1 killed $r0
	ldr	r0, [sp, #4]                    @ 4-byte Reload
	movs	r2, #58
	movs	r1, #126
	.loc	2 104 40                        @ ../Source/MComm.c:104:40
	strb	r1, [r0, r2]
	movs	r1, #59
	.loc	2 105 2                         @ ../Source/MComm.c:105:2
	bl	SendDatatoModem
	.loc	2 106 1                         @ ../Source/MComm.c:106:1
	add	sp, #8
	pop	{r7, pc}
.Ltmp41:
	.p2align	2
@ %bb.1:
	.loc	2 0 1 is_stmt 0                 @ ../Source/MComm.c:0:1
__arm_cp.7_0:
	.long	MCOMMTxBuff
.Lcpi_end15:
	.size	__arm_cp.7_0, .Lcpi_end15-__arm_cp.7_0
__arm_cp.7_1:
	.long	PeriPheralVal
.Lcpi_end16:
	.size	__arm_cp.7_1, .Lcpi_end16-__arm_cp.7_1
.Lfunc_end7:
	.size	MCOMM_SendPhpr, .Lfunc_end7-MCOMM_SendPhpr
	.cfi_endproc
	.cantunwind
	.fnend
                                        @ -- End function
	.section	.text.MCOMM_SendMeter,"ax",%progbits
	.hidden	MCOMM_SendMeter                 @ -- Begin function MCOMM_SendMeter
	.globl	MCOMM_SendMeter
	.p2align	2
	.type	MCOMM_SendMeter,%function
	.code	16                              @ @MCOMM_SendMeter
	.thumb_func
MCOMM_SendMeter:
.Lfunc_begin8:
	.loc	2 109 0 is_stmt 1               @ ../Source/MComm.c:109:0
	.fnstart
	.cfi_startproc
@ %bb.0:
	.save	{r7, lr}
	push	{r7, lr}
	.cfi_def_cfa_offset 8
	.cfi_offset lr, -4
	.cfi_offset r7, -8
	.pad	#8
	sub	sp, #8
	.cfi_def_cfa_offset 16
.Ltmp42:
	.loc	2 110 2 prologue_end            @ ../Source/MComm.c:110:2
	bl	ClearMCOMMTXBuffer
	.loc	2 111 38                        @ ../Source/MComm.c:111:38
	ldr	r0, __arm_cp.8_0
	str	r0, [sp, #4]                    @ 4-byte Spill
	movs	r1, #38
	strb	r1, [r0]
	movs	r1, #4
	.loc	2 112 40                        @ ../Source/MComm.c:112:40
	strb	r1, [r0, #1]
	.loc	2 113 2                         @ ../Source/MComm.c:113:2
	adds	r0, r0, #2
	ldr	r1, __arm_cp.8_1
	movs	r2, #64
	bl	__aeabi_memcpy
                                        @ kill: def $r1 killed $r0
	ldr	r0, [sp, #4]                    @ 4-byte Reload
	movs	r2, #66
	movs	r1, #126
	.loc	2 114 40                        @ ../Source/MComm.c:114:40
	strb	r1, [r0, r2]
	movs	r1, #67
	.loc	2 115 2                         @ ../Source/MComm.c:115:2
	bl	SendDatatoModem
	.loc	2 116 1                         @ ../Source/MComm.c:116:1
	add	sp, #8
	pop	{r7, pc}
.Ltmp43:
	.p2align	2
@ %bb.1:
	.loc	2 0 1 is_stmt 0                 @ ../Source/MComm.c:0:1
__arm_cp.8_0:
	.long	MCOMMTxBuff
.Lcpi_end17:
	.size	__arm_cp.8_0, .Lcpi_end17-__arm_cp.8_0
__arm_cp.8_1:
	.long	MeterParam
.Lcpi_end18:
	.size	__arm_cp.8_1, .Lcpi_end18-__arm_cp.8_1
.Lfunc_end8:
	.size	MCOMM_SendMeter, .Lfunc_end8-MCOMM_SendMeter
	.cfi_endproc
	.cantunwind
	.fnend
                                        @ -- End function
	.section	.text.MCOMM_SendRTC,"ax",%progbits
	.hidden	MCOMM_SendRTC                   @ -- Begin function MCOMM_SendRTC
	.globl	MCOMM_SendRTC
	.p2align	2
	.type	MCOMM_SendRTC,%function
	.code	16                              @ @MCOMM_SendRTC
	.thumb_func
MCOMM_SendRTC:
.Lfunc_begin9:
	.loc	2 119 0 is_stmt 1               @ ../Source/MComm.c:119:0
	.fnstart
	.cfi_startproc
@ %bb.0:
	.save	{r7, lr}
	push	{r7, lr}
	.cfi_def_cfa_offset 8
	.cfi_offset lr, -4
	.cfi_offset r7, -8
	.pad	#16
	sub	sp, #16
	.cfi_def_cfa_offset 24
.Ltmp44:
	.loc	2 121 2 prologue_end            @ ../Source/MComm.c:121:2
	bl	ClearMCOMMTXBuffer
	.loc	2 122 38                        @ ../Source/MComm.c:122:38
	ldr	r1, __arm_cp.9_0
	movs	r0, #38
	strb	r0, [r1]
	movs	r0, #7
	.loc	2 123 40                        @ ../Source/MComm.c:123:40
	strb	r0, [r1, #1]
	.loc	2 124 16                        @ ../Source/MComm.c:124:16
	ldr	r0, __arm_cp.9_1
	ldrb	r0, [r0]
	add	r1, sp, #12
	.loc	2 124 3 is_stmt 0               @ ../Source/MComm.c:124:3
	strb	r0, [r1]
.Ltmp45:
	.loc	2 125 6 is_stmt 1               @ ../Source/MComm.c:125:6
	ldr	r0, __arm_cp.9_2
	ldrb	r0, [r0]
.Ltmp46:
	.loc	2 125 5 is_stmt 0               @ ../Source/MComm.c:125:5
	cmp	r0, #0
	bne	.LBB9_2
	b	.LBB9_1
.LBB9_1:
.Ltmp47:
	.loc	2 126 19 is_stmt 1              @ ../Source/MComm.c:126:19
	ldr	r1, __arm_cp.9_1
	movs	r0, #254
	strh	r0, [r1]
	.loc	2 126 3 is_stmt 0               @ ../Source/MComm.c:126:3
	b	.LBB9_2
.Ltmp48:
.LBB9_2:
	.loc	2 127 2 is_stmt 1               @ ../Source/MComm.c:127:2
	ldr	r0, __arm_cp.9_0
	str	r0, [sp, #8]                    @ 4-byte Spill
	adds	r0, r0, #2
	ldr	r1, __arm_cp.9_1
	str	r1, [sp, #4]                    @ 4-byte Spill
	movs	r2, #8
	bl	__aeabi_memcpy
	ldr	r2, [sp, #4]                    @ 4-byte Reload
                                        @ kill: def $r1 killed $r0
	ldr	r0, [sp, #8]                    @ 4-byte Reload
	add	r1, sp, #12
	.loc	2 128 19                        @ ../Source/MComm.c:128:19
	ldrb	r1, [r1]
	.loc	2 128 18 is_stmt 0              @ ../Source/MComm.c:128:18
	strh	r1, [r2]
	movs	r1, #126
	.loc	2 129 41 is_stmt 1              @ ../Source/MComm.c:129:41
	strb	r1, [r0, #10]
	movs	r1, #11
	.loc	2 130 2                         @ ../Source/MComm.c:130:2
	bl	SendDatatoModem
	.loc	2 131 1                         @ ../Source/MComm.c:131:1
	add	sp, #16
	pop	{r7, pc}
.Ltmp49:
	.p2align	2
@ %bb.3:
	.loc	2 0 1 is_stmt 0                 @ ../Source/MComm.c:0:1
__arm_cp.9_0:
	.long	MCOMMTxBuff
.Lcpi_end19:
	.size	__arm_cp.9_0, .Lcpi_end19-__arm_cp.9_0
__arm_cp.9_1:
	.long	RTCDateTime
.Lcpi_end20:
	.size	__arm_cp.9_1, .Lcpi_end20-__arm_cp.9_1
__arm_cp.9_2:
	.long	IsRTC
.Lcpi_end21:
	.size	__arm_cp.9_2, .Lcpi_end21-__arm_cp.9_2
.Lfunc_end9:
	.size	MCOMM_SendRTC, .Lfunc_end9-MCOMM_SendRTC
	.cfi_endproc
	.cantunwind
	.fnend
                                        @ -- End function
	.section	.text.MCOMM_SendAstroData,"ax",%progbits
	.hidden	MCOMM_SendAstroData             @ -- Begin function MCOMM_SendAstroData
	.globl	MCOMM_SendAstroData
	.p2align	2
	.type	MCOMM_SendAstroData,%function
	.code	16                              @ @MCOMM_SendAstroData
	.thumb_func
MCOMM_SendAstroData:
.Lfunc_begin10:
	.loc	2 134 0 is_stmt 1               @ ../Source/MComm.c:134:0
	.fnstart
	.cfi_startproc
@ %bb.0:
	.save	{r4, r5, r7, lr}
	push	{r4, r5, r7, lr}
	.cfi_def_cfa_offset 16
	.cfi_offset lr, -4
	.cfi_offset r7, -8
	.cfi_offset r5, -12
	.cfi_offset r4, -16
	.pad	#40
	sub	sp, #40
	.cfi_def_cfa_offset 56
.Ltmp50:
	.loc	2 136 35 prologue_end           @ ../Source/MComm.c:136:35
	ldr	r2, __arm_cp.10_0
	str	r2, [sp, #16]                   @ 4-byte Spill
	ldrh	r0, [r2]
	.loc	2 136 61 is_stmt 0              @ ../Source/MComm.c:136:61
	ldrb	r1, [r2, #2]
	.loc	2 136 88                        @ ../Source/MComm.c:136:88
	ldrb	r2, [r2, #3]
	.loc	2 136 7                         @ ../Source/MComm.c:136:7
	bl	calcJD
	mov	r2, r0
	ldr	r0, [sp, #16]                   @ 4-byte Reload
	str	r2, [sp, #12]                   @ 4-byte Spill
	mov	r2, r1
	.loc	2 136 5                         @ ../Source/MComm.c:136:5
	ldr	r1, [sp, #12]                   @ 4-byte Reload
	str	r2, [sp, #36]
	str	r1, [sp, #32]
	.loc	2 137 20 is_stmt 1              @ ../Source/MComm.c:137:20
	ldr	r3, [r0, #12]
	ldr	r2, [r0, #8]
	ldr	r4, [r0, #16]
	ldr	r5, [r0, #20]
	ldr	r1, [sp, #36]
	ldr	r0, [sp, #32]
	str	r5, [sp, #4]
	str	r4, [sp]
	bl	calcSunriseUTC
	mov	r2, r0
	ldr	r0, [sp, #16]                   @ 4-byte Reload
	str	r2, [sp, #20]                   @ 4-byte Spill
	mov	r3, r1
	.loc	2 137 18 is_stmt 0              @ ../Source/MComm.c:137:18
	ldr	r1, [sp, #20]                   @ 4-byte Reload
	ldr	r2, __arm_cp.10_1
	str	r2, [sp, #24]                   @ 4-byte Spill
	str	r3, [r2, #12]
	str	r1, [r2, #8]
	.loc	2 138 20 is_stmt 1              @ ../Source/MComm.c:138:20
	ldr	r3, [r0, #12]
	ldr	r2, [r0, #8]
	ldr	r4, [r0, #16]
	ldr	r5, [r0, #20]
	ldr	r1, [sp, #36]
	ldr	r0, [sp, #32]
	str	r5, [sp, #4]
	str	r4, [sp]
	bl	calcSunsetUTC
	mov	r2, r1
	.loc	2 138 18 is_stmt 0              @ ../Source/MComm.c:138:18
	ldr	r1, [sp, #24]                   @ 4-byte Reload
	str	r2, [r1, #4]
	str	r0, [r1]
	.loc	2 139 2 is_stmt 1               @ ../Source/MComm.c:139:2
	bl	ClearMCOMMTXBuffer
	ldr	r1, [sp, #24]                   @ 4-byte Reload
	.loc	2 140 38                        @ ../Source/MComm.c:140:38
	ldr	r0, __arm_cp.10_2
	str	r0, [sp, #28]                   @ 4-byte Spill
	movs	r2, #38
	strb	r2, [r0]
	movs	r2, #10
	.loc	2 141 40                        @ ../Source/MComm.c:141:40
	strb	r2, [r0, #1]
	.loc	2 142 2                         @ ../Source/MComm.c:142:2
	adds	r0, r0, #2
	movs	r2, #16
	bl	__aeabi_memcpy
                                        @ kill: def $r1 killed $r0
	ldr	r0, [sp, #28]                   @ 4-byte Reload
	movs	r1, #126
	.loc	2 143 41                        @ ../Source/MComm.c:143:41
	strb	r1, [r0, #18]
	movs	r1, #19
	.loc	2 144 2                         @ ../Source/MComm.c:144:2
	bl	SendDatatoModem
	.loc	2 145 1                         @ ../Source/MComm.c:145:1
	add	sp, #40
	pop	{r4, r5, r7, pc}
.Ltmp51:
	.p2align	2
@ %bb.1:
	.loc	2 0 1 is_stmt 0                 @ ../Source/MComm.c:0:1
__arm_cp.10_0:
	.long	AstroReq
.Lcpi_end22:
	.size	__arm_cp.10_0, .Lcpi_end22-__arm_cp.10_0
__arm_cp.10_1:
	.long	AstroRep
.Lcpi_end23:
	.size	__arm_cp.10_1, .Lcpi_end23-__arm_cp.10_1
__arm_cp.10_2:
	.long	MCOMMTxBuff
.Lcpi_end24:
	.size	__arm_cp.10_2, .Lcpi_end24-__arm_cp.10_2
.Lfunc_end10:
	.size	MCOMM_SendAstroData, .Lfunc_end10-MCOMM_SendAstroData
	.cfi_endproc
	.cantunwind
	.fnend
                                        @ -- End function
	.section	.text.ParseModemData,"ax",%progbits
	.hidden	ParseModemData                  @ -- Begin function ParseModemData
	.globl	ParseModemData
	.p2align	2
	.type	ParseModemData,%function
	.code	16                              @ @ParseModemData
	.thumb_func
ParseModemData:
.Lfunc_begin11:
	.loc	2 150 0 is_stmt 1               @ ../Source/MComm.c:150:0
	.fnstart
	.cfi_startproc
@ %bb.0:
	.save	{r7, lr}
	push	{r7, lr}
	.cfi_def_cfa_offset 8
	.cfi_offset lr, -4
	.cfi_offset r7, -8
	.pad	#8
	sub	sp, #8
	.cfi_def_cfa_offset 16
.Ltmp52:
	.loc	2 151 5 prologue_end            @ ../Source/MComm.c:151:5
	ldr	r0, __arm_cp.11_0
	ldrb	r0, [r0, #1]
.Ltmp53:
	.loc	2 151 5 is_stmt 0               @ ../Source/MComm.c:151:5
	cmp	r0, #2
	bne	.LBB11_2
	b	.LBB11_1
.LBB11_1:
.Ltmp54:
	.loc	2 153 3 is_stmt 1               @ ../Source/MComm.c:153:3
	bl	MCOMM_SendPhpr
	.loc	2 154 3                         @ ../Source/MComm.c:154:3
	b	.LBB11_12
.Ltmp55:
.LBB11_2:
	.loc	2 156 5                         @ ../Source/MComm.c:156:5
	ldr	r0, __arm_cp.11_0
	ldrb	r0, [r0, #1]
.Ltmp56:
	.loc	2 156 5 is_stmt 0               @ ../Source/MComm.c:156:5
	cmp	r0, #3
	bne	.LBB11_4
	b	.LBB11_3
.LBB11_3:
.Ltmp57:
	.loc	2 158 3 is_stmt 1               @ ../Source/MComm.c:158:3
	ldr	r0, __arm_cp.11_0
	adds	r1, r0, #2
	ldr	r0, __arm_cp.11_4
	str	r0, [sp, #4]                    @ 4-byte Spill
	movs	r2, #56
	bl	__aeabi_memcpy
                                        @ kill: def $r1 killed $r0
	.loc	2 159 32                        @ ../Source/MComm.c:159:32
	ldr	r0, [sp, #4]                    @ 4-byte Reload
	ldrb	r2, [r0, #4]
	.loc	2 159 20 is_stmt 0              @ ../Source/MComm.c:159:20
	ldr	r1, __arm_cp.11_5
	strb	r2, [r1, #4]
	.loc	2 160 32 is_stmt 1              @ ../Source/MComm.c:160:32
	ldrb	r2, [r0, #5]
	.loc	2 160 20 is_stmt 0              @ ../Source/MComm.c:160:20
	strb	r2, [r1, #5]
	.loc	2 161 32 is_stmt 1              @ ../Source/MComm.c:161:32
	ldrb	r2, [r0, #6]
	.loc	2 161 20 is_stmt 0              @ ../Source/MComm.c:161:20
	strb	r2, [r1, #6]
	.loc	2 162 32 is_stmt 1              @ ../Source/MComm.c:162:32
	ldrb	r2, [r0, #3]
	.loc	2 162 20 is_stmt 0              @ ../Source/MComm.c:162:20
	strb	r2, [r1, #3]
	.loc	2 163 33 is_stmt 1              @ ../Source/MComm.c:163:33
	ldrb	r2, [r0, #9]
	.loc	2 163 21 is_stmt 0              @ ../Source/MComm.c:163:21
	strb	r2, [r1, #9]
	.loc	2 164 33 is_stmt 1              @ ../Source/MComm.c:164:33
	ldrb	r2, [r0, #10]
	.loc	2 164 21 is_stmt 0              @ ../Source/MComm.c:164:21
	strb	r2, [r1, #10]
	.loc	2 165 42 is_stmt 1              @ ../Source/MComm.c:165:42
	ldr	r0, [r0, #48]
	.loc	2 165 30 is_stmt 0              @ ../Source/MComm.c:165:30
	str	r0, [r1, #48]
	.loc	2 166 3 is_stmt 1               @ ../Source/MComm.c:166:3
	bl	MCOMM_SendSuccess
	.loc	2 167 3                         @ ../Source/MComm.c:167:3
	b	.LBB11_12
.Ltmp58:
.LBB11_4:
	.loc	2 169 5                         @ ../Source/MComm.c:169:5
	ldr	r0, __arm_cp.11_0
	ldrb	r0, [r0, #1]
.Ltmp59:
	.loc	2 169 5 is_stmt 0               @ ../Source/MComm.c:169:5
	cmp	r0, #4
	bne	.LBB11_6
	b	.LBB11_5
.LBB11_5:
.Ltmp60:
	.loc	2 171 3 is_stmt 1               @ ../Source/MComm.c:171:3
	bl	MCOMM_SendMeter
	.loc	2 172 3                         @ ../Source/MComm.c:172:3
	b	.LBB11_12
.Ltmp61:
.LBB11_6:
	.loc	2 174 5                         @ ../Source/MComm.c:174:5
	ldr	r0, __arm_cp.11_0
	ldrb	r0, [r0, #1]
.Ltmp62:
	.loc	2 174 5 is_stmt 0               @ ../Source/MComm.c:174:5
	cmp	r0, #7
	bne	.LBB11_8
	b	.LBB11_7
.LBB11_7:
.Ltmp63:
	.loc	2 176 3 is_stmt 1               @ ../Source/MComm.c:176:3
	bl	MCOMM_SendRTC
	.loc	2 177 3                         @ ../Source/MComm.c:177:3
	b	.LBB11_12
.Ltmp64:
.LBB11_8:
	.loc	2 179 5                         @ ../Source/MComm.c:179:5
	ldr	r0, __arm_cp.11_0
	ldrb	r0, [r0, #1]
.Ltmp65:
	.loc	2 179 5 is_stmt 0               @ ../Source/MComm.c:179:5
	cmp	r0, #8
	bne	.LBB11_10
	b	.LBB11_9
.LBB11_9:
.Ltmp66:
	.loc	2 181 11 is_stmt 1              @ ../Source/MComm.c:181:11
	ldr	r1, __arm_cp.11_2
	movs	r0, #1
	strb	r0, [r1]
	.loc	2 182 3                         @ ../Source/MComm.c:182:3
	ldr	r0, __arm_cp.11_0
	adds	r1, r0, #2
	ldr	r0, __arm_cp.11_3
	movs	r2, #8
	bl	__aeabi_memcpy
	.loc	2 183 3                         @ ../Source/MComm.c:183:3
	bl	MCOMM_SendSuccess
	.loc	2 184 3                         @ ../Source/MComm.c:184:3
	b	.LBB11_12
.Ltmp67:
.LBB11_10:
	.loc	2 186 5                         @ ../Source/MComm.c:186:5
	ldr	r0, __arm_cp.11_0
	ldrb	r0, [r0, #1]
.Ltmp68:
	.loc	2 186 5 is_stmt 0               @ ../Source/MComm.c:186:5
	cmp	r0, #9
	bne	.LBB11_12
	b	.LBB11_11
.LBB11_11:
.Ltmp69:
	.loc	2 188 3 is_stmt 1               @ ../Source/MComm.c:188:3
	ldr	r0, __arm_cp.11_0
	adds	r1, r0, #2
	ldr	r0, __arm_cp.11_1
	movs	r2, #24
	bl	__aeabi_memcpy
	.loc	2 189 3                         @ ../Source/MComm.c:189:3
	bl	MCOMM_SendAstroData
	.loc	2 190 3                         @ ../Source/MComm.c:190:3
	b	.LBB11_12
.Ltmp70:
.LBB11_12:
	.loc	2 192 1                         @ ../Source/MComm.c:192:1
	add	sp, #8
	pop	{r7, pc}
.Ltmp71:
	.p2align	2
@ %bb.13:
	.loc	2 0 1 is_stmt 0                 @ ../Source/MComm.c:0:1
__arm_cp.11_0:
	.long	MCOMMRxBuff
.Lcpi_end25:
	.size	__arm_cp.11_0, .Lcpi_end25-__arm_cp.11_0
__arm_cp.11_1:
	.long	AstroReq
.Lcpi_end26:
	.size	__arm_cp.11_1, .Lcpi_end26-__arm_cp.11_1
__arm_cp.11_2:
	.long	IsRTCSet
.Lcpi_end27:
	.size	__arm_cp.11_2, .Lcpi_end27-__arm_cp.11_2
__arm_cp.11_3:
	.long	RTCDateTime
.Lcpi_end28:
	.size	__arm_cp.11_3, .Lcpi_end28-__arm_cp.11_3
__arm_cp.11_4:
	.long	RcvPhData
.Lcpi_end29:
	.size	__arm_cp.11_4, .Lcpi_end29-__arm_cp.11_4
__arm_cp.11_5:
	.long	PeriPheralVal
.Lcpi_end30:
	.size	__arm_cp.11_5, .Lcpi_end30-__arm_cp.11_5
.Lfunc_end11:
	.size	ParseModemData, .Lfunc_end11-ParseModemData
	.cfi_endproc
	.cantunwind
	.fnend
                                        @ -- End function
	.section	.text.ProcessModemComm,"ax",%progbits
	.hidden	ProcessModemComm                @ -- Begin function ProcessModemComm
	.globl	ProcessModemComm
	.p2align	2
	.type	ProcessModemComm,%function
	.code	16                              @ @ProcessModemComm
	.thumb_func
ProcessModemComm:
.Lfunc_begin12:
	.loc	2 195 0 is_stmt 1               @ ../Source/MComm.c:195:0
	.fnstart
	.cfi_startproc
@ %bb.0:
	.save	{r7, lr}
	push	{r7, lr}
	.cfi_def_cfa_offset 8
	.cfi_offset lr, -4
	.cfi_offset r7, -8
.Ltmp72:
	.loc	2 196 5 prologue_end            @ ../Source/MComm.c:196:5
	ldr	r0, __arm_cp.12_0
	ldrb	r0, [r0]
.Ltmp73:
	.loc	2 196 5 is_stmt 0               @ ../Source/MComm.c:196:5
	cmp	r0, #3
	beq	.LBB12_2
	b	.LBB12_1
.LBB12_1:
.Ltmp74:
	.loc	2 197 3 is_stmt 1               @ ../Source/MComm.c:197:3
	b	.LBB12_3
.Ltmp75:
.LBB12_2:
	.loc	2 199 2                         @ ../Source/MComm.c:199:2
	bl	ParseModemData
	.loc	2 200 2                         @ ../Source/MComm.c:200:2
	bl	ClearMCOMMRXBuffer
	.loc	2 201 9                         @ ../Source/MComm.c:201:9
	ldr	r1, __arm_cp.12_0
	movs	r0, #0
	strb	r0, [r1]
	.loc	2 202 1                         @ ../Source/MComm.c:202:1
	b	.LBB12_3
.LBB12_3:
	pop	{r7, pc}
.Ltmp76:
	.p2align	2
@ %bb.4:
	.loc	2 0 1 is_stmt 0                 @ ../Source/MComm.c:0:1
__arm_cp.12_0:
	.long	RxState
.Lcpi_end31:
	.size	__arm_cp.12_0, .Lcpi_end31-__arm_cp.12_0
.Lfunc_end12:
	.size	ProcessModemComm, .Lfunc_end12-ProcessModemComm
	.cfi_endproc
	.cantunwind
	.fnend
                                        @ -- End function
	.section	.text.ClearMCOMMRXBuffer,"ax",%progbits
	.p2align	2                               @ -- Begin function ClearMCOMMRXBuffer
	.type	ClearMCOMMRXBuffer,%function
	.code	16                              @ @ClearMCOMMRXBuffer
	.thumb_func
ClearMCOMMRXBuffer:
.Lfunc_begin13:
	.loc	4 28 0 is_stmt 1                @ ../Header\MComm.h:28:0
	.fnstart
	.cfi_startproc
@ %bb.0:
	.save	{r7, lr}
	push	{r7, lr}
	.cfi_def_cfa_offset 8
	.cfi_offset lr, -4
	.cfi_offset r7, -8
.Ltmp77:
	.loc	4 29 5 prologue_end             @ ../Header\MComm.h:29:5
	ldr	r0, __arm_cp.13_0
	movs	r1, #75
	lsls	r1, r1, #2
	bl	__aeabi_memclr
	.loc	4 30 1                          @ ../Header\MComm.h:30:1
	pop	{r7, pc}
.Ltmp78:
	.p2align	2
@ %bb.1:
	.loc	4 0 1 is_stmt 0                 @ ../Header\MComm.h:0:1
__arm_cp.13_0:
	.long	MCOMMRxBuff
.Lcpi_end32:
	.size	__arm_cp.13_0, .Lcpi_end32-__arm_cp.13_0
.Lfunc_end13:
	.size	ClearMCOMMRXBuffer, .Lfunc_end13-ClearMCOMMRXBuffer
	.cfi_endproc
	.cantunwind
	.fnend
                                        @ -- End function
	.hidden	RxState                         @ @RxState
	.type	RxState,%object
	.section	.bss.RxState,"aw",%nobits
	.globl	RxState
RxState:
	.byte	0                               @ 0x0
	.size	RxState, 1

	.hidden	MCOMMRxBuff                     @ @MCOMMRxBuff
	.type	MCOMMRxBuff,%object
	.section	.bss.MCOMMRxBuff,"aw",%nobits
	.globl	MCOMMRxBuff
MCOMMRxBuff:
	.zero	300
	.size	MCOMMRxBuff, 300

	.hidden	RxCount                         @ @RxCount
	.type	RxCount,%object
	.section	.bss.RxCount,"aw",%nobits
	.globl	RxCount
	.p2align	1
RxCount:
	.short	0                               @ 0x0
	.size	RxCount, 2

	.type	LENTABLE,%object                @ @LENTABLE
	.section	.rodata.LENTABLE,"a",%progbits
	.p2align	1
LENTABLE:
	.short	3                               @ 0x3
	.short	3                               @ 0x3
	.short	3                               @ 0x3
	.short	59                              @ 0x3b
	.short	3                               @ 0x3
	.short	304                             @ 0x130
	.short	304                             @ 0x130
	.short	3                               @ 0x3
	.short	11                              @ 0xb
	.short	27                              @ 0x1b
	.short	19                              @ 0x13
	.size	LENTABLE, 22

	.hidden	ExpectedLEN                     @ @ExpectedLEN
	.type	ExpectedLEN,%object
	.section	.bss.ExpectedLEN,"aw",%nobits
	.globl	ExpectedLEN
	.p2align	1
ExpectedLEN:
	.short	0                               @ 0x0
	.size	ExpectedLEN, 2

	.hidden	MCOMMTxBuff                     @ @MCOMMTxBuff
	.type	MCOMMTxBuff,%object
	.section	.bss.MCOMMTxBuff,"aw",%nobits
	.globl	MCOMMTxBuff
MCOMMTxBuff:
	.zero	300
	.size	MCOMMTxBuff, 300

	.hidden	AstroReq                        @ @AstroReq
	.type	AstroReq,%object
	.section	.bss.AstroReq,"aw",%nobits
	.globl	AstroReq
	.p2align	3
AstroReq:
	.zero	24
	.size	AstroReq, 24

	.hidden	AstroRep                        @ @AstroRep
	.type	AstroRep,%object
	.section	.bss.AstroRep,"aw",%nobits
	.globl	AstroRep
	.p2align	3
AstroRep:
	.zero	16
	.size	AstroRep, 16

	.hidden	RcvPhData                       @ @RcvPhData
	.type	RcvPhData,%object
	.section	.bss.RcvPhData,"aw",%nobits
	.globl	RcvPhData
	.p2align	3
RcvPhData:
	.zero	56
	.size	RcvPhData, 56

	.file	8 "C:\\Keil_v5\\ARM\\ARMCLANG\\Bin\\..\\include" "stdio.h"
	.section	".note.GNU-stack","",%progbits
	.eabi_attribute	30, 6	@ Tag_ABI_optimization_goals
	.ARM_attribute	16, 1	@ Tag_AV_eba