	.text
	.syntax unified
	.eabi_attribute	67, "2.09"	@ Tag_conformance
	.cpu	cortex-m0
	.eabi_attribute	6, 12	@ Tag_CPU_arch
	.eabi_attribute	7, 77	@ Tag_CPU_arch_profile
	.eabi_attribute	8, 0	@ Tag_ARM_ISA_use
	.eabi_attribute	9, 1	@ Tag_THUMB_ISA_use
	.eabi_attribute	34, 0	@ Tag_CPU_unaligned_access
	.eabi_attribute	17, 1	@ Tag_ABI_PCS_GOT_use
	.eabi_attribute	20, 2	@ Tag_ABI_FP_denormal
	.eabi_attribute	21, 0	@ Tag_ABI_FP_exceptions
	.eabi_attribute	23, 1	@ Tag_ABI_FP_number_model
	.eabi_attribute	24, 1	@ Tag_ABI_align_needed
	.eabi_attribute	25, 1	@ Tag_ABI_align_preserved
	.eabi_attribute	38, 1	@ Tag_ABI_FP_16bit_format
	.eabi_attribute	18, 2	@ Tag_ABI_PCS_wchar_t
	.eabi_attribute	26, 1	@ Tag_ABI_enum_size
	.eabi_attribute	14, 0	@ Tag_ABI_PCS_R9_use
	.file	"NMEAParser.c"
	.file	1 "D:\\Projects\\CCMSFloridaPhpr\\Application\\KEIL" "../Header\\NMEAParser.h"
	.file	2 "C:\\Keil_v5\\ARM\\ARMCLANG\\Bin\\..\\include" "time.h"
	.section	.text.NMEA_Checksum,"ax",%progbits
	.hidden	NMEA_Checksum                   @ -- Begin function NMEA_Checksum
	.globl	NMEA_Checksum
	.p2align	1
	.type	NMEA_Checksum,%function
	.code	16                              @ @NMEA_Checksum
	.thumb_func
NMEA_Checksum:
.Lfunc_begin0:
	.file	3 "D:\\Projects\\CCMSFloridaPhpr\\Application\\KEIL" "../Source/NMEAParser.c"
	.loc	3 26 0                          @ ../Source/NMEAParser.c:26:0
	.fnstart
	.cfi_sections .debug_frame
	.cfi_startproc
@ %bb.0:
	.pad	#12
	sub	sp, #12
	.cfi_def_cfa_offset 12
	str	r0, [sp, #8]
	add	r1, sp, #4
	movs	r0, #0
.Ltmp0:
	.loc	3 27 10 prologue_end            @ ../Source/NMEAParser.c:27:10
	strb	r0, [r1]
.Ltmp1:
	.loc	3 29 10                         @ ../Source/NMEAParser.c:29:10
	ldr	r0, [sp, #8]
	.loc	3 29 9 is_stmt 0                @ ../Source/NMEAParser.c:29:9
	ldrb	r0, [r0]
.Ltmp2:
	.loc	3 29 9                          @ ../Source/NMEAParser.c:29:9
	cmp	r0, #36
	bne	.LBB0_2
	b	.LBB0_1
.LBB0_1:
.Ltmp3:
	.loc	3 30 17 is_stmt 1               @ ../Source/NMEAParser.c:30:17
	ldr	r0, [sp, #8]
	adds	r0, r0, #1
	str	r0, [sp, #8]
	.loc	3 30 9 is_stmt 0                @ ../Source/NMEAParser.c:30:9
	b	.LBB0_2
.Ltmp4:
.LBB0_2:
	.loc	3 35 5 is_stmt 1                @ ../Source/NMEAParser.c:35:5
	b	.LBB0_3
.LBB0_3:                                @ =>This Inner Loop Header: Depth=1
	.loc	3 35 13 is_stmt 0               @ ../Source/NMEAParser.c:35:13
	ldr	r0, [sp, #8]
	.loc	3 35 12                         @ ../Source/NMEAParser.c:35:12
	ldrb	r1, [r0]
	movs	r0, #0
	.loc	3 35 22                         @ ../Source/NMEAParser.c:35:22
	cmp	r1, #0
	str	r0, [sp]                        @ 4-byte Spill
	beq	.LBB0_5
	b	.LBB0_4
.LBB0_4:                                @   in Loop: Header=BB0_3 Depth=1
	.loc	3 35 26                         @ ../Source/NMEAParser.c:35:26
	ldr	r0, [sp, #8]
	.loc	3 35 25                         @ ../Source/NMEAParser.c:35:25
	ldrb	r0, [r0]
	.loc	3 35 35                         @ ../Source/NMEAParser.c:35:35
	subs	r0, #42
	subs	r1, r0, #1
	sbcs	r0, r1
	str	r0, [sp]                        @ 4-byte Spill
	b	.LBB0_5
.LBB0_5:                                @   in Loop: Header=BB0_3 Depth=1
	.loc	3 0 0                           @ ../Source/NMEAParser.c:0:0
	ldr	r0, [sp]                        @ 4-byte Reload
	.loc	3 35 5                          @ ../Source/NMEAParser.c:35:5
	lsls	r0, r0, #31
	cmp	r0, #0
	beq	.LBB0_7
	b	.LBB0_6
.LBB0_6:                                @   in Loop: Header=BB0_3 Depth=1
	.loc	3 36 30 is_stmt 1               @ ../Source/NMEAParser.c:36:30
	ldr	r0, [sp, #8]
	adds	r1, r0, #1
	str	r1, [sp, #8]
	.loc	3 36 21 is_stmt 0               @ ../Source/NMEAParser.c:36:21
	ldrb	r1, [r0]
	.loc	3 36 18                         @ ../Source/NMEAParser.c:36:18
	ldr	r0, [sp, #4]
	eors	r0, r1
	add	r1, sp, #4
	strb	r0, [r1]
	.loc	3 35 5 is_stmt 1                @ ../Source/NMEAParser.c:35:5
	b	.LBB0_3
.LBB0_7:
	.loc	3 0 5 is_stmt 0                 @ ../Source/NMEAParser.c:0:5
	add	r0, sp, #4
	.loc	3 38 12 is_stmt 1               @ ../Source/NMEAParser.c:38:12
	ldrb	r0, [r0]
	.loc	3 38 5 is_stmt 0                @ ../Source/NMEAParser.c:38:5
	add	sp, #12
	bx	lr
.Ltmp5:
.Lfunc_end0:
	.size	NMEA_Checksum, .Lfunc_end0-NMEA_Checksum
	.cfi_endproc
	.cantunwind
	.fnend
                                        @ -- End function
	.section	.text.NMEA_Check,"ax",%progbits
	.hidden	NMEA_Check                      @ -- Begin function NMEA_Check
	.globl	NMEA_Check
	.p2align	2
	.type	NMEA_Check,%function
	.code	16                              @ @NMEA_Check
	.thumb_func
NMEA_Check:
.Lfunc_begin1:
	.loc	3 42 0 is_stmt 1                @ ../Source/NMEAParser.c:42:0
	.fnstart
	.cfi_startproc
@ %bb.0:
	.save	{r7, lr}
	push	{r7, lr}
	.cfi_def_cfa_offset 8
	.cfi_offset lr, -4
	.cfi_offset r7, -8
	.pad	#32
	sub	sp, #32
	.cfi_def_cfa_offset 40
                                        @ kill: def $r2 killed $r1
	str	r0, [sp, #24]
	add	r0, sp, #20
	strb	r1, [r0]
	add	r1, sp, #16
	movs	r0, #0
.Ltmp6:
	.loc	3 43 13 prologue_end            @ ../Source/NMEAParser.c:43:13
	strb	r0, [r1]
.Ltmp7:
	.loc	3 46 16                         @ ../Source/NMEAParser.c:46:16
	ldr	r0, [sp, #24]
	.loc	3 46 9 is_stmt 0                @ ../Source/NMEAParser.c:46:9
	bl	strlen
.Ltmp8:
	.loc	3 46 9                          @ ../Source/NMEAParser.c:46:9
	cmp	r0, #104
	blo	.LBB1_2
	b	.LBB1_1
.LBB1_1:
	.loc	3 0 9                           @ ../Source/NMEAParser.c:0:9
	add	r1, sp, #28
	movs	r0, #0
.Ltmp9:
	.loc	3 47 9 is_stmt 1                @ ../Source/NMEAParser.c:47:9
	strb	r0, [r1]
	b	.LBB1_26
.Ltmp10:
.LBB1_2:
	.loc	3 50 18                         @ ../Source/NMEAParser.c:50:18
	ldr	r0, [sp, #24]
	adds	r1, r0, #1
	str	r1, [sp, #24]
	.loc	3 50 9 is_stmt 0                @ ../Source/NMEAParser.c:50:9
	ldrb	r0, [r0]
.Ltmp11:
	.loc	3 50 9                          @ ../Source/NMEAParser.c:50:9
	cmp	r0, #36
	beq	.LBB1_4
	b	.LBB1_3
.LBB1_3:
	.loc	3 0 9                           @ ../Source/NMEAParser.c:0:9
	add	r1, sp, #28
	movs	r0, #0
.Ltmp12:
	.loc	3 51 9 is_stmt 1                @ ../Source/NMEAParser.c:51:9
	strb	r0, [r1]
	b	.LBB1_26
.Ltmp13:
.LBB1_4:
	.loc	3 54 5                          @ ../Source/NMEAParser.c:54:5
	b	.LBB1_5
.LBB1_5:                                @ =>This Inner Loop Header: Depth=1
	.loc	3 54 13 is_stmt 0               @ ../Source/NMEAParser.c:54:13
	ldr	r0, [sp, #24]
	.loc	3 54 12                         @ ../Source/NMEAParser.c:54:12
	ldrb	r1, [r0]
	movs	r0, #0
	.loc	3 54 22                         @ ../Source/NMEAParser.c:54:22
	cmp	r1, #0
	str	r0, [sp]                        @ 4-byte Spill
	beq	.LBB1_8
	b	.LBB1_6
.LBB1_6:                                @   in Loop: Header=BB1_5 Depth=1
	.loc	3 54 26                         @ ../Source/NMEAParser.c:54:26
	ldr	r0, [sp, #24]
	.loc	3 54 25                         @ ../Source/NMEAParser.c:54:25
	ldrb	r1, [r0]
	movs	r0, #0
	.loc	3 54 42                         @ ../Source/NMEAParser.c:54:42
	cmp	r1, #42
	str	r0, [sp]                        @ 4-byte Spill
	beq	.LBB1_8
	b	.LBB1_7
.LBB1_7:                                @   in Loop: Header=BB1_5 Depth=1
	.loc	3 54 45                         @ ../Source/NMEAParser.c:54:45
	bl	__rt_ctype_table
	ldr	r0, [r0]
	ldr	r1, [sp, #24]
	ldrb	r1, [r1]
	ldrb	r0, [r0, r1]
	movs	r1, #62
	ands	r0, r1
	.loc	3 54 42                         @ ../Source/NMEAParser.c:54:42
	subs	r1, r0, #1
	sbcs	r0, r1
	str	r0, [sp]                        @ 4-byte Spill
	b	.LBB1_8
.LBB1_8:                                @   in Loop: Header=BB1_5 Depth=1
	.loc	3 0 0                           @ ../Source/NMEAParser.c:0:0
	ldr	r0, [sp]                        @ 4-byte Reload
	.loc	3 54 5                          @ ../Source/NMEAParser.c:54:5
	lsls	r0, r0, #31
	cmp	r0, #0
	beq	.LBB1_10
	b	.LBB1_9
.LBB1_9:                                @   in Loop: Header=BB1_5 Depth=1
	.loc	3 55 30 is_stmt 1               @ ../Source/NMEAParser.c:55:30
	ldr	r0, [sp, #24]
	adds	r1, r0, #1
	str	r1, [sp, #24]
	.loc	3 55 21 is_stmt 0               @ ../Source/NMEAParser.c:55:21
	ldrb	r1, [r0]
	.loc	3 55 18                         @ ../Source/NMEAParser.c:55:18
	ldr	r0, [sp, #16]
	eors	r0, r1
	add	r1, sp, #16
	strb	r0, [r1]
	.loc	3 54 5 is_stmt 1                @ ../Source/NMEAParser.c:54:5
	b	.LBB1_5
.LBB1_10:
.Ltmp14:
	.loc	3 58 10                         @ ../Source/NMEAParser.c:58:10
	ldr	r0, [sp, #24]
	.loc	3 58 9 is_stmt 0                @ ../Source/NMEAParser.c:58:9
	ldrb	r0, [r0]
.Ltmp15:
	.loc	3 58 9                          @ ../Source/NMEAParser.c:58:9
	cmp	r0, #42
	bne	.LBB1_18
	b	.LBB1_11
.LBB1_11:
.Ltmp16:
	.loc	3 60 17 is_stmt 1               @ ../Source/NMEAParser.c:60:17
	ldr	r0, [sp, #24]
	adds	r0, r0, #1
	str	r0, [sp, #24]
	.loc	3 61 34                         @ ../Source/NMEAParser.c:61:34
	ldr	r0, [sp, #24]
	adds	r1, r0, #1
	str	r1, [sp, #24]
	.loc	3 61 25 is_stmt 0               @ ../Source/NMEAParser.c:61:25
	ldrb	r0, [r0]
	.loc	3 61 17                         @ ../Source/NMEAParser.c:61:17
	bl	Hex2Int
	.loc	3 61 15                         @ ../Source/NMEAParser.c:61:15
	str	r0, [sp, #12]
.Ltmp17:
	.loc	3 62 13 is_stmt 1               @ ../Source/NMEAParser.c:62:13
	ldr	r0, [sp, #12]
.Ltmp18:
	.loc	3 62 13 is_stmt 0               @ ../Source/NMEAParser.c:62:13
	adds	r0, r0, #1
	cmp	r0, #0
	bne	.LBB1_13
	b	.LBB1_12
.LBB1_12:
	.loc	3 0 13                          @ ../Source/NMEAParser.c:0:13
	add	r1, sp, #28
	movs	r0, #0
.Ltmp19:
	.loc	3 63 13 is_stmt 1               @ ../Source/NMEAParser.c:63:13
	strb	r0, [r1]
	b	.LBB1_26
.Ltmp20:
.LBB1_13:
	.loc	3 64 34                         @ ../Source/NMEAParser.c:64:34
	ldr	r0, [sp, #24]
	adds	r1, r0, #1
	str	r1, [sp, #24]
	.loc	3 64 25 is_stmt 0               @ ../Source/NMEAParser.c:64:25
	ldrb	r0, [r0]
	.loc	3 64 17                         @ ../Source/NMEAParser.c:64:17
	bl	Hex2Int
	.loc	3 64 15                         @ ../Source/NMEAParser.c:64:15
	str	r0, [sp, #8]
.Ltmp21:
	.loc	3 65 13 is_stmt 1               @ ../Source/NMEAParser.c:65:13
	ldr	r0, [sp, #8]
.Ltmp22:
	.loc	3 65 13 is_stmt 0               @ ../Source/NMEAParser.c:65:13
	adds	r0, r0, #1
	cmp	r0, #0
	bne	.LBB1_15
	b	.LBB1_14
.LBB1_14:
	.loc	3 0 13                          @ ../Source/NMEAParser.c:0:13
	add	r1, sp, #28
	movs	r0, #0
.Ltmp23:
	.loc	3 66 13 is_stmt 1               @ ../Source/NMEAParser.c:66:13
	strb	r0, [r1]
	b	.LBB1_26
.Ltmp24:
.LBB1_15:
	.loc	3 67 20                         @ ../Source/NMEAParser.c:67:20
	ldr	r0, [sp, #12]
	.loc	3 67 26 is_stmt 0               @ ../Source/NMEAParser.c:67:26
	lsls	r0, r0, #4
	.loc	3 67 33                         @ ../Source/NMEAParser.c:67:33
	ldr	r1, [sp, #8]
	.loc	3 67 31                         @ ../Source/NMEAParser.c:67:31
	orrs	r0, r1
	.loc	3 67 18                         @ ../Source/NMEAParser.c:67:18
	str	r0, [sp, #4]
	add	r0, sp, #16
.Ltmp25:
	.loc	3 70 13 is_stmt 1               @ ../Source/NMEAParser.c:70:13
	ldrb	r0, [r0]
	.loc	3 70 25 is_stmt 0               @ ../Source/NMEAParser.c:70:25
	ldr	r1, [sp, #4]
.Ltmp26:
	.loc	3 70 13                         @ ../Source/NMEAParser.c:70:13
	cmp	r0, r1
	beq	.LBB1_17
	b	.LBB1_16
.LBB1_16:
	.loc	3 0 13                          @ ../Source/NMEAParser.c:0:13
	add	r1, sp, #28
	movs	r0, #0
.Ltmp27:
	.loc	3 71 13 is_stmt 1               @ ../Source/NMEAParser.c:71:13
	strb	r0, [r1]
	b	.LBB1_26
.Ltmp28:
.LBB1_17:
	.loc	3 72 5                          @ ../Source/NMEAParser.c:72:5
	b	.LBB1_21
.Ltmp29:
.LBB1_18:
	.loc	3 0 5 is_stmt 0                 @ ../Source/NMEAParser.c:0:5
	add	r0, sp, #20
.Ltmp30:
	.loc	3 72 16                         @ ../Source/NMEAParser.c:72:16
	ldrb	r0, [r0]
.Ltmp31:
	.loc	3 72 16                         @ ../Source/NMEAParser.c:72:16
	lsls	r0, r0, #31
	cmp	r0, #0
	beq	.LBB1_20
	b	.LBB1_19
.LBB1_19:
	.loc	3 0 16                          @ ../Source/NMEAParser.c:0:16
	add	r1, sp, #28
	movs	r0, #0
.Ltmp32:
	.loc	3 74 9 is_stmt 1                @ ../Source/NMEAParser.c:74:9
	strb	r0, [r1]
	b	.LBB1_26
.Ltmp33:
.LBB1_20:
	.loc	3 0 9 is_stmt 0                 @ ../Source/NMEAParser.c:0:9
	b	.LBB1_21
.LBB1_21:
.Ltmp34:
	.loc	3 78 10 is_stmt 1               @ ../Source/NMEAParser.c:78:10
	ldr	r0, [sp, #24]
	.loc	3 78 9 is_stmt 0                @ ../Source/NMEAParser.c:78:9
	ldrb	r0, [r0]
	.loc	3 78 19                         @ ../Source/NMEAParser.c:78:19
	cmp	r0, #0
	beq	.LBB1_25
	b	.LBB1_22
.LBB1_22:
	.loc	3 78 29                         @ ../Source/NMEAParser.c:78:29
	ldr	r0, [sp, #24]
	.loc	3 78 22                         @ ../Source/NMEAParser.c:78:22
	ldr	r1, __arm_cp.1_0
	bl	strcmp
	.loc	3 78 45                         @ ../Source/NMEAParser.c:78:45
	cmp	r0, #0
	beq	.LBB1_25
	b	.LBB1_23
.LBB1_23:
	.loc	3 78 55                         @ ../Source/NMEAParser.c:78:55
	ldr	r0, [sp, #24]
	.loc	3 78 48                         @ ../Source/NMEAParser.c:78:48
	ldr	r1, __arm_cp.1_1
	bl	strcmp
.Ltmp35:
	.loc	3 78 9                          @ ../Source/NMEAParser.c:78:9
	cmp	r0, #0
	beq	.LBB1_25
	b	.LBB1_24
.LBB1_24:
	.loc	3 0 9                           @ ../Source/NMEAParser.c:0:9
	add	r1, sp, #28
	movs	r0, #0
.Ltmp36:
	.loc	3 79 9 is_stmt 1                @ ../Source/NMEAParser.c:79:9
	strb	r0, [r1]
	b	.LBB1_26
.Ltmp37:
.LBB1_25:
	.loc	3 0 9 is_stmt 0                 @ ../Source/NMEAParser.c:0:9
	add	r1, sp, #28
	movs	r0, #1
	.loc	3 81 5 is_stmt 1                @ ../Source/NMEAParser.c:81:5
	strb	r0, [r1]
	b	.LBB1_26
.LBB1_26:
	.loc	3 0 5 is_stmt 0                 @ ../Source/NMEAParser.c:0:5
	add	r0, sp, #28
	.loc	3 82 1 is_stmt 1                @ ../Source/NMEAParser.c:82:1
	ldrb	r0, [r0]
	add	sp, #32
	pop	{r7, pc}
.Ltmp38:
	.p2align	2
@ %bb.27:
	.loc	3 0 1 is_stmt 0                 @ ../Source/NMEAParser.c:0:1
__arm_cp.1_0:
	.long	.L.str
.Lcpi_end0:
	.size	__arm_cp.1_0, .Lcpi_end0-__arm_cp.1_0
__arm_cp.1_1:
	.long	.L.str.1
.Lcpi_end1:
	.size	__arm_cp.1_1, .Lcpi_end1-__arm_cp.1_1
.Lfunc_end1:
	.size	NMEA_Check, .Lfunc_end1-NMEA_Check
	.cfi_endproc
	.cantunwind
	.fnend
                                        @ -- End function
	.section	.text.Hex2Int,"ax",%progbits
	.p2align	1                               @ -- Begin function Hex2Int
	.type	Hex2Int,%function
	.code	16                              @ @Hex2Int
	.thumb_func
Hex2Int:
.Lfunc_begin2:
	.loc	3 15 0 is_stmt 1                @ ../Source/NMEAParser.c:15:0
	.fnstart
	.cfi_startproc
@ %bb.0:
	.pad	#8
	sub	sp, #8
	.cfi_def_cfa_offset 8
	mov	r1, r0
                                        @ kill: def $r0 killed $r1
	mov	r0, sp
	strb	r1, [r0]
.Ltmp39:
	.loc	3 16 9 prologue_end             @ ../Source/NMEAParser.c:16:9
	ldrb	r0, [r0]
	.loc	3 16 18 is_stmt 0               @ ../Source/NMEAParser.c:16:18
	cmp	r0, #48
	blt	.LBB2_3
	b	.LBB2_1
.LBB2_1:
	.loc	3 0 18                          @ ../Source/NMEAParser.c:0:18
	mov	r0, sp
	.loc	3 16 21                         @ ../Source/NMEAParser.c:16:21
	ldrb	r0, [r0]
.Ltmp40:
	.loc	3 16 9                          @ ../Source/NMEAParser.c:16:9
	cmp	r0, #57
	bgt	.LBB2_3
	b	.LBB2_2
.LBB2_2:
	.loc	3 0 9                           @ ../Source/NMEAParser.c:0:9
	mov	r0, sp
.Ltmp41:
	.loc	3 17 16 is_stmt 1               @ ../Source/NMEAParser.c:17:16
	ldrb	r0, [r0]
	.loc	3 17 18 is_stmt 0               @ ../Source/NMEAParser.c:17:18
	subs	r0, #48
	.loc	3 17 9                          @ ../Source/NMEAParser.c:17:9
	str	r0, [sp, #4]
	b	.LBB2_10
.Ltmp42:
.LBB2_3:
	.loc	3 0 9                           @ ../Source/NMEAParser.c:0:9
	mov	r0, sp
.Ltmp43:
	.loc	3 18 9 is_stmt 1                @ ../Source/NMEAParser.c:18:9
	ldrb	r0, [r0]
	.loc	3 18 18 is_stmt 0               @ ../Source/NMEAParser.c:18:18
	cmp	r0, #65
	blt	.LBB2_6
	b	.LBB2_4
.LBB2_4:
	.loc	3 0 18                          @ ../Source/NMEAParser.c:0:18
	mov	r0, sp
	.loc	3 18 21                         @ ../Source/NMEAParser.c:18:21
	ldrb	r0, [r0]
.Ltmp44:
	.loc	3 18 9                          @ ../Source/NMEAParser.c:18:9
	cmp	r0, #70
	bgt	.LBB2_6
	b	.LBB2_5
.LBB2_5:
	.loc	3 0 9                           @ ../Source/NMEAParser.c:0:9
	mov	r0, sp
.Ltmp45:
	.loc	3 19 16 is_stmt 1               @ ../Source/NMEAParser.c:19:16
	ldrb	r0, [r0]
	.loc	3 19 24 is_stmt 0               @ ../Source/NMEAParser.c:19:24
	subs	r0, #55
	.loc	3 19 9                          @ ../Source/NMEAParser.c:19:9
	str	r0, [sp, #4]
	b	.LBB2_10
.Ltmp46:
.LBB2_6:
	.loc	3 0 9                           @ ../Source/NMEAParser.c:0:9
	mov	r0, sp
.Ltmp47:
	.loc	3 20 9 is_stmt 1                @ ../Source/NMEAParser.c:20:9
	ldrb	r0, [r0]
	.loc	3 20 18 is_stmt 0               @ ../Source/NMEAParser.c:20:18
	cmp	r0, #97
	blt	.LBB2_9
	b	.LBB2_7
.LBB2_7:
	.loc	3 0 18                          @ ../Source/NMEAParser.c:0:18
	mov	r0, sp
	.loc	3 20 21                         @ ../Source/NMEAParser.c:20:21
	ldrb	r0, [r0]
.Ltmp48:
	.loc	3 20 9                          @ ../Source/NMEAParser.c:20:9
	cmp	r0, #102
	bgt	.LBB2_9
	b	.LBB2_8
.LBB2_8:
	.loc	3 0 9                           @ ../Source/NMEAParser.c:0:9
	mov	r0, sp
.Ltmp49:
	.loc	3 21 16 is_stmt 1               @ ../Source/NMEAParser.c:21:16
	ldrb	r0, [r0]
	.loc	3 21 24 is_stmt 0               @ ../Source/NMEAParser.c:21:24
	subs	r0, #87
	.loc	3 21 9                          @ ../Source/NMEAParser.c:21:9
	str	r0, [sp, #4]
	b	.LBB2_10
.Ltmp50:
.LBB2_9:
	.loc	3 0 9                           @ ../Source/NMEAParser.c:0:9
	movs	r0, #0
	mvns	r0, r0
	.loc	3 22 5 is_stmt 1                @ ../Source/NMEAParser.c:22:5
	str	r0, [sp, #4]
	b	.LBB2_10
.LBB2_10:
	.loc	3 23 1                          @ ../Source/NMEAParser.c:23:1
	ldr	r0, [sp, #4]
	add	sp, #8
	bx	lr
.Ltmp51:
.Lfunc_end2:
	.size	Hex2Int, .Lfunc_end2-Hex2Int
	.cfi_endproc
	.cantunwind
	.fnend
                                        @ -- End function
	.section	.text.NMEA_Scan,"ax",%progbits
	.hidden	NMEA_Scan                       @ -- Begin function NMEA_Scan
	.globl	NMEA_Scan
	.p2align	2
	.type	NMEA_Scan,%function
	.code	16                              @ @NMEA_Scan
	.thumb_func
NMEA_Scan:
.Lfunc_begin3:
	.loc	3 85 0                          @ ../Source/NMEAParser.c:85:0
	.fnstart
	.cfi_startproc
@ %bb.0:
	.pad	#8
	sub	sp, #8
	.cfi_def_cfa_offset 8
	.save	{r7, lr}
	push	{r7, lr}
	.cfi_def_cfa_offset 16
	.cfi_offset lr, -12
	.cfi_offset r7, -16
	.pad	#216
	sub	sp, #216
	.cfi_def_cfa_offset 232
	str	r3, [sp, #228]
	str	r2, [sp, #224]
	str	r0, [sp, #212]
	str	r1, [sp, #208]
	add	r1, sp, #204
	movs	r0, #0
.Ltmp52:
	.loc	3 86 7 prologue_end             @ ../Source/NMEAParser.c:86:7
	strb	r0, [r1]
	add	r1, sp, #200
	.loc	3 87 7                          @ ../Source/NMEAParser.c:87:7
	strb	r0, [r1]
	.loc	3 88 22                         @ ../Source/NMEAParser.c:88:22
	ldr	r0, [sp, #212]
	.loc	3 88 14 is_stmt 0               @ ../Source/NMEAParser.c:88:14
	str	r0, [sp, #196]
	add	r0, sp, #224
	.loc	3 90 2 is_stmt 1                @ ../Source/NMEAParser.c:90:2
	str	r0, [sp, #192]
	.loc	3 107 5                         @ ../Source/NMEAParser.c:107:5
	b	.LBB3_1
.LBB3_1:                                @ =>This Loop Header: Depth=1
                                        @     Child Loop BB3_91 Depth 2
                                        @     Child Loop BB3_82 Depth 2
                                        @     Child Loop BB3_28 Depth 2
                                        @     Child Loop BB3_110 Depth 2
                                        @     Child Loop BB3_117 Depth 2
                                        @     Child Loop BB3_100 Depth 2
                                        @     Child Loop BB3_132 Depth 2
	.loc	3 107 13 is_stmt 0              @ ../Source/NMEAParser.c:107:13
	ldr	r0, [sp, #208]
	.loc	3 107 12                        @ ../Source/NMEAParser.c:107:12
	ldrb	r0, [r0]
	.loc	3 107 5                         @ ../Source/NMEAParser.c:107:5
	cmp	r0, #0
	bne	.LBB3_2
	b	.LBB3_139
.LBB3_2:                                @   in Loop: Header=BB3_1 Depth=1
.Ltmp53:
	.loc	3 108 28 is_stmt 1              @ ../Source/NMEAParser.c:108:28
	ldr	r0, [sp, #208]
	adds	r1, r0, #1
	str	r1, [sp, #208]
	.loc	3 108 21 is_stmt 0              @ ../Source/NMEAParser.c:108:21
	ldrb	r1, [r0]
	add	r0, sp, #188
	.loc	3 108 14                        @ ../Source/NMEAParser.c:108:14
	strb	r1, [r0]
.Ltmp54:
	.loc	3 110 13 is_stmt 1              @ ../Source/NMEAParser.c:110:13
	ldrb	r0, [r0]
.Ltmp55:
	.loc	3 110 13 is_stmt 0              @ ../Source/NMEAParser.c:110:13
	cmp	r0, #59
	bne	.LBB3_4
	b	.LBB3_3
.LBB3_3:                                @   in Loop: Header=BB3_1 Depth=1
	.loc	3 0 13                          @ ../Source/NMEAParser.c:0:13
	add	r1, sp, #200
	movs	r0, #1
.Ltmp56:
	.loc	3 112 22 is_stmt 1              @ ../Source/NMEAParser.c:112:22
	strb	r0, [r1]
	.loc	3 113 13                        @ ../Source/NMEAParser.c:113:13
	b	.LBB3_1
.Ltmp57:
.LBB3_4:                                @   in Loop: Header=BB3_1 Depth=1
	.loc	3 116 14                        @ ../Source/NMEAParser.c:116:14
	ldr	r0, [sp, #196]
	.loc	3 116 20 is_stmt 0              @ ../Source/NMEAParser.c:116:20
	cmp	r0, #0
	bne	.LBB3_7
	b	.LBB3_5
.LBB3_5:                                @   in Loop: Header=BB3_1 Depth=1
	.loc	3 0 20                          @ ../Source/NMEAParser.c:0:20
	add	r0, sp, #200
	.loc	3 116 24                        @ ../Source/NMEAParser.c:116:24
	ldrb	r0, [r0]
.Ltmp58:
	.loc	3 116 13                        @ ../Source/NMEAParser.c:116:13
	lsls	r0, r0, #31
	cmp	r0, #0
	bne	.LBB3_7
	b	.LBB3_6
.LBB3_6:
.Ltmp59:
	.loc	3 118 13 is_stmt 1              @ ../Source/NMEAParser.c:118:13
	b	.LBB3_140
.Ltmp60:
.LBB3_7:                                @   in Loop: Header=BB3_1 Depth=1
	.loc	3 0 13 is_stmt 0                @ ../Source/NMEAParser.c:0:13
	add	r0, sp, #188
	.loc	3 121 17 is_stmt 1              @ ../Source/NMEAParser.c:121:17
	ldrb	r0, [r0]
	.loc	3 121 9 is_stmt 0               @ ../Source/NMEAParser.c:121:9
	subs	r0, #68
	str	r0, [sp, #56]                   @ 4-byte Spill
	cmp	r0, #48
	bls	.LBB3_8
	b	.LBB3_129
.LBB3_8:                                @   in Loop: Header=BB3_1 Depth=1
	.loc	3 0 9                           @ ../Source/NMEAParser.c:0:9
	ldr	r0, [sp, #56]                   @ 4-byte Reload
	lsls	r1, r0, #2
	adr	r0, .LJTI3_0
	ldr	r0, [r0, r1]
	mov	pc, r0
@ %bb.9:
	.p2align	2
.LJTI3_0:
	.long	.LBB3_97+1
	.long	.LBB3_129+1
	.long	.LBB3_129+1
	.long	.LBB3_129+1
	.long	.LBB3_129+1
	.long	.LBB3_129+1
	.long	.LBB3_129+1
	.long	.LBB3_129+1
	.long	.LBB3_129+1
	.long	.LBB3_129+1
	.long	.LBB3_129+1
	.long	.LBB3_129+1
	.long	.LBB3_129+1
	.long	.LBB3_129+1
	.long	.LBB3_129+1
	.long	.LBB3_129+1
	.long	.LBB3_107+1
	.long	.LBB3_129+1
	.long	.LBB3_129+1
	.long	.LBB3_129+1
	.long	.LBB3_129+1
	.long	.LBB3_129+1
	.long	.LBB3_129+1
	.long	.LBB3_129+1
	.long	.LBB3_129+1
	.long	.LBB3_129+1
	.long	.LBB3_129+1
	.long	.LBB3_128+1
	.long	.LBB3_129+1
	.long	.LBB3_129+1
	.long	.LBB3_129+1
	.long	.LBB3_10+1
	.long	.LBB3_14+1
	.long	.LBB3_129+1
	.long	.LBB3_26+1
	.long	.LBB3_129+1
	.long	.LBB3_129+1
	.long	.LBB3_75+1
	.long	.LBB3_129+1
	.long	.LBB3_129+1
	.long	.LBB3_129+1
	.long	.LBB3_129+1
	.long	.LBB3_129+1
	.long	.LBB3_129+1
	.long	.LBB3_129+1
	.long	.LBB3_129+1
	.long	.LBB3_129+1
	.long	.LBB3_80+1
	.long	.LBB3_86+1
.LBB3_10:                               @   in Loop: Header=BB3_1 Depth=1
	add	r1, sp, #184
	movs	r0, #0
.Ltmp61:
	.loc	3 123 22 is_stmt 1              @ ../Source/NMEAParser.c:123:22
	strb	r0, [r1]
.Ltmp62:
	.loc	3 125 21                        @ ../Source/NMEAParser.c:125:21
	ldr	r0, [sp, #196]
	.loc	3 125 27 is_stmt 0              @ ../Source/NMEAParser.c:125:27
	cmp	r0, #0
	beq	.LBB3_13
	b	.LBB3_11
.LBB3_11:                               @   in Loop: Header=BB3_1 Depth=1
	.loc	3 125 44                        @ ../Source/NMEAParser.c:125:44
	ldr	r0, [sp, #196]
	.loc	3 125 43                        @ ../Source/NMEAParser.c:125:43
	ldrb	r0, [r0]
	.loc	3 125 30                        @ ../Source/NMEAParser.c:125:30
	bl	NMEA_Isfield
.Ltmp63:
	.loc	3 125 21                        @ ../Source/NMEAParser.c:125:21
	cmp	r0, #0
	beq	.LBB3_13
	b	.LBB3_12
.LBB3_12:                               @   in Loop: Header=BB3_1 Depth=1
.Ltmp64:
	.loc	3 126 30 is_stmt 1              @ ../Source/NMEAParser.c:126:30
	ldr	r0, [sp, #196]
	.loc	3 126 29 is_stmt 0              @ ../Source/NMEAParser.c:126:29
	ldrb	r0, [r0]
	add	r1, sp, #184
	.loc	3 126 27                        @ ../Source/NMEAParser.c:126:27
	strb	r0, [r1]
	.loc	3 126 21                        @ ../Source/NMEAParser.c:126:21
	b	.LBB3_13
.Ltmp65:
.LBB3_13:                               @   in Loop: Header=BB3_1 Depth=1
	.loc	3 128 39 is_stmt 1              @ ../Source/NMEAParser.c:128:39
	ldr	r0, [sp, #184]
	.loc	3 128 18 is_stmt 0              @ ../Source/NMEAParser.c:128:18
	ldr	r1, [sp, #192]
	adds	r2, r1, #4
	str	r2, [sp, #192]
	ldr	r1, [r1]
	.loc	3 128 37                        @ ../Source/NMEAParser.c:128:37
	strb	r0, [r1]
.Ltmp66:
	.loc	3 129 15 is_stmt 1              @ ../Source/NMEAParser.c:129:15
	b	.LBB3_130
.LBB3_14:                               @   in Loop: Header=BB3_1 Depth=1
	.loc	3 0 15 is_stmt 0                @ ../Source/NMEAParser.c:0:15
	movs	r0, #0
.Ltmp67:
	.loc	3 132 21 is_stmt 1              @ ../Source/NMEAParser.c:132:21
	str	r0, [sp, #180]
.Ltmp68:
	.loc	3 134 21                        @ ../Source/NMEAParser.c:134:21
	ldr	r0, [sp, #196]
	.loc	3 134 27 is_stmt 0              @ ../Source/NMEAParser.c:134:27
	cmp	r0, #0
	beq	.LBB3_25
	b	.LBB3_15
.LBB3_15:                               @   in Loop: Header=BB3_1 Depth=1
	.loc	3 134 44                        @ ../Source/NMEAParser.c:134:44
	ldr	r0, [sp, #196]
	.loc	3 134 43                        @ ../Source/NMEAParser.c:134:43
	ldrb	r0, [r0]
	.loc	3 134 30                        @ ../Source/NMEAParser.c:134:30
	bl	NMEA_Isfield
.Ltmp69:
	.loc	3 134 21                        @ ../Source/NMEAParser.c:134:21
	cmp	r0, #0
	beq	.LBB3_25
	b	.LBB3_16
.LBB3_16:                               @   in Loop: Header=BB3_1 Depth=1
.Ltmp70:
	.loc	3 135 30 is_stmt 1              @ ../Source/NMEAParser.c:135:30
	ldr	r0, [sp, #196]
	.loc	3 135 29 is_stmt 0              @ ../Source/NMEAParser.c:135:29
	ldrb	r0, [r0]
	.loc	3 135 21                        @ ../Source/NMEAParser.c:135:21
	subs	r0, #69
	str	r0, [sp, #52]                   @ 4-byte Spill
	cmp	r0, #18
	bhi	.LBB3_23
@ %bb.17:                               @   in Loop: Header=BB3_1 Depth=1
	.loc	3 0 21                          @ ../Source/NMEAParser.c:0:21
	ldr	r0, [sp, #52]                   @ 4-byte Reload
	lsls	r1, r0, #2
	adr	r0, .LJTI3_1
	ldr	r0, [r0, r1]
	mov	pc, r0
@ %bb.18:
	.p2align	2
.LJTI3_1:
	.long	.LBB3_20+1
	.long	.LBB3_23+1
	.long	.LBB3_23+1
	.long	.LBB3_23+1
	.long	.LBB3_23+1
	.long	.LBB3_23+1
	.long	.LBB3_23+1
	.long	.LBB3_23+1
	.long	.LBB3_23+1
	.long	.LBB3_19+1
	.long	.LBB3_23+1
	.long	.LBB3_23+1
	.long	.LBB3_23+1
	.long	.LBB3_23+1
	.long	.LBB3_21+1
	.long	.LBB3_23+1
	.long	.LBB3_23+1
	.long	.LBB3_23+1
	.long	.LBB3_22+1
.LBB3_19:                               @   in Loop: Header=BB3_1 Depth=1
	movs	r0, #78
.Ltmp71:
	.loc	3 137 19 is_stmt 1              @ ../Source/NMEAParser.c:137:19
	str	r0, [sp, #180]
	.loc	3 138 14                        @ ../Source/NMEAParser.c:138:14
	b	.LBB3_24
.LBB3_20:                               @   in Loop: Header=BB3_1 Depth=1
	.loc	3 0 14 is_stmt 0                @ ../Source/NMEAParser.c:0:14
	movs	r0, #69
	.loc	3 140 35 is_stmt 1              @ ../Source/NMEAParser.c:140:35
	str	r0, [sp, #180]
	.loc	3 141 29                        @ ../Source/NMEAParser.c:141:29
	b	.LBB3_24
.LBB3_21:                               @   in Loop: Header=BB3_1 Depth=1
	.loc	3 0 29 is_stmt 0                @ ../Source/NMEAParser.c:0:29
	movs	r0, #83
	.loc	3 143 21 is_stmt 1              @ ../Source/NMEAParser.c:143:21
	str	r0, [sp, #180]
	.loc	3 144 29                        @ ../Source/NMEAParser.c:144:29
	b	.LBB3_24
.LBB3_22:                               @   in Loop: Header=BB3_1 Depth=1
	.loc	3 0 29 is_stmt 0                @ ../Source/NMEAParser.c:0:29
	movs	r0, #87
	.loc	3 146 35 is_stmt 1              @ ../Source/NMEAParser.c:146:35
	str	r0, [sp, #180]
	.loc	3 147 29                        @ ../Source/NMEAParser.c:147:29
	b	.LBB3_24
.LBB3_23:
	.loc	3 149 29                        @ ../Source/NMEAParser.c:149:29
	b	.LBB3_140
.Ltmp72:
.LBB3_24:                               @   in Loop: Header=BB3_1 Depth=1
	.loc	3 151 17                        @ ../Source/NMEAParser.c:151:17
	b	.LBB3_25
.Ltmp73:
.LBB3_25:                               @   in Loop: Header=BB3_1 Depth=1
	.loc	3 153 38                        @ ../Source/NMEAParser.c:153:38
	ldr	r0, [sp, #180]
	.loc	3 153 18 is_stmt 0              @ ../Source/NMEAParser.c:153:18
	ldr	r1, [sp, #192]
	adds	r2, r1, #4
	str	r2, [sp, #192]
	ldr	r1, [r1]
	.loc	3 153 36                        @ ../Source/NMEAParser.c:153:36
	str	r0, [r1]
.Ltmp74:
	.loc	3 154 15 is_stmt 1              @ ../Source/NMEAParser.c:154:15
	b	.LBB3_130
.LBB3_26:                               @   in Loop: Header=BB3_1 Depth=1
	.loc	3 0 15 is_stmt 0                @ ../Source/NMEAParser.c:0:15
	movs	r0, #0
.Ltmp75:
	.loc	3 157 21 is_stmt 1              @ ../Source/NMEAParser.c:157:21
	str	r0, [sp, #176]
	mvns	r1, r0
	.loc	3 158 31                        @ ../Source/NMEAParser.c:158:31
	str	r1, [sp, #172]
	.loc	3 159 31                        @ ../Source/NMEAParser.c:159:31
	str	r0, [sp, #168]
.Ltmp76:
	.loc	3 161 21                        @ ../Source/NMEAParser.c:161:21
	ldr	r0, [sp, #196]
.Ltmp77:
	.loc	3 161 21 is_stmt 0              @ ../Source/NMEAParser.c:161:21
	cmp	r0, #0
	bne	.LBB3_27
	b	.LBB3_63
.LBB3_27:                               @   in Loop: Header=BB3_1 Depth=1
.Ltmp78:
	.loc	3 162 21 is_stmt 1              @ ../Source/NMEAParser.c:162:21
	b	.LBB3_28
.LBB3_28:                               @   Parent Loop BB3_1 Depth=1
                                        @ =>  This Inner Loop Header: Depth=2
	.loc	3 162 42 is_stmt 0              @ ../Source/NMEAParser.c:162:42
	ldr	r0, [sp, #196]
	.loc	3 162 41                        @ ../Source/NMEAParser.c:162:41
	ldrb	r0, [r0]
	.loc	3 162 28                        @ ../Source/NMEAParser.c:162:28
	bl	NMEA_Isfield
	.loc	3 162 21                        @ ../Source/NMEAParser.c:162:21
	cmp	r0, #0
	bne	.LBB3_29
	b	.LBB3_62
.LBB3_29:                               @   in Loop: Header=BB3_28 Depth=2
.Ltmp79:
	.loc	3 163 30 is_stmt 1              @ ../Source/NMEAParser.c:163:30
	ldr	r0, [sp, #196]
	.loc	3 163 29 is_stmt 0              @ ../Source/NMEAParser.c:163:29
	ldrb	r0, [r0]
	.loc	3 163 43                        @ ../Source/NMEAParser.c:163:43
	cmp	r0, #43
	bne	.LBB3_33
	b	.LBB3_30
.LBB3_30:                               @   in Loop: Header=BB3_28 Depth=2
	.loc	3 163 47                        @ ../Source/NMEAParser.c:163:47
	ldr	r0, [sp, #176]
	.loc	3 163 52                        @ ../Source/NMEAParser.c:163:52
	cmp	r0, #0
	bne	.LBB3_33
	b	.LBB3_31
.LBB3_31:                               @   in Loop: Header=BB3_28 Depth=2
	.loc	3 163 55                        @ ../Source/NMEAParser.c:163:55
	ldr	r0, [sp, #172]
.Ltmp80:
	.loc	3 163 29                        @ ../Source/NMEAParser.c:163:29
	adds	r0, r0, #1
	cmp	r0, #0
	bne	.LBB3_33
	b	.LBB3_32
.LBB3_32:                               @   in Loop: Header=BB3_28 Depth=2
	.loc	3 0 29                          @ ../Source/NMEAParser.c:0:29
	movs	r0, #1
.Ltmp81:
	.loc	3 164 34 is_stmt 1              @ ../Source/NMEAParser.c:164:34
	str	r0, [sp, #176]
	.loc	3 165 25                        @ ../Source/NMEAParser.c:165:25
	b	.LBB3_61
.Ltmp82:
.LBB3_33:                               @   in Loop: Header=BB3_28 Depth=2
	.loc	3 165 37 is_stmt 0              @ ../Source/NMEAParser.c:165:37
	ldr	r0, [sp, #196]
	.loc	3 165 36                        @ ../Source/NMEAParser.c:165:36
	ldrb	r0, [r0]
	.loc	3 165 50                        @ ../Source/NMEAParser.c:165:50
	cmp	r0, #45
	bne	.LBB3_37
	b	.LBB3_34
.LBB3_34:                               @   in Loop: Header=BB3_28 Depth=2
	.loc	3 165 54                        @ ../Source/NMEAParser.c:165:54
	ldr	r0, [sp, #176]
	.loc	3 165 59                        @ ../Source/NMEAParser.c:165:59
	cmp	r0, #0
	bne	.LBB3_37
	b	.LBB3_35
.LBB3_35:                               @   in Loop: Header=BB3_28 Depth=2
	.loc	3 165 62                        @ ../Source/NMEAParser.c:165:62
	ldr	r0, [sp, #172]
.Ltmp83:
	.loc	3 165 36                        @ ../Source/NMEAParser.c:165:36
	adds	r0, r0, #1
	cmp	r0, #0
	bne	.LBB3_37
	b	.LBB3_36
.LBB3_36:                               @   in Loop: Header=BB3_28 Depth=2
	.loc	3 0 36                          @ ../Source/NMEAParser.c:0:36
	movs	r0, #0
	mvns	r0, r0
.Ltmp84:
	.loc	3 166 34 is_stmt 1              @ ../Source/NMEAParser.c:166:34
	str	r0, [sp, #176]
	.loc	3 167 25                        @ ../Source/NMEAParser.c:167:25
	b	.LBB3_60
.Ltmp85:
.LBB3_37:                               @   in Loop: Header=BB3_28 Depth=2
	.loc	3 167 36 is_stmt 0              @ ../Source/NMEAParser.c:167:36
	bl	__rt_ctype_table
	ldr	r0, [r0]
	ldr	r1, [sp, #196]
	ldrb	r1, [r1]
	ldrb	r0, [r0, r1]
.Ltmp86:
	.loc	3 167 36                        @ ../Source/NMEAParser.c:167:36
	cmp	r0, #32
	bne	.LBB3_47
	b	.LBB3_38
.LBB3_38:                               @   in Loop: Header=BB3_28 Depth=2
.Ltmp87:
	.loc	3 168 42 is_stmt 1              @ ../Source/NMEAParser.c:168:42
	ldr	r0, [sp, #196]
	.loc	3 168 41 is_stmt 0              @ ../Source/NMEAParser.c:168:41
	ldrb	r0, [r0]
	.loc	3 168 48                        @ ../Source/NMEAParser.c:168:48
	subs	r0, #48
	.loc	3 168 33                        @ ../Source/NMEAParser.c:168:33
	str	r0, [sp, #164]
.Ltmp88:
	.loc	3 169 33 is_stmt 1              @ ../Source/NMEAParser.c:169:33
	ldr	r0, [sp, #172]
.Ltmp89:
	.loc	3 169 33 is_stmt 0              @ ../Source/NMEAParser.c:169:33
	adds	r0, r0, #1
	cmp	r0, #0
	bne	.LBB3_40
	b	.LBB3_39
.LBB3_39:                               @   in Loop: Header=BB3_28 Depth=2
	.loc	3 0 33                          @ ../Source/NMEAParser.c:0:33
	movs	r0, #0
.Ltmp90:
	.loc	3 170 39 is_stmt 1              @ ../Source/NMEAParser.c:170:39
	str	r0, [sp, #172]
	.loc	3 170 33 is_stmt 0              @ ../Source/NMEAParser.c:170:33
	b	.LBB3_40
.Ltmp91:
.LBB3_40:                               @   in Loop: Header=BB3_28 Depth=2
	.loc	3 171 33 is_stmt 1              @ ../Source/NMEAParser.c:171:33
	ldr	r0, [sp, #172]
	.loc	3 171 58 is_stmt 0              @ ../Source/NMEAParser.c:171:58
	str	r0, [sp, #48]                   @ 4-byte Spill
	ldr	r1, [sp, #164]
	ldr	r0, __arm_cp.3_4
	.loc	3 171 57                        @ ../Source/NMEAParser.c:171:57
	subs	r0, r0, r1
	movs	r1, #10
	.loc	3 171 65                        @ ../Source/NMEAParser.c:171:65
	bl	__aeabi_idiv
	mov	r1, r0
.Ltmp92:
	.loc	3 171 33                        @ ../Source/NMEAParser.c:171:33
	ldr	r0, [sp, #48]                   @ 4-byte Reload
	cmp	r0, r1
	ble	.LBB3_44
	b	.LBB3_41
.LBB3_41:                               @   in Loop: Header=BB3_1 Depth=1
.Ltmp93:
	.loc	3 173 37 is_stmt 1              @ ../Source/NMEAParser.c:173:37
	ldr	r0, [sp, #168]
.Ltmp94:
	.loc	3 173 37 is_stmt 0              @ ../Source/NMEAParser.c:173:37
	cmp	r0, #0
	beq	.LBB3_43
	b	.LBB3_42
.LBB3_42:                               @   in Loop: Header=BB3_1 Depth=1
.Ltmp95:
	.loc	3 175 37 is_stmt 1              @ ../Source/NMEAParser.c:175:37
	b	.LBB3_62
.Ltmp96:
.LBB3_43:
	.loc	3 178 37                        @ ../Source/NMEAParser.c:178:37
	b	.LBB3_140
.Ltmp97:
.LBB3_44:                               @   in Loop: Header=BB3_28 Depth=2
	.loc	3 181 43                        @ ../Source/NMEAParser.c:181:43
	ldr	r1, [sp, #172]
	movs	r0, #10
	.loc	3 181 41 is_stmt 0              @ ../Source/NMEAParser.c:181:41
	muls	r0, r1, r0
	.loc	3 181 52                        @ ../Source/NMEAParser.c:181:52
	ldr	r1, [sp, #164]
	.loc	3 181 50                        @ ../Source/NMEAParser.c:181:50
	adds	r0, r0, r1
	.loc	3 181 35                        @ ../Source/NMEAParser.c:181:35
	str	r0, [sp, #172]
.Ltmp98:
	.loc	3 182 33 is_stmt 1              @ ../Source/NMEAParser.c:182:33
	ldr	r0, [sp, #168]
.Ltmp99:
	.loc	3 182 33 is_stmt 0              @ ../Source/NMEAParser.c:182:33
	cmp	r0, #0
	beq	.LBB3_46
	b	.LBB3_45
.LBB3_45:                               @   in Loop: Header=BB3_28 Depth=2
.Ltmp100:
	.loc	3 183 39 is_stmt 1              @ ../Source/NMEAParser.c:183:39
	ldr	r1, [sp, #168]
	movs	r0, #10
	muls	r0, r1, r0
	str	r0, [sp, #168]
	.loc	3 183 33 is_stmt 0              @ ../Source/NMEAParser.c:183:33
	b	.LBB3_46
.Ltmp101:
.LBB3_46:                               @   in Loop: Header=BB3_28 Depth=2
	.loc	3 184 25 is_stmt 1              @ ../Source/NMEAParser.c:184:25
	b	.LBB3_59
.Ltmp102:
.LBB3_47:                               @   in Loop: Header=BB3_28 Depth=2
	.loc	3 184 37 is_stmt 0              @ ../Source/NMEAParser.c:184:37
	ldr	r0, [sp, #196]
	.loc	3 184 36                        @ ../Source/NMEAParser.c:184:36
	ldrb	r0, [r0]
	.loc	3 184 50                        @ ../Source/NMEAParser.c:184:50
	cmp	r0, #46
	bne	.LBB3_50
	b	.LBB3_48
.LBB3_48:                               @   in Loop: Header=BB3_28 Depth=2
	.loc	3 184 53                        @ ../Source/NMEAParser.c:184:53
	ldr	r0, [sp, #168]
.Ltmp103:
	.loc	3 184 36                        @ ../Source/NMEAParser.c:184:36
	cmp	r0, #0
	bne	.LBB3_50
	b	.LBB3_49
.LBB3_49:                               @   in Loop: Header=BB3_28 Depth=2
	.loc	3 0 36                          @ ../Source/NMEAParser.c:0:36
	movs	r0, #1
.Ltmp104:
	.loc	3 185 35 is_stmt 1              @ ../Source/NMEAParser.c:185:35
	str	r0, [sp, #168]
	.loc	3 186 25                        @ ../Source/NMEAParser.c:186:25
	b	.LBB3_58
.Ltmp105:
.LBB3_50:                               @   in Loop: Header=BB3_28 Depth=2
	.loc	3 186 37 is_stmt 0              @ ../Source/NMEAParser.c:186:37
	ldr	r0, [sp, #196]
	.loc	3 186 36                        @ ../Source/NMEAParser.c:186:36
	ldrb	r0, [r0]
.Ltmp106:
	.loc	3 186 36                        @ ../Source/NMEAParser.c:186:36
	cmp	r0, #32
	bne	.LBB3_56
	b	.LBB3_51
.LBB3_51:                               @   in Loop: Header=BB3_28 Depth=2
.Ltmp107:
	.loc	3 189 33 is_stmt 1              @ ../Source/NMEAParser.c:189:33
	ldr	r0, [sp, #176]
	.loc	3 189 43 is_stmt 0              @ ../Source/NMEAParser.c:189:43
	cmp	r0, #0
	bne	.LBB3_54
	b	.LBB3_52
.LBB3_52:                               @   in Loop: Header=BB3_28 Depth=2
	.loc	3 189 46                        @ ../Source/NMEAParser.c:189:46
	ldr	r0, [sp, #172]
	.loc	3 189 58                        @ ../Source/NMEAParser.c:189:58
	adds	r0, r0, #1
	cmp	r0, #0
	bne	.LBB3_54
	b	.LBB3_53
.LBB3_53:                               @   in Loop: Header=BB3_28 Depth=2
	.loc	3 189 61                        @ ../Source/NMEAParser.c:189:61
	ldr	r0, [sp, #168]
.Ltmp108:
	.loc	3 189 33                        @ ../Source/NMEAParser.c:189:33
	cmp	r0, #0
	beq	.LBB3_55
	b	.LBB3_54
.LBB3_54:
.Ltmp109:
	.loc	3 190 33 is_stmt 1              @ ../Source/NMEAParser.c:190:33
	b	.LBB3_140
.Ltmp110:
.LBB3_55:                               @   in Loop: Header=BB3_28 Depth=2
	.loc	3 191 25                        @ ../Source/NMEAParser.c:191:25
	b	.LBB3_57
.Ltmp111:
.LBB3_56:
	.loc	3 192 29                        @ ../Source/NMEAParser.c:192:29
	b	.LBB3_140
.Ltmp112:
.LBB3_57:                               @   in Loop: Header=BB3_28 Depth=2
	.loc	3 0 29 is_stmt 0                @ ../Source/NMEAParser.c:0:29
	b	.LBB3_58
.LBB3_58:                               @   in Loop: Header=BB3_28 Depth=2
	b	.LBB3_59
.LBB3_59:                               @   in Loop: Header=BB3_28 Depth=2
	b	.LBB3_60
.LBB3_60:                               @   in Loop: Header=BB3_28 Depth=2
	b	.LBB3_61
.LBB3_61:                               @   in Loop: Header=BB3_28 Depth=2
	.loc	3 194 30 is_stmt 1              @ ../Source/NMEAParser.c:194:30
	ldr	r0, [sp, #196]
	adds	r0, r0, #1
	str	r0, [sp, #196]
.Ltmp113:
	.loc	3 162 21                        @ ../Source/NMEAParser.c:162:21
	b	.LBB3_28
.LBB3_62:                               @   in Loop: Header=BB3_1 Depth=1
	.loc	3 196 17                        @ ../Source/NMEAParser.c:196:17
	b	.LBB3_63
.Ltmp114:
.LBB3_63:                               @   in Loop: Header=BB3_1 Depth=1
	.loc	3 198 22                        @ ../Source/NMEAParser.c:198:22
	ldr	r0, [sp, #176]
	.loc	3 198 27 is_stmt 0              @ ../Source/NMEAParser.c:198:27
	cmp	r0, #0
	bne	.LBB3_65
	b	.LBB3_64
.LBB3_64:                               @   in Loop: Header=BB3_1 Depth=1
	.loc	3 198 30                        @ ../Source/NMEAParser.c:198:30
	ldr	r0, [sp, #168]
	.loc	3 198 37                        @ ../Source/NMEAParser.c:198:37
	cmp	r0, #0
	beq	.LBB3_67
	b	.LBB3_65
.LBB3_65:                               @   in Loop: Header=BB3_1 Depth=1
	.loc	3 198 40                        @ ../Source/NMEAParser.c:198:40
	ldr	r0, [sp, #172]
.Ltmp115:
	.loc	3 198 21                        @ ../Source/NMEAParser.c:198:21
	adds	r0, r0, #1
	cmp	r0, #0
	bne	.LBB3_67
	b	.LBB3_66
.LBB3_66:
.Ltmp116:
	.loc	3 199 21 is_stmt 1              @ ../Source/NMEAParser.c:199:21
	b	.LBB3_140
.Ltmp117:
.LBB3_67:                               @   in Loop: Header=BB3_1 Depth=1
	.loc	3 201 21                        @ ../Source/NMEAParser.c:201:21
	ldr	r0, [sp, #172]
.Ltmp118:
	.loc	3 201 21 is_stmt 0              @ ../Source/NMEAParser.c:201:21
	adds	r0, r0, #1
	cmp	r0, #0
	bne	.LBB3_69
	b	.LBB3_68
.LBB3_68:                               @   in Loop: Header=BB3_1 Depth=1
	.loc	3 0 21                          @ ../Source/NMEAParser.c:0:21
	movs	r0, #0
.Ltmp119:
	.loc	3 203 27 is_stmt 1              @ ../Source/NMEAParser.c:203:27
	str	r0, [sp, #172]
	.loc	3 204 27                        @ ../Source/NMEAParser.c:204:27
	str	r0, [sp, #168]
	.loc	3 205 17                        @ ../Source/NMEAParser.c:205:17
	b	.LBB3_72
.Ltmp120:
.LBB3_69:                               @   in Loop: Header=BB3_1 Depth=1
	.loc	3 205 28 is_stmt 0              @ ../Source/NMEAParser.c:205:28
	ldr	r0, [sp, #168]
.Ltmp121:
	.loc	3 205 28                        @ ../Source/NMEAParser.c:205:28
	cmp	r0, #0
	bne	.LBB3_71
	b	.LBB3_70
.LBB3_70:                               @   in Loop: Header=BB3_1 Depth=1
	.loc	3 0 28                          @ ../Source/NMEAParser.c:0:28
	movs	r0, #1
.Ltmp122:
	.loc	3 207 27 is_stmt 1              @ ../Source/NMEAParser.c:207:27
	str	r0, [sp, #168]
	.loc	3 208 17                        @ ../Source/NMEAParser.c:208:17
	b	.LBB3_71
.Ltmp123:
.LBB3_71:                               @   in Loop: Header=BB3_1 Depth=1
	.loc	3 0 17 is_stmt 0                @ ../Source/NMEAParser.c:0:17
	b	.LBB3_72
.LBB3_72:                               @   in Loop: Header=BB3_1 Depth=1
.Ltmp124:
	.loc	3 209 21 is_stmt 1              @ ../Source/NMEAParser.c:209:21
	ldr	r0, [sp, #176]
.Ltmp125:
	.loc	3 209 21 is_stmt 0              @ ../Source/NMEAParser.c:209:21
	cmp	r0, #0
	beq	.LBB3_74
	b	.LBB3_73
.LBB3_73:                               @   in Loop: Header=BB3_1 Depth=1
.Ltmp126:
	.loc	3 210 30 is_stmt 1              @ ../Source/NMEAParser.c:210:30
	ldr	r0, [sp, #176]
	.loc	3 210 27 is_stmt 0              @ ../Source/NMEAParser.c:210:27
	ldr	r1, [sp, #172]
	muls	r0, r1, r0
	str	r0, [sp, #172]
	.loc	3 210 21                        @ ../Source/NMEAParser.c:210:21
	b	.LBB3_74
.Ltmp127:
.LBB3_74:                               @   in Loop: Header=BB3_1 Depth=1
	.loc	3 212 18 is_stmt 1              @ ../Source/NMEAParser.c:212:18
	ldr	r0, [sp, #192]
	adds	r1, r0, #4
	str	r1, [sp, #192]
	ldr	r1, [r0]
	.loc	3 212 73 is_stmt 0              @ ../Source/NMEAParser.c:212:73
	ldr	r0, [sp, #172]
	.loc	3 212 72                        @ ../Source/NMEAParser.c:212:72
	str	r0, [sp, #156]
	.loc	3 212 80                        @ ../Source/NMEAParser.c:212:80
	ldr	r0, [sp, #168]
	.loc	3 212 72                        @ ../Source/NMEAParser.c:212:72
	str	r0, [sp, #160]
	.loc	3 212 52                        @ ../Source/NMEAParser.c:212:52
	ldr	r0, [sp, #160]
	str	r0, [r1, #4]
	ldr	r0, [sp, #156]
	str	r0, [r1]
.Ltmp128:
	.loc	3 214 15 is_stmt 1              @ ../Source/NMEAParser.c:214:15
	b	.LBB3_130
.LBB3_75:                               @   in Loop: Header=BB3_1 Depth=1
	.loc	3 0 15 is_stmt 0                @ ../Source/NMEAParser.c:0:15
	movs	r0, #0
.Ltmp129:
	.loc	3 217 21 is_stmt 1              @ ../Source/NMEAParser.c:217:21
	str	r0, [sp, #152]
.Ltmp130:
	.loc	3 219 21                        @ ../Source/NMEAParser.c:219:21
	ldr	r0, [sp, #196]
.Ltmp131:
	.loc	3 219 21 is_stmt 0              @ ../Source/NMEAParser.c:219:21
	cmp	r0, #0
	beq	.LBB3_79
	b	.LBB3_76
.LBB3_76:                               @   in Loop: Header=BB3_1 Depth=1
.Ltmp132:
	.loc	3 221 36 is_stmt 1              @ ../Source/NMEAParser.c:221:36
	ldr	r0, [sp, #196]
	add	r1, sp, #148
	movs	r2, #10
	.loc	3 221 29 is_stmt 0              @ ../Source/NMEAParser.c:221:29
	bl	strtol
	.loc	3 221 27                        @ ../Source/NMEAParser.c:221:27
	str	r0, [sp, #152]
.Ltmp133:
	.loc	3 222 39 is_stmt 1              @ ../Source/NMEAParser.c:222:39
	ldr	r0, [sp, #148]
	.loc	3 222 38 is_stmt 0              @ ../Source/NMEAParser.c:222:38
	ldrb	r0, [r0]
	.loc	3 222 25                        @ ../Source/NMEAParser.c:222:25
	bl	NMEA_Isfield
.Ltmp134:
	.loc	3 222 25                        @ ../Source/NMEAParser.c:222:25
	cmp	r0, #0
	beq	.LBB3_78
	b	.LBB3_77
.LBB3_77:
.Ltmp135:
	.loc	3 223 25 is_stmt 1              @ ../Source/NMEAParser.c:223:25
	b	.LBB3_140
.Ltmp136:
.LBB3_78:                               @   in Loop: Header=BB3_1 Depth=1
	.loc	3 224 17                        @ ../Source/NMEAParser.c:224:17
	b	.LBB3_79
.Ltmp137:
.LBB3_79:                               @   in Loop: Header=BB3_1 Depth=1
	.loc	3 226 38                        @ ../Source/NMEAParser.c:226:38
	ldr	r0, [sp, #152]
	.loc	3 226 18 is_stmt 0              @ ../Source/NMEAParser.c:226:18
	ldr	r1, [sp, #192]
	adds	r2, r1, #4
	str	r2, [sp, #192]
	ldr	r1, [r1]
	.loc	3 226 36                        @ ../Source/NMEAParser.c:226:36
	str	r0, [r1]
.Ltmp138:
	.loc	3 227 15 is_stmt 1              @ ../Source/NMEAParser.c:227:15
	b	.LBB3_130
.LBB3_80:                               @   in Loop: Header=BB3_1 Depth=1
.Ltmp139:
	.loc	3 230 29                        @ ../Source/NMEAParser.c:230:29
	ldr	r0, [sp, #192]
	adds	r1, r0, #4
	str	r1, [sp, #192]
	ldr	r0, [r0]
	.loc	3 230 23 is_stmt 0              @ ../Source/NMEAParser.c:230:23
	str	r0, [sp, #144]
.Ltmp140:
	.loc	3 232 21 is_stmt 1              @ ../Source/NMEAParser.c:232:21
	ldr	r0, [sp, #196]
.Ltmp141:
	.loc	3 232 21 is_stmt 0              @ ../Source/NMEAParser.c:232:21
	cmp	r0, #0
	beq	.LBB3_85
	b	.LBB3_81
.LBB3_81:                               @   in Loop: Header=BB3_1 Depth=1
.Ltmp142:
	.loc	3 233 21 is_stmt 1              @ ../Source/NMEAParser.c:233:21
	b	.LBB3_82
.LBB3_82:                               @   Parent Loop BB3_1 Depth=1
                                        @ =>  This Inner Loop Header: Depth=2
	.loc	3 233 42 is_stmt 0              @ ../Source/NMEAParser.c:233:42
	ldr	r0, [sp, #196]
	.loc	3 233 41                        @ ../Source/NMEAParser.c:233:41
	ldrb	r0, [r0]
	.loc	3 233 28                        @ ../Source/NMEAParser.c:233:28
	bl	NMEA_Isfield
	.loc	3 233 21                        @ ../Source/NMEAParser.c:233:21
	cmp	r0, #0
	beq	.LBB3_84
	b	.LBB3_83
.LBB3_83:                               @   in Loop: Header=BB3_82 Depth=2
	.loc	3 234 40 is_stmt 1              @ ../Source/NMEAParser.c:234:40
	ldr	r0, [sp, #196]
	adds	r1, r0, #1
	str	r1, [sp, #196]
	.loc	3 234 34 is_stmt 0              @ ../Source/NMEAParser.c:234:34
	ldrb	r0, [r0]
	.loc	3 234 29                        @ ../Source/NMEAParser.c:234:29
	ldr	r1, [sp, #144]
	adds	r2, r1, #1
	str	r2, [sp, #144]
	.loc	3 234 32                        @ ../Source/NMEAParser.c:234:32
	strb	r0, [r1]
	.loc	3 233 21 is_stmt 1              @ ../Source/NMEAParser.c:233:21
	b	.LBB3_82
.LBB3_84:                               @   in Loop: Header=BB3_1 Depth=1
	.loc	3 235 17                        @ ../Source/NMEAParser.c:235:17
	b	.LBB3_85
.Ltmp143:
.LBB3_85:                               @   in Loop: Header=BB3_1 Depth=1
	.loc	3 237 18                        @ ../Source/NMEAParser.c:237:18
	ldr	r1, [sp, #144]
	movs	r0, #0
	.loc	3 237 22 is_stmt 0              @ ../Source/NMEAParser.c:237:22
	strb	r0, [r1]
.Ltmp144:
	.loc	3 238 15 is_stmt 1              @ ../Source/NMEAParser.c:238:15
	b	.LBB3_130
.LBB3_86:                               @   in Loop: Header=BB3_1 Depth=1
.Ltmp145:
	.loc	3 243 20                        @ ../Source/NMEAParser.c:243:20
	ldr	r0, [sp, #192]
	adds	r1, r0, #4
	str	r1, [sp, #192]
	ldr	r0, [r0]
	.loc	3 243 14 is_stmt 0              @ ../Source/NMEAParser.c:243:14
	str	r0, [sp, #136]
.Ltmp146:
	.loc	3 244 22 is_stmt 1              @ ../Source/NMEAParser.c:244:22
	ldr	r0, [sp, #196]
.Ltmp147:
	.loc	3 244 21 is_stmt 0              @ ../Source/NMEAParser.c:244:21
	cmp	r0, #0
	bne	.LBB3_88
	b	.LBB3_87
.LBB3_87:
.Ltmp148:
	.loc	3 245 21 is_stmt 1              @ ../Source/NMEAParser.c:245:21
	b	.LBB3_140
.Ltmp149:
.LBB3_88:                               @   in Loop: Header=BB3_1 Depth=1
	.loc	3 247 21                        @ ../Source/NMEAParser.c:247:21
	ldr	r0, [sp, #196]
	ldrb	r0, [r0]
.Ltmp150:
	.loc	3 247 21 is_stmt 0              @ ../Source/NMEAParser.c:247:21
	cmp	r0, #36
	beq	.LBB3_90
	b	.LBB3_89
.LBB3_89:
.Ltmp151:
	.loc	3 248 21 is_stmt 1              @ ../Source/NMEAParser.c:248:21
	b	.LBB3_140
.Ltmp152:
.LBB3_90:                               @   in Loop: Header=BB3_1 Depth=1
	.loc	3 0 21 is_stmt 0                @ ../Source/NMEAParser.c:0:21
	movs	r0, #0
.Ltmp153:
	.loc	3 249 24 is_stmt 1              @ ../Source/NMEAParser.c:249:24
	str	r0, [sp, #140]
	.loc	3 249 23 is_stmt 0              @ ../Source/NMEAParser.c:249:23
	b	.LBB3_91
.LBB3_91:                               @   Parent Loop BB3_1 Depth=1
                                        @ =>  This Inner Loop Header: Depth=2
.Ltmp154:
	.loc	3 249 28                        @ ../Source/NMEAParser.c:249:28
	ldr	r0, [sp, #140]
.Ltmp155:
	.loc	3 249 17                        @ ../Source/NMEAParser.c:249:17
	cmp	r0, #4
	bgt	.LBB3_96
	b	.LBB3_92
.LBB3_92:                               @   in Loop: Header=BB3_91 Depth=2
.Ltmp156:
	.loc	3 250 39 is_stmt 1              @ ../Source/NMEAParser.c:250:39
	ldr	r1, [sp, #196]
	.loc	3 250 47 is_stmt 0              @ ../Source/NMEAParser.c:250:47
	ldr	r0, [sp, #140]
	.loc	3 250 46                        @ ../Source/NMEAParser.c:250:46
	adds	r0, r0, r1
	.loc	3 250 39                        @ ../Source/NMEAParser.c:250:39
	ldrb	r0, [r0, #1]
	.loc	3 250 26                        @ ../Source/NMEAParser.c:250:26
	bl	NMEA_Isfield
.Ltmp157:
	.loc	3 250 25                        @ ../Source/NMEAParser.c:250:25
	cmp	r0, #0
	bne	.LBB3_94
	b	.LBB3_93
.LBB3_93:
.Ltmp158:
	.loc	3 251 25 is_stmt 1              @ ../Source/NMEAParser.c:251:25
	b	.LBB3_140
.LBB3_94:                               @   in Loop: Header=BB3_91 Depth=2
	.loc	3 250 49                        @ ../Source/NMEAParser.c:250:49
	b	.LBB3_95
.Ltmp159:
.LBB3_95:                               @   in Loop: Header=BB3_91 Depth=2
	.loc	3 249 34                        @ ../Source/NMEAParser.c:249:34
	ldr	r0, [sp, #140]
	adds	r0, r0, #1
	str	r0, [sp, #140]
	.loc	3 249 17 is_stmt 0              @ ../Source/NMEAParser.c:249:17
	b	.LBB3_91
.Ltmp160:
.LBB3_96:                               @   in Loop: Header=BB3_1 Depth=1
	.loc	3 254 24 is_stmt 1              @ ../Source/NMEAParser.c:254:24
	ldr	r0, [sp, #136]
	.loc	3 254 29 is_stmt 0              @ ../Source/NMEAParser.c:254:29
	ldr	r1, [sp, #196]
	.loc	3 254 34                        @ ../Source/NMEAParser.c:254:34
	adds	r1, r1, #1
	movs	r2, #5
	.loc	3 254 17                        @ ../Source/NMEAParser.c:254:17
	bl	__aeabi_memcpy
	.loc	3 255 17 is_stmt 1              @ ../Source/NMEAParser.c:255:17
	ldr	r1, [sp, #136]
	movs	r0, #0
	.loc	3 255 24 is_stmt 0              @ ../Source/NMEAParser.c:255:24
	strb	r0, [r1, #5]
.Ltmp161:
	.loc	3 256 15 is_stmt 1              @ ../Source/NMEAParser.c:256:15
	b	.LBB3_130
.LBB3_97:                               @   in Loop: Header=BB3_1 Depth=1
.Ltmp162:
	.loc	3 261 42                        @ ../Source/NMEAParser.c:261:42
	ldr	r0, [sp, #192]
	adds	r1, r0, #4
	str	r1, [sp, #192]
	ldr	r0, [r0]
	.loc	3 261 35 is_stmt 0              @ ../Source/NMEAParser.c:261:35
	str	r0, [sp, #128]
	movs	r0, #0
	mvns	r0, r0
	.loc	3 263 21 is_stmt 1              @ ../Source/NMEAParser.c:263:21
	str	r0, [sp, #124]
	.loc	3 263 29 is_stmt 0              @ ../Source/NMEAParser.c:263:29
	str	r0, [sp, #120]
	.loc	3 263 37                        @ ../Source/NMEAParser.c:263:37
	str	r0, [sp, #116]
.Ltmp163:
	.loc	3 265 21 is_stmt 1              @ ../Source/NMEAParser.c:265:21
	ldr	r0, [sp, #196]
	.loc	3 265 27 is_stmt 0              @ ../Source/NMEAParser.c:265:27
	cmp	r0, #0
	beq	.LBB3_106
	b	.LBB3_98
.LBB3_98:                               @   in Loop: Header=BB3_1 Depth=1
	.loc	3 265 44                        @ ../Source/NMEAParser.c:265:44
	ldr	r0, [sp, #196]
	.loc	3 265 43                        @ ../Source/NMEAParser.c:265:43
	ldrb	r0, [r0]
	.loc	3 265 30                        @ ../Source/NMEAParser.c:265:30
	bl	NMEA_Isfield
.Ltmp164:
	.loc	3 265 21                        @ ../Source/NMEAParser.c:265:21
	cmp	r0, #0
	beq	.LBB3_106
	b	.LBB3_99
.LBB3_99:                               @   in Loop: Header=BB3_1 Depth=1
	.loc	3 0 21                          @ ../Source/NMEAParser.c:0:21
	movs	r0, #0
.Ltmp165:
	.loc	3 267 27 is_stmt 1              @ ../Source/NMEAParser.c:267:27
	str	r0, [sp, #132]
	.loc	3 267 26 is_stmt 0              @ ../Source/NMEAParser.c:267:26
	b	.LBB3_100
.LBB3_100:                              @   Parent Loop BB3_1 Depth=1
                                        @ =>  This Inner Loop Header: Depth=2
.Ltmp166:
	.loc	3 267 31                        @ ../Source/NMEAParser.c:267:31
	ldr	r0, [sp, #132]
.Ltmp167:
	.loc	3 267 21                        @ ../Source/NMEAParser.c:267:21
	cmp	r0, #5
	bgt	.LBB3_105
	b	.LBB3_101
.LBB3_101:                              @   in Loop: Header=BB3_100 Depth=2
.Ltmp168:
	.loc	3 268 30 is_stmt 1              @ ../Source/NMEAParser.c:268:30
	bl	__rt_ctype_table
	ldr	r0, [r0]
	ldr	r1, [sp, #196]
	ldr	r2, [sp, #132]
	ldrb	r1, [r1, r2]
	ldrb	r0, [r0, r1]
.Ltmp169:
	.loc	3 268 29 is_stmt 0              @ ../Source/NMEAParser.c:268:29
	cmp	r0, #32
	beq	.LBB3_103
	b	.LBB3_102
.LBB3_102:
.Ltmp170:
	.loc	3 269 29 is_stmt 1              @ ../Source/NMEAParser.c:269:29
	b	.LBB3_140
.LBB3_103:                              @   in Loop: Header=BB3_100 Depth=2
	.loc	3 268 30                        @ ../Source/NMEAParser.c:268:30
	b	.LBB3_104
.Ltmp171:
.LBB3_104:                              @   in Loop: Header=BB3_100 Depth=2
	.loc	3 267 37                        @ ../Source/NMEAParser.c:267:37
	ldr	r0, [sp, #132]
	adds	r0, r0, #1
	str	r0, [sp, #132]
	.loc	3 267 21 is_stmt 0              @ ../Source/NMEAParser.c:267:21
	b	.LBB3_100
.Ltmp172:
.LBB3_105:                              @   in Loop: Header=BB3_1 Depth=1
	.loc	3 271 36 is_stmt 1              @ ../Source/NMEAParser.c:271:36
	ldr	r0, [sp, #196]
	ldrb	r1, [r0]
	add	r0, sp, #112
	.loc	3 271 35 is_stmt 0              @ ../Source/NMEAParser.c:271:35
	strb	r1, [r0]
	.loc	3 271 46                        @ ../Source/NMEAParser.c:271:46
	ldr	r1, [sp, #196]
	ldrb	r1, [r1, #1]
	.loc	3 271 35                        @ ../Source/NMEAParser.c:271:35
	strb	r1, [r0, #1]
	movs	r1, #0
	str	r1, [sp, #36]                   @ 4-byte Spill
	strb	r1, [r0, #2]
	.loc	3 272 36 is_stmt 1              @ ../Source/NMEAParser.c:272:36
	ldr	r2, [sp, #196]
	ldrb	r3, [r2, #2]
	add	r2, sp, #108
	.loc	3 272 35 is_stmt 0              @ ../Source/NMEAParser.c:272:35
	str	r2, [sp, #32]                   @ 4-byte Spill
	strb	r3, [r2]
	.loc	3 272 46                        @ ../Source/NMEAParser.c:272:46
	ldr	r3, [sp, #196]
	ldrb	r3, [r3, #3]
	.loc	3 272 35                        @ ../Source/NMEAParser.c:272:35
	strb	r3, [r2, #1]
	strb	r1, [r2, #2]
	.loc	3 273 36 is_stmt 1              @ ../Source/NMEAParser.c:273:36
	ldr	r2, [sp, #196]
	ldrb	r3, [r2, #4]
	add	r2, sp, #104
	.loc	3 273 35 is_stmt 0              @ ../Source/NMEAParser.c:273:35
	str	r2, [sp, #44]                   @ 4-byte Spill
	strb	r3, [r2]
	.loc	3 273 46                        @ ../Source/NMEAParser.c:273:46
	ldr	r3, [sp, #196]
	ldrb	r3, [r3, #5]
	.loc	3 273 35                        @ ../Source/NMEAParser.c:273:35
	strb	r3, [r2, #1]
	strb	r1, [r2, #2]
	movs	r2, #10
	.loc	3 274 25 is_stmt 1              @ ../Source/NMEAParser.c:274:25
	str	r2, [sp, #40]                   @ 4-byte Spill
	bl	strtol
	ldr	r1, [sp, #36]                   @ 4-byte Reload
	ldr	r2, [sp, #40]                   @ 4-byte Reload
	mov	r3, r0
	.loc	3 274 23 is_stmt 0              @ ../Source/NMEAParser.c:274:23
	ldr	r0, [sp, #32]                   @ 4-byte Reload
	str	r3, [sp, #124]
	.loc	3 275 25 is_stmt 1              @ ../Source/NMEAParser.c:275:25
	bl	strtol
	ldr	r1, [sp, #36]                   @ 4-byte Reload
	ldr	r2, [sp, #40]                   @ 4-byte Reload
	mov	r3, r0
	.loc	3 275 23 is_stmt 0              @ ../Source/NMEAParser.c:275:23
	ldr	r0, [sp, #44]                   @ 4-byte Reload
	str	r3, [sp, #120]
	.loc	3 276 25 is_stmt 1              @ ../Source/NMEAParser.c:276:25
	bl	strtol
	.loc	3 276 23 is_stmt 0              @ ../Source/NMEAParser.c:276:23
	str	r0, [sp, #116]
	.loc	3 277 17 is_stmt 1              @ ../Source/NMEAParser.c:277:17
	b	.LBB3_106
.Ltmp173:
.LBB3_106:                              @   in Loop: Header=BB3_1 Depth=1
	.loc	3 279 29                        @ ../Source/NMEAParser.c:279:29
	ldr	r0, [sp, #124]
	.loc	3 279 17 is_stmt 0              @ ../Source/NMEAParser.c:279:17
	ldr	r1, [sp, #128]
	.loc	3 279 27                        @ ../Source/NMEAParser.c:279:27
	strb	r0, [r1]
	.loc	3 280 31 is_stmt 1              @ ../Source/NMEAParser.c:280:31
	ldr	r0, [sp, #120]
	.loc	3 280 17 is_stmt 0              @ ../Source/NMEAParser.c:280:17
	ldr	r1, [sp, #128]
	.loc	3 280 29                        @ ../Source/NMEAParser.c:280:29
	strb	r0, [r1, #1]
	.loc	3 281 30 is_stmt 1              @ ../Source/NMEAParser.c:281:30
	ldr	r0, [sp, #116]
	.loc	3 281 17 is_stmt 0              @ ../Source/NMEAParser.c:281:17
	ldr	r1, [sp, #128]
	.loc	3 281 28                        @ ../Source/NMEAParser.c:281:28
	strh	r0, [r1, #2]
.Ltmp174:
	.loc	3 282 15 is_stmt 1              @ ../Source/NMEAParser.c:282:15
	b	.LBB3_130
.LBB3_107:                              @   in Loop: Header=BB3_1 Depth=1
.Ltmp175:
	.loc	3 285 43                        @ ../Source/NMEAParser.c:285:43
	ldr	r0, [sp, #192]
	adds	r1, r0, #4
	str	r1, [sp, #192]
	ldr	r0, [r0]
	.loc	3 285 35 is_stmt 0              @ ../Source/NMEAParser.c:285:35
	str	r0, [sp, #100]
	movs	r0, #0
	mvns	r0, r0
	.loc	3 287 21 is_stmt 1              @ ../Source/NMEAParser.c:287:21
	str	r0, [sp, #96]
	.loc	3 287 29 is_stmt 0              @ ../Source/NMEAParser.c:287:29
	str	r0, [sp, #92]
	.loc	3 287 37                        @ ../Source/NMEAParser.c:287:37
	str	r0, [sp, #88]
	.loc	3 287 45                        @ ../Source/NMEAParser.c:287:45
	str	r0, [sp, #84]
.Ltmp176:
	.loc	3 289 21 is_stmt 1              @ ../Source/NMEAParser.c:289:21
	ldr	r0, [sp, #196]
	.loc	3 289 27 is_stmt 0              @ ../Source/NMEAParser.c:289:27
	cmp	r0, #0
	bne	.LBB3_108
	b	.LBB3_126
.LBB3_108:                              @   in Loop: Header=BB3_1 Depth=1
	.loc	3 289 44                        @ ../Source/NMEAParser.c:289:44
	ldr	r0, [sp, #196]
	.loc	3 289 43                        @ ../Source/NMEAParser.c:289:43
	ldrb	r0, [r0]
	.loc	3 289 30                        @ ../Source/NMEAParser.c:289:30
	bl	NMEA_Isfield
.Ltmp177:
	.loc	3 289 21                        @ ../Source/NMEAParser.c:289:21
	cmp	r0, #0
	bne	.LBB3_109
	b	.LBB3_126
.LBB3_109:                              @   in Loop: Header=BB3_1 Depth=1
	.loc	3 0 21                          @ ../Source/NMEAParser.c:0:21
	movs	r0, #0
.Ltmp178:
	.loc	3 291 30 is_stmt 1              @ ../Source/NMEAParser.c:291:30
	str	r0, [sp, #80]
	.loc	3 291 26 is_stmt 0              @ ../Source/NMEAParser.c:291:26
	b	.LBB3_110
.LBB3_110:                              @   Parent Loop BB3_1 Depth=1
                                        @ =>  This Inner Loop Header: Depth=2
.Ltmp179:
	.loc	3 291 35                        @ ../Source/NMEAParser.c:291:35
	ldr	r0, [sp, #80]
.Ltmp180:
	.loc	3 291 21                        @ ../Source/NMEAParser.c:291:21
	cmp	r0, #5
	bgt	.LBB3_115
	b	.LBB3_111
.LBB3_111:                              @   in Loop: Header=BB3_110 Depth=2
.Ltmp181:
	.loc	3 292 30 is_stmt 1              @ ../Source/NMEAParser.c:292:30
	bl	__rt_ctype_table
	ldr	r0, [r0]
	ldr	r1, [sp, #196]
	ldr	r2, [sp, #80]
	ldrb	r1, [r1, r2]
	ldrb	r0, [r0, r1]
.Ltmp182:
	.loc	3 292 29 is_stmt 0              @ ../Source/NMEAParser.c:292:29
	cmp	r0, #32
	beq	.LBB3_113
	b	.LBB3_112
.LBB3_112:
.Ltmp183:
	.loc	3 293 29 is_stmt 1              @ ../Source/NMEAParser.c:293:29
	b	.LBB3_140
.LBB3_113:                              @   in Loop: Header=BB3_110 Depth=2
	.loc	3 292 30                        @ ../Source/NMEAParser.c:292:30
	b	.LBB3_114
.Ltmp184:
.LBB3_114:                              @   in Loop: Header=BB3_110 Depth=2
	.loc	3 291 41                        @ ../Source/NMEAParser.c:291:41
	ldr	r0, [sp, #80]
	adds	r0, r0, #1
	str	r0, [sp, #80]
	.loc	3 291 21 is_stmt 0              @ ../Source/NMEAParser.c:291:21
	b	.LBB3_110
.Ltmp185:
.LBB3_115:                              @   in Loop: Header=BB3_1 Depth=1
	.loc	3 295 36 is_stmt 1              @ ../Source/NMEAParser.c:295:36
	ldr	r0, [sp, #196]
	ldrb	r1, [r0]
	add	r0, sp, #76
	.loc	3 295 35 is_stmt 0              @ ../Source/NMEAParser.c:295:35
	strb	r1, [r0]
	.loc	3 295 46                        @ ../Source/NMEAParser.c:295:46
	ldr	r1, [sp, #196]
	ldrb	r1, [r1, #1]
	.loc	3 295 35                        @ ../Source/NMEAParser.c:295:35
	strb	r1, [r0, #1]
	movs	r1, #0
	str	r1, [sp, #20]                   @ 4-byte Spill
	strb	r1, [r0, #2]
	.loc	3 296 36 is_stmt 1              @ ../Source/NMEAParser.c:296:36
	ldr	r2, [sp, #196]
	ldrb	r3, [r2, #2]
	add	r2, sp, #72
	.loc	3 296 35 is_stmt 0              @ ../Source/NMEAParser.c:296:35
	str	r2, [sp, #16]                   @ 4-byte Spill
	strb	r3, [r2]
	.loc	3 296 46                        @ ../Source/NMEAParser.c:296:46
	ldr	r3, [sp, #196]
	ldrb	r3, [r3, #3]
	.loc	3 296 35                        @ ../Source/NMEAParser.c:296:35
	strb	r3, [r2, #1]
	strb	r1, [r2, #2]
	.loc	3 297 36 is_stmt 1              @ ../Source/NMEAParser.c:297:36
	ldr	r2, [sp, #196]
	ldrb	r3, [r2, #4]
	add	r2, sp, #68
	.loc	3 297 35 is_stmt 0              @ ../Source/NMEAParser.c:297:35
	str	r2, [sp, #28]                   @ 4-byte Spill
	strb	r3, [r2]
	.loc	3 297 46                        @ ../Source/NMEAParser.c:297:46
	ldr	r3, [sp, #196]
	ldrb	r3, [r3, #5]
	.loc	3 297 35                        @ ../Source/NMEAParser.c:297:35
	strb	r3, [r2, #1]
	strb	r1, [r2, #2]
	movs	r2, #10
	.loc	3 298 25 is_stmt 1              @ ../Source/NMEAParser.c:298:25
	str	r2, [sp, #24]                   @ 4-byte Spill
	bl	strtol
	ldr	r1, [sp, #20]                   @ 4-byte Reload
	ldr	r2, [sp, #24]                   @ 4-byte Reload
	mov	r3, r0
	.loc	3 298 23 is_stmt 0              @ ../Source/NMEAParser.c:298:23
	ldr	r0, [sp, #16]                   @ 4-byte Reload
	str	r3, [sp, #96]
	.loc	3 299 25 is_stmt 1              @ ../Source/NMEAParser.c:299:25
	bl	strtol
	ldr	r1, [sp, #20]                   @ 4-byte Reload
	ldr	r2, [sp, #24]                   @ 4-byte Reload
	mov	r3, r0
	.loc	3 299 23 is_stmt 0              @ ../Source/NMEAParser.c:299:23
	ldr	r0, [sp, #28]                   @ 4-byte Reload
	str	r3, [sp, #92]
	.loc	3 300 25 is_stmt 1              @ ../Source/NMEAParser.c:300:25
	bl	strtol
	.loc	3 300 23 is_stmt 0              @ ../Source/NMEAParser.c:300:23
	str	r0, [sp, #88]
	.loc	3 301 27 is_stmt 1              @ ../Source/NMEAParser.c:301:27
	ldr	r0, [sp, #196]
	adds	r0, r0, #6
	str	r0, [sp, #196]
.Ltmp186:
	.loc	3 304 31                        @ ../Source/NMEAParser.c:304:31
	ldr	r0, [sp, #196]
	adds	r1, r0, #1
	str	r1, [sp, #196]
	.loc	3 304 25 is_stmt 0              @ ../Source/NMEAParser.c:304:25
	ldrb	r0, [r0]
.Ltmp187:
	.loc	3 304 25                        @ ../Source/NMEAParser.c:304:25
	cmp	r0, #46
	bne	.LBB3_124
	b	.LBB3_116
.LBB3_116:                              @   in Loop: Header=BB3_1 Depth=1
	.loc	3 0 25                          @ ../Source/NMEAParser.c:0:25
	movs	r0, #0
.Ltmp188:
	.loc	3 305 34 is_stmt 1              @ ../Source/NMEAParser.c:305:34
	str	r0, [sp, #64]
	ldr	r0, __arm_cp.3_0
	.loc	3 306 34                        @ ../Source/NMEAParser.c:306:34
	str	r0, [sp, #60]
	.loc	3 307 25                        @ ../Source/NMEAParser.c:307:25
	b	.LBB3_117
.LBB3_117:                              @   Parent Loop BB3_1 Depth=1
                                        @ =>  This Inner Loop Header: Depth=2
	.loc	3 307 32 is_stmt 0              @ ../Source/NMEAParser.c:307:32
	bl	__rt_ctype_table
	ldr	r0, [r0]
	ldr	r1, [sp, #196]
	ldrb	r1, [r1]
	ldrb	r1, [r0, r1]
	movs	r0, #0
	.loc	3 307 64                        @ ../Source/NMEAParser.c:307:64
	cmp	r1, #32
	str	r0, [sp, #12]                   @ 4-byte Spill
	bne	.LBB3_121
	b	.LBB3_118
.LBB3_118:                              @   in Loop: Header=BB3_117 Depth=2
	.loc	3 307 67                        @ ../Source/NMEAParser.c:307:67
	ldr	r1, [sp, #60]
	movs	r0, #1
	movs	r2, #0
	.loc	3 307 73                        @ ../Source/NMEAParser.c:307:73
	str	r2, [sp, #4]                    @ 4-byte Spill
	cmp	r1, #1
	str	r0, [sp, #8]                    @ 4-byte Spill
	bhi	.LBB3_120
@ %bb.119:                              @   in Loop: Header=BB3_117 Depth=2
	ldr	r0, [sp, #4]                    @ 4-byte Reload
	str	r0, [sp, #8]                    @ 4-byte Spill
.LBB3_120:                              @   in Loop: Header=BB3_117 Depth=2
	ldr	r0, [sp, #8]                    @ 4-byte Reload
	str	r0, [sp, #12]                   @ 4-byte Spill
	b	.LBB3_121
.LBB3_121:                              @   in Loop: Header=BB3_117 Depth=2
	.loc	3 0 0                           @ ../Source/NMEAParser.c:0:0
	ldr	r0, [sp, #12]                   @ 4-byte Reload
	.loc	3 307 25                        @ ../Source/NMEAParser.c:307:25
	lsls	r0, r0, #31
	cmp	r0, #0
	beq	.LBB3_123
	b	.LBB3_122
.LBB3_122:                              @   in Loop: Header=BB3_117 Depth=2
.Ltmp189:
	.loc	3 308 38 is_stmt 1              @ ../Source/NMEAParser.c:308:38
	ldr	r0, [sp, #64]
	movs	r1, #10
	.loc	3 308 44 is_stmt 0              @ ../Source/NMEAParser.c:308:44
	mov	r2, r1
	muls	r2, r0, r2
	.loc	3 308 59                        @ ../Source/NMEAParser.c:308:59
	ldr	r0, [sp, #196]
	adds	r3, r0, #1
	str	r3, [sp, #196]
	.loc	3 308 53                        @ ../Source/NMEAParser.c:308:53
	ldrb	r0, [r0]
	.loc	3 308 50                        @ ../Source/NMEAParser.c:308:50
	adds	r0, r0, r2
	subs	r0, #48
	.loc	3 308 35                        @ ../Source/NMEAParser.c:308:35
	str	r0, [sp, #64]
	.loc	3 309 35 is_stmt 1              @ ../Source/NMEAParser.c:309:35
	ldr	r0, [sp, #60]
	bl	__aeabi_uidiv
	str	r0, [sp, #60]
.Ltmp190:
	.loc	3 307 25                        @ ../Source/NMEAParser.c:307:25
	b	.LBB3_117
.LBB3_123:                              @   in Loop: Header=BB3_1 Depth=1
	.loc	3 311 29                        @ ../Source/NMEAParser.c:311:29
	ldr	r1, [sp, #64]
	.loc	3 311 37 is_stmt 0              @ ../Source/NMEAParser.c:311:37
	ldr	r0, [sp, #60]
	.loc	3 311 35                        @ ../Source/NMEAParser.c:311:35
	muls	r0, r1, r0
	.loc	3 311 27                        @ ../Source/NMEAParser.c:311:27
	str	r0, [sp, #84]
	.loc	3 312 21 is_stmt 1              @ ../Source/NMEAParser.c:312:21
	b	.LBB3_125
.Ltmp191:
.LBB3_124:                              @   in Loop: Header=BB3_1 Depth=1
	.loc	3 0 21 is_stmt 0                @ ../Source/NMEAParser.c:0:21
	movs	r0, #0
.Ltmp192:
	.loc	3 313 27 is_stmt 1              @ ../Source/NMEAParser.c:313:27
	str	r0, [sp, #84]
	b	.LBB3_125
.Ltmp193:
.LBB3_125:                              @   in Loop: Header=BB3_1 Depth=1
	.loc	3 315 17                        @ ../Source/NMEAParser.c:315:17
	b	.LBB3_126
.Ltmp194:
.LBB3_126:                              @   in Loop: Header=BB3_1 Depth=1
	.loc	3 317 32                        @ ../Source/NMEAParser.c:317:32
	ldr	r0, [sp, #96]
	.loc	3 317 17 is_stmt 0              @ ../Source/NMEAParser.c:317:17
	ldr	r1, [sp, #100]
	.loc	3 317 30                        @ ../Source/NMEAParser.c:317:30
	strb	r0, [r1]
	.loc	3 318 34 is_stmt 1              @ ../Source/NMEAParser.c:318:34
	ldr	r0, [sp, #92]
	.loc	3 318 17 is_stmt 0              @ ../Source/NMEAParser.c:318:17
	ldr	r1, [sp, #100]
	.loc	3 318 32                        @ ../Source/NMEAParser.c:318:32
	strb	r0, [r1, #1]
	.loc	3 319 34 is_stmt 1              @ ../Source/NMEAParser.c:319:34
	ldr	r0, [sp, #88]
	.loc	3 319 17 is_stmt 0              @ ../Source/NMEAParser.c:319:17
	ldr	r1, [sp, #100]
	.loc	3 319 32                        @ ../Source/NMEAParser.c:319:32
	strb	r0, [r1, #2]
	.loc	3 320 39 is_stmt 1              @ ../Source/NMEAParser.c:320:39
	ldr	r0, [sp, #84]
	.loc	3 320 17 is_stmt 0              @ ../Source/NMEAParser.c:320:17
	ldr	r1, [sp, #100]
	.loc	3 320 37                        @ ../Source/NMEAParser.c:320:37
	strb	r0, [r1, #3]
.Ltmp195:
	.loc	3 321 15 is_stmt 1              @ ../Source/NMEAParser.c:321:15
	b	.LBB3_130
	.p2align	2
@ %bb.127:
	.loc	3 0 15 is_stmt 0                @ ../Source/NMEAParser.c:0:15
__arm_cp.3_4:
	.long	2147483647                      @ 0x7fffffff
.Lcpi_end2:
	.size	__arm_cp.3_4, .Lcpi_end2-__arm_cp.3_4
	.p2align	1
.LBB3_128:                              @   in Loop: Header=BB3_1 Depth=1
	.loc	3 324 15 is_stmt 1              @ ../Source/NMEAParser.c:324:15
	b	.LBB3_130
.LBB3_129:
.Ltmp196:
	.loc	3 327 17                        @ ../Source/NMEAParser.c:327:17
	b	.LBB3_140
.Ltmp197:
.LBB3_130:                              @   in Loop: Header=BB3_1 Depth=1
	.loc	3 331 9                         @ ../Source/NMEAParser.c:331:9
	b	.LBB3_131
.LBB3_131:                              @   in Loop: Header=BB3_1 Depth=1
.Ltmp198:
	.loc	3 331 9 is_stmt 0               @ ../Source/NMEAParser.c:331:9
	b	.LBB3_132
.LBB3_132:                              @   Parent Loop BB3_1 Depth=1
                                        @ =>  This Inner Loop Header: Depth=2
	ldr	r0, [sp, #212]
	ldrb	r0, [r0]
	bl	NMEA_Isfield
	cmp	r0, #0
	beq	.LBB3_134
	b	.LBB3_133
.LBB3_133:                              @   in Loop: Header=BB3_132 Depth=2
	ldr	r0, [sp, #212]
	adds	r0, r0, #1
	str	r0, [sp, #212]
	b	.LBB3_132
.LBB3_134:                              @   in Loop: Header=BB3_1 Depth=1
.Ltmp199:
	.loc	3 331 9                         @ ../Source/NMEAParser.c:331:9
	ldr	r0, [sp, #212]
	ldrb	r0, [r0]
.Ltmp200:
	.loc	3 331 9                         @ ../Source/NMEAParser.c:331:9
	cmp	r0, #44
	bne	.LBB3_136
	b	.LBB3_135
.LBB3_135:                              @   in Loop: Header=BB3_1 Depth=1
.Ltmp201:
	.loc	3 331 9                         @ ../Source/NMEAParser.c:331:9
	ldr	r0, [sp, #212]
	adds	r0, r0, #1
	str	r0, [sp, #212]
	ldr	r0, [sp, #212]
	str	r0, [sp, #196]
	b	.LBB3_137
.Ltmp202:
.LBB3_136:                              @   in Loop: Header=BB3_1 Depth=1
	.loc	3 0 9                           @ ../Source/NMEAParser.c:0:9
	movs	r0, #0
.Ltmp203:
	.loc	3 331 9                         @ ../Source/NMEAParser.c:331:9
	str	r0, [sp, #196]
	b	.LBB3_137
.Ltmp204:
.LBB3_137:                              @   in Loop: Header=BB3_1 Depth=1
	.loc	3 331 9                         @ ../Source/NMEAParser.c:331:9
	b	.LBB3_138
.Ltmp205:
.LBB3_138:                              @   in Loop: Header=BB3_1 Depth=1
	.loc	3 107 5 is_stmt 1               @ ../Source/NMEAParser.c:107:5
	b	.LBB3_1
.LBB3_139:
	.loc	3 0 5 is_stmt 0                 @ ../Source/NMEAParser.c:0:5
	add	r1, sp, #204
	movs	r0, #1
	.loc	3 334 12 is_stmt 1              @ ../Source/NMEAParser.c:334:12
	strb	r0, [r1]
	.loc	3 334 5 is_stmt 0               @ ../Source/NMEAParser.c:334:5
	b	.LBB3_140
.LBB3_140:
.Ltmp206:
	@DEBUG_LABEL: NMEA_Scan:parse_error
	.loc	3 0 5                           @ ../Source/NMEAParser.c:0:5
	add	r0, sp, #204
	.loc	3 338 5 is_stmt 1               @ ../Source/NMEAParser.c:338:5
	ldrb	r0, [r0]
	movs	r1, #1
	ands	r0, r1
	add	sp, #216
	pop	{r7}
	pop	{r1}
	add	sp, #8
	mov	lr, r1
	bx	lr
.Ltmp207:
	.p2align	2
@ %bb.141:
	.loc	3 0 5 is_stmt 0                 @ ../Source/NMEAParser.c:0:5
__arm_cp.3_0:
	.long	1000000                         @ 0xf4240
.Lcpi_end3:
	.size	__arm_cp.3_0, .Lcpi_end3-__arm_cp.3_0
.Lfunc_end3:
	.size	NMEA_Scan, .Lfunc_end3-NMEA_Scan
	.cfi_endproc
	.cantunwind
	.fnend
                                        @ -- End function
	.section	.text.NMEA_Isfield,"ax",%progbits
	.p2align	1                               @ -- Begin function NMEA_Isfield
	.type	NMEA_Isfield,%function
	.code	16                              @ @NMEA_Isfield
	.thumb_func
NMEA_Isfield:
.Lfunc_begin4:
	.loc	3 10 0 is_stmt 1                @ ../Source/NMEAParser.c:10:0
	.fnstart
	.cfi_startproc
@ %bb.0:
	.save	{r7, lr}
	push	{r7, lr}
	.cfi_def_cfa_offset 8
	.cfi_offset lr, -4
	.cfi_offset r7, -8
	.pad	#16
	sub	sp, #16
	.cfi_def_cfa_offset 24
                                        @ kill: def $r1 killed $r0
	add	r1, sp, #12
	str	r1, [sp, #4]                    @ 4-byte Spill
	strb	r0, [r1]
.Ltmp208:
	.loc	3 11 12 prologue_end            @ ../Source/NMEAParser.c:11:12
	bl	__rt_ctype_table
	ldr	r1, [sp, #4]                    @ 4-byte Reload
	ldr	r0, [r0]
	ldrb	r1, [r1]
	ldrb	r1, [r0, r1]
	movs	r0, #0
	.loc	3 11 39 is_stmt 0               @ ../Source/NMEAParser.c:11:39
	lsls	r1, r1, #26
	lsrs	r1, r1, #27
	cmp	r1, #0
	str	r0, [sp, #8]                    @ 4-byte Spill
	beq	.LBB4_3
	b	.LBB4_1
.LBB4_1:
	.loc	3 0 39                          @ ../Source/NMEAParser.c:0:39
	add	r0, sp, #12
	.loc	3 11 42                         @ ../Source/NMEAParser.c:11:42
	ldrb	r1, [r0]
	movs	r0, #0
	.loc	3 11 51                         @ ../Source/NMEAParser.c:11:51
	cmp	r1, #44
	str	r0, [sp, #8]                    @ 4-byte Spill
	beq	.LBB4_3
	b	.LBB4_2
.LBB4_2:
	.loc	3 0 51                          @ ../Source/NMEAParser.c:0:51
	add	r0, sp, #12
	.loc	3 11 54                         @ ../Source/NMEAParser.c:11:54
	ldrb	r0, [r0]
	.loc	3 11 56                         @ ../Source/NMEAParser.c:11:56
	subs	r0, #42
	subs	r1, r0, #1
	sbcs	r0, r1
	str	r0, [sp, #8]                    @ 4-byte Spill
	b	.LBB4_3
.LBB4_3:
	.loc	3 0 0                           @ ../Source/NMEAParser.c:0:0
	ldr	r0, [sp, #8]                    @ 4-byte Reload
	movs	r1, #1
	.loc	3 11 5                          @ ../Source/NMEAParser.c:11:5
	ands	r0, r1
	add	sp, #16
	pop	{r7, pc}
.Ltmp209:
.Lfunc_end4:
	.size	NMEA_Isfield, .Lfunc_end4-NMEA_Isfield
	.cfi_endproc
	.cantunwind
	.fnend
                                        @ -- End function
	.section	.text.minmea_talker_id,"ax",%progbits
	.hidden	minmea_talker_id                @ -- Begin function minmea_talker_id
	.globl	minmea_talker_id
	.p2align	2
	.type	minmea_talker_id,%function
	.code	16                              @ @minmea_talker_id
	.thumb_func
minmea_talker_id:
.Lfunc_begin5:
	.loc	3 342 0 is_stmt 1               @ ../Source/NMEAParser.c:342:0
	.fnstart
	.cfi_startproc
@ %bb.0:
	.save	{r7, lr}
	push	{r7, lr}
	.cfi_def_cfa_offset 8
	.cfi_offset lr, -4
	.cfi_offset r7, -8
	.pad	#24
	sub	sp, #24
	.cfi_def_cfa_offset 32
	str	r0, [sp, #16]
	str	r1, [sp, #12]
.Ltmp210:
	.loc	3 344 20 prologue_end           @ ../Source/NMEAParser.c:344:20
	ldr	r0, [sp, #12]
	.loc	3 344 10 is_stmt 0              @ ../Source/NMEAParser.c:344:10
	ldr	r1, __arm_cp.5_0
	add	r2, sp, #4
	bl	NMEA_Scan
.Ltmp211:
	.loc	3 344 9                         @ ../Source/NMEAParser.c:344:9
	cmp	r0, #0
	bne	.LBB5_2
	b	.LBB5_1
.LBB5_1:
	.loc	3 0 9                           @ ../Source/NMEAParser.c:0:9
	add	r1, sp, #20
	movs	r0, #0
.Ltmp212:
	.loc	3 345 9 is_stmt 1               @ ../Source/NMEAParser.c:345:9
	strb	r0, [r1]
	b	.LBB5_3
.Ltmp213:
.LBB5_2:
	.loc	3 347 17                        @ ../Source/NMEAParser.c:347:17
	ldr	r0, [sp, #4]
	.loc	3 347 5 is_stmt 0               @ ../Source/NMEAParser.c:347:5
	ldr	r1, [sp, #16]
	.loc	3 347 15                        @ ../Source/NMEAParser.c:347:15
	strb	r0, [r1]
	add	r0, sp, #4
	.loc	3 348 17 is_stmt 1              @ ../Source/NMEAParser.c:348:17
	ldrb	r0, [r0, #1]
	.loc	3 348 5 is_stmt 0               @ ../Source/NMEAParser.c:348:5
	ldr	r1, [sp, #16]
	.loc	3 348 15                        @ ../Source/NMEAParser.c:348:15
	strb	r0, [r1, #1]
	.loc	3 349 5 is_stmt 1               @ ../Source/NMEAParser.c:349:5
	ldr	r1, [sp, #16]
	movs	r0, #0
	.loc	3 349 15 is_stmt 0              @ ../Source/NMEAParser.c:349:15
	strb	r0, [r1, #2]
	add	r1, sp, #20
	movs	r0, #1
	.loc	3 351 5 is_stmt 1               @ ../Source/NMEAParser.c:351:5
	strb	r0, [r1]
	b	.LBB5_3
.LBB5_3:
	.loc	3 0 5 is_stmt 0                 @ ../Source/NMEAParser.c:0:5
	add	r0, sp, #20
	.loc	3 352 1 is_stmt 1               @ ../Source/NMEAParser.c:352:1
	ldrb	r0, [r0]
	add	sp, #24
	pop	{r7, pc}
.Ltmp214:
	.p2align	2
@ %bb.4:
	.loc	3 0 1 is_stmt 0                 @ ../Source/NMEAParser.c:0:1
__arm_cp.5_0:
	.long	.L.str.2
.Lcpi_end4:
	.size	__arm_cp.5_0, .Lcpi_end4-__arm_cp.5_0
.Lfunc_end5:
	.size	minmea_talker_id, .Lfunc_end5-minmea_talker_id
	.cfi_endproc
	.cantunwind
	.fnend
                                        @ -- End function
	.section	.text.nmea_sentence_id,"ax",%progbits
	.hidden	nmea_sentence_id                @ -- Begin function nmea_sentence_id
	.globl	nmea_sentence_id
	.p2align	2
	.type	nmea_sentence_id,%function
	.code	16                              @ @nmea_sentence_id
	.thumb_func
nmea_sentence_id:
.Lfunc_begin6:
	.loc	3 355 0 is_stmt 1               @ ../Source/NMEAParser.c:355:0
	.fnstart
	.cfi_startproc
@ %bb.0:
	.save	{r7, lr}
	push	{r7, lr}
	.cfi_def_cfa_offset 8
	.cfi_offset lr, -4
	.cfi_offset r7, -8
	.pad	#24
	sub	sp, #24
	.cfi_def_cfa_offset 32
	str	r1, [sp]                        @ 4-byte Spill
	mov	r1, r0
	ldr	r0, [sp]                        @ 4-byte Reload
                                        @ kill: def $r2 killed $r0
	str	r1, [sp, #16]
	add	r1, sp, #12
	strb	r0, [r1]
.Ltmp215:
	.loc	3 356 21 prologue_end           @ ../Source/NMEAParser.c:356:21
	ldr	r0, [sp, #16]
	.loc	3 356 10 is_stmt 0              @ ../Source/NMEAParser.c:356:10
	ldrb	r1, [r1]
	movs	r2, #1
	ands	r1, r2
	bl	NMEA_Check
.Ltmp216:
	.loc	3 356 9                         @ ../Source/NMEAParser.c:356:9
	cmp	r0, #0
	bne	.LBB6_2
	b	.LBB6_1
.LBB6_1:
	.loc	3 0 9                           @ ../Source/NMEAParser.c:0:9
	add	r1, sp, #20
	movs	r0, #255
.Ltmp217:
	.loc	3 357 9 is_stmt 1               @ ../Source/NMEAParser.c:357:9
	strb	r0, [r1]
	b	.LBB6_21
.Ltmp218:
.LBB6_2:
	.loc	3 360 20                        @ ../Source/NMEAParser.c:360:20
	ldr	r0, [sp, #16]
	.loc	3 360 10 is_stmt 0              @ ../Source/NMEAParser.c:360:10
	ldr	r1, __arm_cp.6_0
	add	r2, sp, #4
	bl	NMEA_Scan
.Ltmp219:
	.loc	3 360 9                         @ ../Source/NMEAParser.c:360:9
	cmp	r0, #0
	bne	.LBB6_4
	b	.LBB6_3
.LBB6_3:
	.loc	3 0 9                           @ ../Source/NMEAParser.c:0:9
	add	r1, sp, #20
	movs	r0, #255
.Ltmp220:
	.loc	3 361 9 is_stmt 1               @ ../Source/NMEAParser.c:361:9
	strb	r0, [r1]
	b	.LBB6_21
.Ltmp221:
.LBB6_4:
	.loc	3 0 9 is_stmt 0                 @ ../Source/NMEAParser.c:0:9
	add	r0, sp, #4
.Ltmp222:
	.loc	3 363 21 is_stmt 1              @ ../Source/NMEAParser.c:363:21
	adds	r0, r0, #2
	.loc	3 363 10 is_stmt 0              @ ../Source/NMEAParser.c:363:10
	ldr	r1, __arm_cp.6_1
	bl	strcmp
.Ltmp223:
	.loc	3 363 9                         @ ../Source/NMEAParser.c:363:9
	cmp	r0, #0
	bne	.LBB6_6
	b	.LBB6_5
.LBB6_5:
	.loc	3 0 9                           @ ../Source/NMEAParser.c:0:9
	add	r1, sp, #20
	movs	r0, #1
.Ltmp224:
	.loc	3 364 9 is_stmt 1               @ ../Source/NMEAParser.c:364:9
	strb	r0, [r1]
	b	.LBB6_21
.Ltmp225:
.LBB6_6:
	.loc	3 0 9 is_stmt 0                 @ ../Source/NMEAParser.c:0:9
	add	r0, sp, #4
.Ltmp226:
	.loc	3 365 21 is_stmt 1              @ ../Source/NMEAParser.c:365:21
	adds	r0, r0, #2
	.loc	3 365 10 is_stmt 0              @ ../Source/NMEAParser.c:365:10
	ldr	r1, __arm_cp.6_2
	bl	strcmp
.Ltmp227:
	.loc	3 365 9                         @ ../Source/NMEAParser.c:365:9
	cmp	r0, #0
	bne	.LBB6_8
	b	.LBB6_7
.LBB6_7:
	.loc	3 0 9                           @ ../Source/NMEAParser.c:0:9
	add	r1, sp, #20
	movs	r0, #2
.Ltmp228:
	.loc	3 366 9 is_stmt 1               @ ../Source/NMEAParser.c:366:9
	strb	r0, [r1]
	b	.LBB6_21
.Ltmp229:
.LBB6_8:
	.loc	3 0 9 is_stmt 0                 @ ../Source/NMEAParser.c:0:9
	add	r0, sp, #4
.Ltmp230:
	.loc	3 367 21 is_stmt 1              @ ../Source/NMEAParser.c:367:21
	adds	r0, r0, #2
	.loc	3 367 10 is_stmt 0              @ ../Source/NMEAParser.c:367:10
	ldr	r1, __arm_cp.6_3
	bl	strcmp
.Ltmp231:
	.loc	3 367 9                         @ ../Source/NMEAParser.c:367:9
	cmp	r0, #0
	bne	.LBB6_10
	b	.LBB6_9
.LBB6_9:
	.loc	3 0 9                           @ ../Source/NMEAParser.c:0:9
	add	r1, sp, #20
	movs	r0, #3
.Ltmp232:
	.loc	3 368 9 is_stmt 1               @ ../Source/NMEAParser.c:368:9
	strb	r0, [r1]
	b	.LBB6_21
.Ltmp233:
.LBB6_10:
	.loc	3 0 9 is_stmt 0                 @ ../Source/NMEAParser.c:0:9
	add	r0, sp, #4
.Ltmp234:
	.loc	3 369 21 is_stmt 1              @ ../Source/NMEAParser.c:369:21
	adds	r0, r0, #2
	.loc	3 369 10 is_stmt 0              @ ../Source/NMEAParser.c:369:10
	ldr	r1, __arm_cp.6_4
	bl	strcmp
.Ltmp235:
	.loc	3 369 9                         @ ../Source/NMEAParser.c:369:9
	cmp	r0, #0
	bne	.LBB6_12
	b	.LBB6_11
.LBB6_11:
	.loc	3 0 9                           @ ../Source/NMEAParser.c:0:9
	add	r1, sp, #20
	movs	r0, #4
.Ltmp236:
	.loc	3 370 9 is_stmt 1               @ ../Source/NMEAParser.c:370:9
	strb	r0, [r1]
	b	.LBB6_21
.Ltmp237:
.LBB6_12:
	.loc	3 0 9 is_stmt 0                 @ ../Source/NMEAParser.c:0:9
	add	r0, sp, #4
.Ltmp238:
	.loc	3 371 21 is_stmt 1              @ ../Source/NMEAParser.c:371:21
	adds	r0, r0, #2
	.loc	3 371 10 is_stmt 0              @ ../Source/NMEAParser.c:371:10
	ldr	r1, __arm_cp.6_5
	bl	strcmp
.Ltmp239:
	.loc	3 371 9                         @ ../Source/NMEAParser.c:371:9
	cmp	r0, #0
	bne	.LBB6_14
	b	.LBB6_13
.LBB6_13:
	.loc	3 0 9                           @ ../Source/NMEAParser.c:0:9
	add	r1, sp, #20
	movs	r0, #5
.Ltmp240:
	.loc	3 372 9 is_stmt 1               @ ../Source/NMEAParser.c:372:9
	strb	r0, [r1]
	b	.LBB6_21
.Ltmp241:
.LBB6_14:
	.loc	3 0 9 is_stmt 0                 @ ../Source/NMEAParser.c:0:9
	add	r0, sp, #4
.Ltmp242:
	.loc	3 373 21 is_stmt 1              @ ../Source/NMEAParser.c:373:21
	adds	r0, r0, #2
	.loc	3 373 10 is_stmt 0              @ ../Source/NMEAParser.c:373:10
	ldr	r1, __arm_cp.6_6
	bl	strcmp
.Ltmp243:
	.loc	3 373 9                         @ ../Source/NMEAParser.c:373:9
	cmp	r0, #0
	bne	.LBB6_16
	b	.LBB6_15
.LBB6_15:
	.loc	3 0 9                           @ ../Source/NMEAParser.c:0:9
	add	r1, sp, #20
	movs	r0, #6
.Ltmp244:
	.loc	3 374 9 is_stmt 1               @ ../Source/NMEAParser.c:374:9
	strb	r0, [r1]
	b	.LBB6_21
.Ltmp245:
.LBB6_16:
	.loc	3 0 9 is_stmt 0                 @ ../Source/NMEAParser.c:0:9
	add	r0, sp, #4
.Ltmp246:
	.loc	3 375 21 is_stmt 1              @ ../Source/NMEAParser.c:375:21
	adds	r0, r0, #2
	.loc	3 375 10 is_stmt 0              @ ../Source/NMEAParser.c:375:10
	ldr	r1, __arm_cp.6_7
	bl	strcmp
.Ltmp247:
	.loc	3 375 9                         @ ../Source/NMEAParser.c:375:9
	cmp	r0, #0
	bne	.LBB6_18
	b	.LBB6_17
.LBB6_17:
	.loc	3 0 9                           @ ../Source/NMEAParser.c:0:9
	add	r1, sp, #20
	movs	r0, #7
.Ltmp248:
	.loc	3 376 9 is_stmt 1               @ ../Source/NMEAParser.c:376:9
	strb	r0, [r1]
	b	.LBB6_21
.Ltmp249:
.LBB6_18:
	.loc	3 0 9 is_stmt 0                 @ ../Source/NMEAParser.c:0:9
	add	r0, sp, #4
.Ltmp250:
	.loc	3 377 21 is_stmt 1              @ ../Source/NMEAParser.c:377:21
	adds	r0, r0, #2
	.loc	3 377 10 is_stmt 0              @ ../Source/NMEAParser.c:377:10
	ldr	r1, __arm_cp.6_8
	bl	strcmp
.Ltmp251:
	.loc	3 377 9                         @ ../Source/NMEAParser.c:377:9
	cmp	r0, #0
	bne	.LBB6_20
	b	.LBB6_19
.LBB6_19:
	.loc	3 0 9                           @ ../Source/NMEAParser.c:0:9
	add	r1, sp, #20
	movs	r0, #8
.Ltmp252:
	.loc	3 378 9 is_stmt 1               @ ../Source/NMEAParser.c:378:9
	strb	r0, [r1]
	b	.LBB6_21
.Ltmp253:
.LBB6_20:
	.loc	3 0 9 is_stmt 0                 @ ../Source/NMEAParser.c:0:9
	add	r1, sp, #20
	movs	r0, #0
	.loc	3 380 5 is_stmt 1               @ ../Source/NMEAParser.c:380:5
	strb	r0, [r1]
	b	.LBB6_21
.LBB6_21:
	.loc	3 0 5 is_stmt 0                 @ ../Source/NMEAParser.c:0:5
	add	r0, sp, #20
	.loc	3 381 1 is_stmt 1               @ ../Source/NMEAParser.c:381:1
	ldrb	r0, [r0]
	sxtb	r0, r0
	add	sp, #24
	pop	{r7, pc}
.Ltmp254:
	.p2align	2
@ %bb.22:
	.loc	3 0 1 is_stmt 0                 @ ../Source/NMEAParser.c:0:1
__arm_cp.6_0:
	.long	.L.str.2
.Lcpi_end5:
	.size	__arm_cp.6_0, .Lcpi_end5-__arm_cp.6_0
__arm_cp.6_1:
	.long	.L.str.3
.Lcpi_end6:
	.size	__arm_cp.6_1, .Lcpi_end6-__arm_cp.6_1
__arm_cp.6_2:
	.long	.L.str.4
.Lcpi_end7:
	.size	__arm_cp.6_2, .Lcpi_end7-__arm_cp.6_2
__arm_cp.6_3:
	.long	.L.str.5
.Lcpi_end8:
	.size	__arm_cp.6_3, .Lcpi_end8-__arm_cp.6_3
__arm_cp.6_4:
	.long	.L.str.6
.Lcpi_end9:
	.size	__arm_cp.6_4, .Lcpi_end9-__arm_cp.6_4
__arm_cp.6_5:
	.long	.L.str.7
.Lcpi_end10:
	.size	__arm_cp.6_5, .Lcpi_end10-__arm_cp.6_5
__arm_cp.6_6:
	.long	.L.str.8
.Lcpi_end11:
	.size	__arm_cp.6_6, .Lcpi_end11-__arm_cp.6_6
__arm_cp.6_7:
	.long	.L.str.9
.Lcpi_end12:
	.size	__arm_cp.6_7, .Lcpi_end12-__arm_cp.6_7
__arm_cp.6_8:
	.long	.L.str.10
.Lcpi_end13:
	.size	__arm_cp.6_8, .Lcpi_end13-__arm_cp.6_8
.Lfunc_end6:
	.size	nmea_sentence_id, .Lfunc_end6-nmea_sentence_id
	.cfi_endproc
	.cantunwind
	.fnend
                                        @ -- End function
	.section	.text.NMEA_Parse_RMC,"ax",%progbits
	.hidden	NMEA_Parse_RMC                  @ -- Begin function NMEA_Parse_RMC
	.globl	NMEA_Parse_RMC
	.p2align	2
	.type	NMEA_Parse_RMC,%function
	.code	16                              @ @NMEA_Parse_RMC
	.thumb_func
NMEA_Parse_RMC:
.Lfunc_begin7:
	.loc	3 384 0 is_stmt 1               @ ../Source/NMEAParser.c:384:0
	.fnstart
	.cfi_startproc
@ %bb.0:
	.save	{r4, r5, r6, r7, lr}
	push	{r4, r5, r6, r7, lr}
	.cfi_def_cfa_offset 20
	.cfi_offset lr, -4
	.cfi_offset r7, -8
	.cfi_offset r6, -12
	.cfi_offset r5, -16
	.cfi_offset r4, -20
	.pad	#84
	sub	sp, #84
	.cfi_def_cfa_offset 104
	str	r0, [sp, #76]
	str	r1, [sp, #72]
.Ltmp255:
	.loc	3 391 20 prologue_end           @ ../Source/NMEAParser.c:391:20
	ldr	r0, [sp, #72]
	.loc	3 393 14                        @ ../Source/NMEAParser.c:393:14
	str	r0, [sp, #44]                   @ 4-byte Spill
	ldr	r3, [sp, #76]
	.loc	3 395 21                        @ ../Source/NMEAParser.c:395:21
	mov	r1, r3
	adds	r1, #8
	.loc	3 396 21                        @ ../Source/NMEAParser.c:396:21
	mov	r2, r3
	adds	r2, #16
	.loc	3 397 21                        @ ../Source/NMEAParser.c:397:21
	mov	r4, r3
	adds	r4, #24
	.loc	3 398 21                        @ ../Source/NMEAParser.c:398:21
	mov	r5, r3
	adds	r5, #32
	.loc	3 399 21                        @ ../Source/NMEAParser.c:399:21
	mov	r6, r3
	adds	r6, #40
	.loc	3 400 21                        @ ../Source/NMEAParser.c:400:21
	mov	r7, r3
	adds	r7, #44
	add	r0, sp, #48
	.loc	3 391 10                        @ ../Source/NMEAParser.c:391:10
	str	r0, [sp, #36]
	ldr	r0, [sp, #44]                   @ 4-byte Reload
	str	r7, [sp, #32]
	str	r6, [sp, #28]
	str	r5, [sp, #24]
	str	r4, [sp, #20]
	add	r4, sp, #52
	str	r4, [sp, #16]
	str	r2, [sp, #12]
	add	r2, sp, #56
	str	r2, [sp, #8]
	str	r1, [sp, #4]
	add	r1, sp, #60
	str	r1, [sp]
	ldr	r1, __arm_cp.7_0
	add	r2, sp, #64
	bl	NMEA_Scan
.Ltmp256:
	.loc	3 391 9 is_stmt 0               @ ../Source/NMEAParser.c:391:9
	cmp	r0, #0
	bne	.LBB7_2
	b	.LBB7_1
.LBB7_1:
	.loc	3 0 9                           @ ../Source/NMEAParser.c:0:9
	add	r1, sp, #80
	movs	r0, #0
.Ltmp257:
	.loc	3 401 9 is_stmt 1               @ ../Source/NMEAParser.c:401:9
	strb	r0, [r1]
	b	.LBB7_5
.Ltmp258:
.LBB7_2:
	.loc	3 0 9 is_stmt 0                 @ ../Source/NMEAParser.c:0:9
	add	r0, sp, #64
.Ltmp259:
	.loc	3 402 20 is_stmt 1              @ ../Source/NMEAParser.c:402:20
	adds	r0, r0, #2
	.loc	3 402 9 is_stmt 0               @ ../Source/NMEAParser.c:402:9
	ldr	r1, __arm_cp.7_1
	bl	strcmp
.Ltmp260:
	.loc	3 402 9                         @ ../Source/NMEAParser.c:402:9
	cmp	r0, #0
	beq	.LBB7_4
	b	.LBB7_3
.LBB7_3:
	.loc	3 0 9                           @ ../Source/NMEAParser.c:0:9
	add	r1, sp, #80
	movs	r0, #0
.Ltmp261:
	.loc	3 403 9 is_stmt 1               @ ../Source/NMEAParser.c:403:9
	strb	r0, [r1]
	b	.LBB7_5
.Ltmp262:
.LBB7_4:
	.loc	3 0 9 is_stmt 0                 @ ../Source/NMEAParser.c:0:9
	add	r0, sp, #60
	.loc	3 405 21 is_stmt 1              @ ../Source/NMEAParser.c:405:21
	ldrb	r0, [r0]
	.loc	3 405 30 is_stmt 0              @ ../Source/NMEAParser.c:405:30
	subs	r0, #65
	rsbs	r1, r0, #0
	adcs	r0, r1
	.loc	3 405 5                         @ ../Source/NMEAParser.c:405:5
	ldr	r1, [sp, #76]
	.loc	3 405 18                        @ ../Source/NMEAParser.c:405:18
	strb	r0, [r1, #4]
	add	r1, sp, #80
	movs	r0, #1
	.loc	3 410 5 is_stmt 1               @ ../Source/NMEAParser.c:410:5
	strb	r0, [r1]
	b	.LBB7_5
.LBB7_5:
	.loc	3 0 5 is_stmt 0                 @ ../Source/NMEAParser.c:0:5
	add	r0, sp, #80
	.loc	3 411 1 is_stmt 1               @ ../Source/NMEAParser.c:411:1
	ldrb	r0, [r0]
	add	sp, #84
	pop	{r4, r5, r6, r7, pc}
.Ltmp263:
	.p2align	2
@ %bb.6:
	.loc	3 0 1 is_stmt 0                 @ ../Source/NMEAParser.c:0:1
__arm_cp.7_0:
	.long	.L.str.11
.Lcpi_end14:
	.size	__arm_cp.7_0, .Lcpi_end14-__arm_cp.7_0
__arm_cp.7_1:
	.long	.L.str.3
.Lcpi_end15:
	.size	__arm_cp.7_1, .Lcpi_end15-__arm_cp.7_1
.Lfunc_end7:
	.size	NMEA_Parse_RMC, .Lfunc_end7-NMEA_Parse_RMC
	.cfi_endproc
	.cantunwind
	.fnend
                                        @ -- End function
	.section	.text.NMEA_Parse_GGA,"ax",%progbits
	.hidden	NMEA_Parse_GGA                  @ -- Begin function NMEA_Parse_GGA
	.globl	NMEA_Parse_GGA
	.p2align	2
	.type	NMEA_Parse_GGA,%function
	.code	16                              @ @NMEA_Parse_GGA
	.thumb_func
NMEA_Parse_GGA:
.Lfunc_begin8:
	.loc	3 414 0 is_stmt 1               @ ../Source/NMEAParser.c:414:0
	.fnstart
	.cfi_startproc
@ %bb.0:
	.save	{r4, r5, r6, r7, lr}
	push	{r4, r5, r6, r7, lr}
	.cfi_def_cfa_offset 20
	.cfi_offset lr, -4
	.cfi_offset r7, -8
	.cfi_offset r6, -12
	.cfi_offset r5, -16
	.cfi_offset r4, -20
	.pad	#92
	sub	sp, #92
	.cfi_def_cfa_offset 112
	str	r0, [sp, #84]
	str	r1, [sp, #80]
.Ltmp264:
	.loc	3 420 20 prologue_end           @ ../Source/NMEAParser.c:420:20
	ldr	r0, [sp, #80]
	.loc	3 422 14                        @ ../Source/NMEAParser.c:422:14
	str	r0, [sp, #56]                   @ 4-byte Spill
	ldr	r0, [sp, #84]
	.loc	3 423 21                        @ ../Source/NMEAParser.c:423:21
	str	r0, [sp, #60]                   @ 4-byte Spill
	adds	r1, r0, #4
	.loc	3 424 21                        @ ../Source/NMEAParser.c:424:21
	mov	r2, r0
	adds	r2, #16
	.loc	3 425 21                        @ ../Source/NMEAParser.c:425:21
	mov	r4, r0
	adds	r4, #28
	.loc	3 426 21                        @ ../Source/NMEAParser.c:426:21
	mov	r5, r0
	adds	r5, #32
	.loc	3 427 21                        @ ../Source/NMEAParser.c:427:21
	mov	r6, r0
	adds	r6, #36
	.loc	3 428 21                        @ ../Source/NMEAParser.c:428:21
	mov	r7, r0
	adds	r7, #44
	.loc	3 428 39 is_stmt 0              @ ../Source/NMEAParser.c:428:39
	mov	r3, r0
	adds	r3, #52
	.loc	3 429 21 is_stmt 1              @ ../Source/NMEAParser.c:429:21
	adds	r0, #56
	.loc	3 429 37 is_stmt 0              @ ../Source/NMEAParser.c:429:37
	str	r0, [sp, #52]                   @ 4-byte Spill
	ldr	r0, [sp, #60]                   @ 4-byte Reload
	adds	r0, #64
	.loc	3 430 21 is_stmt 1              @ ../Source/NMEAParser.c:430:21
	str	r0, [sp, #48]                   @ 4-byte Spill
	ldr	r0, [sp, #60]                   @ 4-byte Reload
	adds	r0, #68
	.loc	3 420 10                        @ ../Source/NMEAParser.c:420:10
	str	r0, [sp, #44]
	ldr	r0, [sp, #48]                   @ 4-byte Reload
	str	r0, [sp, #40]
	ldr	r0, [sp, #52]                   @ 4-byte Reload
	str	r0, [sp, #36]
	ldr	r0, [sp, #56]                   @ 4-byte Reload
	str	r3, [sp, #32]
	ldr	r3, [sp, #60]                   @ 4-byte Reload
	str	r7, [sp, #28]
	str	r6, [sp, #24]
	str	r5, [sp, #20]
	str	r4, [sp, #16]
	add	r4, sp, #64
	str	r4, [sp, #12]
	str	r2, [sp, #8]
	add	r2, sp, #68
	str	r2, [sp, #4]
	str	r1, [sp]
	ldr	r1, __arm_cp.8_0
	add	r2, sp, #72
	bl	NMEA_Scan
.Ltmp265:
	.loc	3 420 9 is_stmt 0               @ ../Source/NMEAParser.c:420:9
	cmp	r0, #0
	bne	.LBB8_2
	b	.LBB8_1
.LBB8_1:
	.loc	3 0 9                           @ ../Source/NMEAParser.c:0:9
	add	r1, sp, #88
	movs	r0, #0
.Ltmp266:
	.loc	3 431 9 is_stmt 1               @ ../Source/NMEAParser.c:431:9
	strb	r0, [r1]
	b	.LBB8_5
.Ltmp267:
.LBB8_2:
	.loc	3 0 9 is_stmt 0                 @ ../Source/NMEAParser.c:0:9
	add	r0, sp, #72
.Ltmp268:
	.loc	3 432 20 is_stmt 1              @ ../Source/NMEAParser.c:432:20
	adds	r0, r0, #2
	.loc	3 432 9 is_stmt 0               @ ../Source/NMEAParser.c:432:9
	ldr	r1, __arm_cp.8_1
	bl	strcmp
.Ltmp269:
	.loc	3 432 9                         @ ../Source/NMEAParser.c:432:9
	cmp	r0, #0
	beq	.LBB8_4
	b	.LBB8_3
.LBB8_3:
	.loc	3 0 9                           @ ../Source/NMEAParser.c:0:9
	add	r1, sp, #88
	movs	r0, #0
.Ltmp270:
	.loc	3 433 9 is_stmt 1               @ ../Source/NMEAParser.c:433:9
	strb	r0, [r1]
	b	.LBB8_5
.Ltmp271:
.LBB8_4:
	.loc	3 437 18                        @ ../Source/NMEAParser.c:437:18
	ldr	r0, [sp, #68]
	.loc	3 437 4 is_stmt 0               @ ../Source/NMEAParser.c:437:4
	ldr	r1, [sp, #84]
	.loc	3 437 17                        @ ../Source/NMEAParser.c:437:17
	strb	r0, [r1, #12]
	.loc	3 438 18 is_stmt 1              @ ../Source/NMEAParser.c:438:18
	ldr	r0, [sp, #64]
	.loc	3 438 4 is_stmt 0               @ ../Source/NMEAParser.c:438:4
	ldr	r1, [sp, #84]
	.loc	3 438 17                        @ ../Source/NMEAParser.c:438:17
	strb	r0, [r1, #24]
	add	r1, sp, #88
	movs	r0, #1
	.loc	3 439 5 is_stmt 1               @ ../Source/NMEAParser.c:439:5
	strb	r0, [r1]
	b	.LBB8_5
.LBB8_5:
	.loc	3 0 5 is_stmt 0                 @ ../Source/NMEAParser.c:0:5
	add	r0, sp, #88
	.loc	3 440 1 is_stmt 1               @ ../Source/NMEAParser.c:440:1
	ldrb	r0, [r0]
	add	sp, #92
	pop	{r4, r5, r6, r7, pc}
.Ltmp272:
	.p2align	2
@ %bb.6:
	.loc	3 0 1 is_stmt 0                 @ ../Source/NMEAParser.c:0:1
__arm_cp.8_0:
	.long	.L.str.12
.Lcpi_end16:
	.size	__arm_cp.8_0, .Lcpi_end16-__arm_cp.8_0
__arm_cp.8_1:
	.long	.L.str.4
.Lcpi_end17:
	.size	__arm_cp.8_1, .Lcpi_end17-__arm_cp.8_1
.Lfunc_end8:
	.size	NMEA_Parse_GGA, .Lfunc_end8-NMEA_Parse_GGA
	.cfi_endproc
	.cantunwind
	.fnend
                                        @ -- End function
	.section	.text.NMEA_Parse_GSA,"ax",%progbits
	.hidden	NMEA_Parse_GSA                  @ -- Begin function NMEA_Parse_GSA
	.globl	NMEA_Parse_GSA
	.p2align	2
	.type	NMEA_Parse_GSA,%function
	.code	16                              @ @NMEA_Parse_GSA
	.thumb_func
NMEA_Parse_GSA:
.Lfunc_begin9:
	.loc	3 443 0 is_stmt 1               @ ../Source/NMEAParser.c:443:0
	.fnstart
	.cfi_startproc
@ %bb.0:
	.save	{r4, r5, r6, r7, lr}
	push	{r4, r5, r6, r7, lr}
	.cfi_def_cfa_offset 20
	.cfi_offset lr, -4
	.cfi_offset r7, -8
	.cfi_offset r6, -12
	.cfi_offset r5, -16
	.cfi_offset r4, -20
	.pad	#124
	sub	sp, #124
	.cfi_def_cfa_offset 144
	str	r0, [sp, #116]
	str	r1, [sp, #112]
.Ltmp273:
	.loc	3 447 20 prologue_end           @ ../Source/NMEAParser.c:447:20
	ldr	r0, [sp, #112]
	.loc	3 449 14                        @ ../Source/NMEAParser.c:449:14
	str	r0, [sp, #96]                   @ 4-byte Spill
	ldr	r0, [sp, #116]
	.loc	3 450 21                        @ ../Source/NMEAParser.c:450:21
	str	r0, [sp, #100]                  @ 4-byte Spill
	adds	r1, r0, #4
	.loc	3 451 21                        @ ../Source/NMEAParser.c:451:21
	mov	r2, r0
	adds	r2, #8
	.loc	3 452 14                        @ ../Source/NMEAParser.c:452:14
	mov	r4, r0
	adds	r4, #12
	.loc	3 453 14                        @ ../Source/NMEAParser.c:453:14
	mov	r5, r0
	adds	r5, #16
	.loc	3 454 14                        @ ../Source/NMEAParser.c:454:14
	mov	r6, r0
	adds	r6, #20
	.loc	3 455 14                        @ ../Source/NMEAParser.c:455:14
	mov	r7, r0
	adds	r7, #24
	.loc	3 456 14                        @ ../Source/NMEAParser.c:456:14
	mov	r3, r0
	adds	r3, #28
	.loc	3 457 14                        @ ../Source/NMEAParser.c:457:14
	adds	r0, #32
	.loc	3 458 14                        @ ../Source/NMEAParser.c:458:14
	str	r0, [sp, #92]                   @ 4-byte Spill
	ldr	r0, [sp, #100]                  @ 4-byte Reload
	adds	r0, #36
	.loc	3 459 14                        @ ../Source/NMEAParser.c:459:14
	str	r0, [sp, #88]                   @ 4-byte Spill
	ldr	r0, [sp, #100]                  @ 4-byte Reload
	adds	r0, #40
	.loc	3 460 14                        @ ../Source/NMEAParser.c:460:14
	str	r0, [sp, #84]                   @ 4-byte Spill
	ldr	r0, [sp, #100]                  @ 4-byte Reload
	adds	r0, #44
	.loc	3 461 14                        @ ../Source/NMEAParser.c:461:14
	str	r0, [sp, #80]                   @ 4-byte Spill
	ldr	r0, [sp, #100]                  @ 4-byte Reload
	adds	r0, #48
	.loc	3 462 14                        @ ../Source/NMEAParser.c:462:14
	str	r0, [sp, #76]                   @ 4-byte Spill
	ldr	r0, [sp, #100]                  @ 4-byte Reload
	adds	r0, #52
	.loc	3 463 21                        @ ../Source/NMEAParser.c:463:21
	str	r0, [sp, #72]                   @ 4-byte Spill
	ldr	r0, [sp, #100]                  @ 4-byte Reload
	adds	r0, #56
	.loc	3 464 21                        @ ../Source/NMEAParser.c:464:21
	str	r0, [sp, #68]                   @ 4-byte Spill
	ldr	r0, [sp, #100]                  @ 4-byte Reload
	adds	r0, #64
	.loc	3 465 21                        @ ../Source/NMEAParser.c:465:21
	str	r0, [sp, #64]                   @ 4-byte Spill
	ldr	r0, [sp, #100]                  @ 4-byte Reload
	adds	r0, #72
	.loc	3 447 10                        @ ../Source/NMEAParser.c:447:10
	str	r0, [sp, #60]
	ldr	r0, [sp, #64]                   @ 4-byte Reload
	str	r0, [sp, #56]
	ldr	r0, [sp, #68]                   @ 4-byte Reload
	str	r0, [sp, #52]
	ldr	r0, [sp, #72]                   @ 4-byte Reload
	str	r0, [sp, #48]
	ldr	r0, [sp, #76]                   @ 4-byte Reload
	str	r0, [sp, #44]
	ldr	r0, [sp, #80]                   @ 4-byte Reload
	str	r0, [sp, #40]
	ldr	r0, [sp, #84]                   @ 4-byte Reload
	str	r0, [sp, #36]
	ldr	r0, [sp, #88]                   @ 4-byte Reload
	str	r0, [sp, #32]
	ldr	r0, [sp, #92]                   @ 4-byte Reload
	str	r0, [sp, #28]
	ldr	r0, [sp, #96]                   @ 4-byte Reload
	str	r3, [sp, #24]
	ldr	r3, [sp, #100]                  @ 4-byte Reload
	str	r7, [sp, #20]
	str	r6, [sp, #16]
	str	r5, [sp, #12]
	str	r4, [sp, #8]
	str	r2, [sp, #4]
	str	r1, [sp]
	ldr	r1, __arm_cp.9_0
	add	r2, sp, #104
	bl	NMEA_Scan
.Ltmp274:
	.loc	3 447 9 is_stmt 0               @ ../Source/NMEAParser.c:447:9
	cmp	r0, #0
	bne	.LBB9_2
	b	.LBB9_1
.LBB9_1:
	.loc	3 0 9                           @ ../Source/NMEAParser.c:0:9
	add	r1, sp, #120
	movs	r0, #0
.Ltmp275:
	.loc	3 466 9 is_stmt 1               @ ../Source/NMEAParser.c:466:9
	strb	r0, [r1]
	b	.LBB9_5
.Ltmp276:
.LBB9_2:
	.loc	3 0 9 is_stmt 0                 @ ../Source/NMEAParser.c:0:9
	add	r0, sp, #104
.Ltmp277:
	.loc	3 467 20 is_stmt 1              @ ../Source/NMEAParser.c:467:20
	adds	r0, r0, #2
	.loc	3 467 9 is_stmt 0               @ ../Source/NMEAParser.c:467:9
	ldr	r1, __arm_cp.9_1
	bl	strcmp
.Ltmp278:
	.loc	3 467 9                         @ ../Source/NMEAParser.c:467:9
	cmp	r0, #0
	beq	.LBB9_4
	b	.LBB9_3
.LBB9_3:
	.loc	3 0 9                           @ ../Source/NMEAParser.c:0:9
	add	r1, sp, #120
	movs	r0, #0
.Ltmp279:
	.loc	3 468 9 is_stmt 1               @ ../Source/NMEAParser.c:468:9
	strb	r0, [r1]
	b	.LBB9_5
.Ltmp280:
.LBB9_4:
	.loc	3 0 9 is_stmt 0                 @ ../Source/NMEAParser.c:0:9
	add	r1, sp, #120
	movs	r0, #1
	.loc	3 470 5 is_stmt 1               @ ../Source/NMEAParser.c:470:5
	strb	r0, [r1]
	b	.LBB9_5
.LBB9_5:
	.loc	3 0 5 is_stmt 0                 @ ../Source/NMEAParser.c:0:5
	add	r0, sp, #120
	.loc	3 471 1 is_stmt 1               @ ../Source/NMEAParser.c:471:1
	ldrb	r0, [r0]
	add	sp, #124
	pop	{r4, r5, r6, r7, pc}
.Ltmp281:
	.p2align	2
@ %bb.6:
	.loc	3 0 1 is_stmt 0                 @ ../Source/NMEAParser.c:0:1
__arm_cp.9_0:
	.long	.L.str.13
.Lcpi_end18:
	.size	__arm_cp.9_0, .Lcpi_end18-__arm_cp.9_0
__arm_cp.9_1:
	.long	.L.str.5
.Lcpi_end19:
	.size	__arm_cp.9_1, .Lcpi_end19-__arm_cp.9_1
.Lfunc_end9:
	.size	NMEA_Parse_GSA, .Lfunc_end9-NMEA_Parse_GSA
	.cfi_endproc
	.cantunwind
	.fnend
                                        @ -- End function
	.section	.text.NMEA_Parse_GLL,"ax",%progbits
	.hidden	NMEA_Parse_GLL                  @ -- Begin function NMEA_Parse_GLL
	.globl	NMEA_Parse_GLL
	.p2align	2
	.type	NMEA_Parse_GLL,%function
	.code	16                              @ @NMEA_Parse_GLL
	.thumb_func
NMEA_Parse_GLL:
.Lfunc_begin10:
	.loc	3 474 0 is_stmt 1               @ ../Source/NMEAParser.c:474:0
	.fnstart
	.cfi_startproc
@ %bb.0:
	.save	{r4, r5, r7, lr}
	push	{r4, r5, r7, lr}
	.cfi_def_cfa_offset 16
	.cfi_offset lr, -4
	.cfi_offset r7, -8
	.cfi_offset r5, -12
	.cfi_offset r4, -16
	.pad	#56
	sub	sp, #56
	.cfi_def_cfa_offset 72
	str	r0, [sp, #48]
	str	r1, [sp, #44]
.Ltmp282:
	.loc	3 480 20 prologue_end           @ ../Source/NMEAParser.c:480:20
	ldr	r0, [sp, #44]
	.loc	3 482 14                        @ ../Source/NMEAParser.c:482:14
	ldr	r3, [sp, #48]
	.loc	3 483 21                        @ ../Source/NMEAParser.c:483:21
	mov	r1, r3
	adds	r1, #8
	.loc	3 484 21                        @ ../Source/NMEAParser.c:484:21
	mov	r2, r3
	adds	r2, #16
	.loc	3 485 21                        @ ../Source/NMEAParser.c:485:21
	mov	r4, r3
	adds	r4, #20
	.loc	3 486 21                        @ ../Source/NMEAParser.c:486:21
	mov	r5, r3
	adds	r5, #21
	.loc	3 480 10                        @ ../Source/NMEAParser.c:480:10
	str	r5, [sp, #20]
	str	r4, [sp, #16]
	str	r2, [sp, #12]
	add	r2, sp, #28
	str	r2, [sp, #8]
	str	r1, [sp, #4]
	add	r1, sp, #32
	str	r1, [sp]
	ldr	r1, __arm_cp.10_0
	add	r2, sp, #36
	bl	NMEA_Scan
.Ltmp283:
	.loc	3 480 9 is_stmt 0               @ ../Source/NMEAParser.c:480:9
	cmp	r0, #0
	bne	.LBB10_2
	b	.LBB10_1
.LBB10_1:
	.loc	3 0 9                           @ ../Source/NMEAParser.c:0:9
	add	r1, sp, #52
	movs	r0, #0
.Ltmp284:
	.loc	3 487 9 is_stmt 1               @ ../Source/NMEAParser.c:487:9
	strb	r0, [r1]
	b	.LBB10_5
.Ltmp285:
.LBB10_2:
	.loc	3 0 9 is_stmt 0                 @ ../Source/NMEAParser.c:0:9
	add	r0, sp, #36
.Ltmp286:
	.loc	3 488 20 is_stmt 1              @ ../Source/NMEAParser.c:488:20
	adds	r0, r0, #2
	.loc	3 488 9 is_stmt 0               @ ../Source/NMEAParser.c:488:9
	ldr	r1, __arm_cp.10_1
	bl	strcmp
.Ltmp287:
	.loc	3 488 9                         @ ../Source/NMEAParser.c:488:9
	cmp	r0, #0
	beq	.LBB10_4
	b	.LBB10_3
.LBB10_3:
	.loc	3 0 9                           @ ../Source/NMEAParser.c:0:9
	add	r1, sp, #52
	movs	r0, #0
.Ltmp288:
	.loc	3 489 9 is_stmt 1               @ ../Source/NMEAParser.c:489:9
	strb	r0, [r1]
	b	.LBB10_5
.Ltmp289:
.LBB10_4:
	.loc	3 491 30                        @ ../Source/NMEAParser.c:491:30
	ldr	r0, [sp, #32]
	.loc	3 491 5 is_stmt 0               @ ../Source/NMEAParser.c:491:5
	ldr	r1, [sp, #48]
	.loc	3 491 27                        @ ../Source/NMEAParser.c:491:27
	ldr	r2, [r1]
	muls	r0, r2, r0
	str	r0, [r1]
	.loc	3 492 31 is_stmt 1              @ ../Source/NMEAParser.c:492:31
	ldr	r0, [sp, #28]
	.loc	3 492 5 is_stmt 0               @ ../Source/NMEAParser.c:492:5
	ldr	r1, [sp, #48]
	.loc	3 492 28                        @ ../Source/NMEAParser.c:492:28
	ldr	r2, [r1, #8]
	muls	r0, r2, r0
	str	r0, [r1, #8]
	add	r1, sp, #52
	movs	r0, #1
	.loc	3 494 5 is_stmt 1               @ ../Source/NMEAParser.c:494:5
	strb	r0, [r1]
	b	.LBB10_5
.LBB10_5:
	.loc	3 0 5 is_stmt 0                 @ ../Source/NMEAParser.c:0:5
	add	r0, sp, #52
	.loc	3 495 1 is_stmt 1               @ ../Source/NMEAParser.c:495:1
	ldrb	r0, [r0]
	add	sp, #56
	pop	{r4, r5, r7, pc}
.Ltmp290:
	.p2align	2
@ %bb.6:
	.loc	3 0 1 is_stmt 0                 @ ../Source/NMEAParser.c:0:1
__arm_cp.10_0:
	.long	.L.str.14
.Lcpi_end20:
	.size	__arm_cp.10_0, .Lcpi_end20-__arm_cp.10_0
__arm_cp.10_1:
	.long	.L.str.6
.Lcpi_end21:
	.size	__arm_cp.10_1, .Lcpi_end21-__arm_cp.10_1
.Lfunc_end10:
	.size	NMEA_Parse_GLL, .Lfunc_end10-NMEA_Parse_GLL
	.cfi_endproc
	.cantunwind
	.fnend
                                        @ -- End function
	.section	.text.NMEA_Parse_GST,"ax",%progbits
	.hidden	NMEA_Parse_GST                  @ -- Begin function NMEA_Parse_GST
	.globl	NMEA_Parse_GST
	.p2align	2
	.type	NMEA_Parse_GST,%function
	.code	16                              @ @NMEA_Parse_GST
	.thumb_func
NMEA_Parse_GST:
.Lfunc_begin11:
	.loc	3 498 0 is_stmt 1               @ ../Source/NMEAParser.c:498:0
	.fnstart
	.cfi_startproc
@ %bb.0:
	.save	{r4, r5, r6, r7, lr}
	push	{r4, r5, r6, r7, lr}
	.cfi_def_cfa_offset 20
	.cfi_offset lr, -4
	.cfi_offset r7, -8
	.cfi_offset r6, -12
	.cfi_offset r5, -16
	.cfi_offset r4, -20
	.pad	#52
	sub	sp, #52
	.cfi_def_cfa_offset 72
	str	r0, [sp, #44]
	str	r1, [sp, #40]
.Ltmp291:
	.loc	3 502 20 prologue_end           @ ../Source/NMEAParser.c:502:20
	ldr	r0, [sp, #40]
	.loc	3 504 14                        @ ../Source/NMEAParser.c:504:14
	ldr	r3, [sp, #44]
	.loc	3 505 21                        @ ../Source/NMEAParser.c:505:21
	str	r3, [sp, #28]                   @ 4-byte Spill
	adds	r1, r3, #4
	.loc	3 506 21                        @ ../Source/NMEAParser.c:506:21
	mov	r2, r3
	adds	r2, #12
	.loc	3 507 21                        @ ../Source/NMEAParser.c:507:21
	mov	r4, r3
	adds	r4, #20
	.loc	3 508 21                        @ ../Source/NMEAParser.c:508:21
	mov	r5, r3
	adds	r5, #28
	.loc	3 509 21                        @ ../Source/NMEAParser.c:509:21
	mov	r6, r3
	adds	r6, #36
	.loc	3 510 21                        @ ../Source/NMEAParser.c:510:21
	mov	r7, r3
	adds	r7, #44
	.loc	3 511 21                        @ ../Source/NMEAParser.c:511:21
	adds	r3, #52
	.loc	3 502 10                        @ ../Source/NMEAParser.c:502:10
	str	r3, [sp, #24]
	ldr	r3, [sp, #28]                   @ 4-byte Reload
	str	r7, [sp, #20]
	str	r6, [sp, #16]
	str	r5, [sp, #12]
	str	r4, [sp, #8]
	str	r2, [sp, #4]
	str	r1, [sp]
	ldr	r1, __arm_cp.11_0
	add	r2, sp, #32
	bl	NMEA_Scan
.Ltmp292:
	.loc	3 502 9 is_stmt 0               @ ../Source/NMEAParser.c:502:9
	cmp	r0, #0
	bne	.LBB11_2
	b	.LBB11_1
.LBB11_1:
	.loc	3 0 9                           @ ../Source/NMEAParser.c:0:9
	add	r1, sp, #48
	movs	r0, #0
.Ltmp293:
	.loc	3 512 9 is_stmt 1               @ ../Source/NMEAParser.c:512:9
	strb	r0, [r1]
	b	.LBB11_5
.Ltmp294:
.LBB11_2:
	.loc	3 0 9 is_stmt 0                 @ ../Source/NMEAParser.c:0:9
	add	r0, sp, #32
.Ltmp295:
	.loc	3 513 20 is_stmt 1              @ ../Source/NMEAParser.c:513:20
	adds	r0, r0, #2
	.loc	3 513 9 is_stmt 0               @ ../Source/NMEAParser.c:513:9
	ldr	r1, __arm_cp.11_1
	bl	strcmp
.Ltmp296:
	.loc	3 513 9                         @ ../Source/NMEAParser.c:513:9
	cmp	r0, #0
	beq	.LBB11_4
	b	.LBB11_3
.LBB11_3:
	.loc	3 0 9                           @ ../Source/NMEAParser.c:0:9
	add	r1, sp, #48
	movs	r0, #0
.Ltmp297:
	.loc	3 514 9 is_stmt 1               @ ../Source/NMEAParser.c:514:9
	strb	r0, [r1]
	b	.LBB11_5
.Ltmp298:
.LBB11_4:
	.loc	3 0 9 is_stmt 0                 @ ../Source/NMEAParser.c:0:9
	add	r1, sp, #48
	movs	r0, #1
	.loc	3 516 5 is_stmt 1               @ ../Source/NMEAParser.c:516:5
	strb	r0, [r1]
	b	.LBB11_5
.LBB11_5:
	.loc	3 0 5 is_stmt 0                 @ ../Source/NMEAParser.c:0:5
	add	r0, sp, #48
	.loc	3 517 1 is_stmt 1               @ ../Source/NMEAParser.c:517:1
	ldrb	r0, [r0]
	add	sp, #52
	pop	{r4, r5, r6, r7, pc}
.Ltmp299:
	.p2align	2
@ %bb.6:
	.loc	3 0 1 is_stmt 0                 @ ../Source/NMEAParser.c:0:1
__arm_cp.11_0:
	.long	.L.str.15
.Lcpi_end22:
	.size	__arm_cp.11_0, .Lcpi_end22-__arm_cp.11_0
__arm_cp.11_1:
	.long	.L.str.7
.Lcpi_end23:
	.size	__arm_cp.11_1, .Lcpi_end23-__arm_cp.11_1
.Lfunc_end11:
	.size	NMEA_Parse_GST, .Lfunc_end11-NMEA_Parse_GST
	.cfi_endproc
	.cantunwind
	.fnend
                                        @ -- End function
	.section	.text.NMEA_Parse_GSV,"ax",%progbits
	.hidden	NMEA_Parse_GSV                  @ -- Begin function NMEA_Parse_GSV
	.globl	NMEA_Parse_GSV
	.p2align	2
	.type	NMEA_Parse_GSV,%function
	.code	16                              @ @NMEA_Parse_GSV
	.thumb_func
NMEA_Parse_GSV:
.Lfunc_begin12:
	.loc	3 520 0 is_stmt 1               @ ../Source/NMEAParser.c:520:0
	.fnstart
	.cfi_startproc
@ %bb.0:
	.save	{r4, r5, r6, r7, lr}
	push	{r4, r5, r6, r7, lr}
	.cfi_def_cfa_offset 20
	.cfi_offset lr, -4
	.cfi_offset r7, -8
	.cfi_offset r6, -12
	.cfi_offset r5, -16
	.cfi_offset r4, -20
	.pad	#140
	sub	sp, #140
	.cfi_def_cfa_offset 160
	str	r0, [sp, #132]
	str	r1, [sp, #128]
.Ltmp300:
	.loc	3 528 20 prologue_end           @ ../Source/NMEAParser.c:528:20
	ldr	r0, [sp, #128]
	.loc	3 530 14                        @ ../Source/NMEAParser.c:530:14
	str	r0, [sp, #112]                  @ 4-byte Spill
	ldr	r0, [sp, #132]
	.loc	3 531 21                        @ ../Source/NMEAParser.c:531:21
	str	r0, [sp, #116]                  @ 4-byte Spill
	adds	r1, r0, #4
	.loc	3 532 21                        @ ../Source/NMEAParser.c:532:21
	mov	r2, r0
	adds	r2, #8
	.loc	3 533 21                        @ ../Source/NMEAParser.c:533:21
	mov	r4, r0
	adds	r4, #12
	.loc	3 534 29                        @ ../Source/NMEAParser.c:534:29
	mov	r5, r0
	adds	r5, #16
	.loc	3 535 29                        @ ../Source/NMEAParser.c:535:29
	mov	r6, r0
	adds	r6, #20
	.loc	3 536 29                        @ ../Source/NMEAParser.c:536:29
	mov	r7, r0
	adds	r7, #24
	.loc	3 537 14                        @ ../Source/NMEAParser.c:537:14
	mov	r3, r0
	adds	r3, #28
	.loc	3 538 29                        @ ../Source/NMEAParser.c:538:29
	adds	r0, #32
	.loc	3 539 29                        @ ../Source/NMEAParser.c:539:29
	str	r0, [sp, #108]                  @ 4-byte Spill
	ldr	r0, [sp, #116]                  @ 4-byte Reload
	adds	r0, #36
	.loc	3 540 29                        @ ../Source/NMEAParser.c:540:29
	str	r0, [sp, #104]                  @ 4-byte Spill
	ldr	r0, [sp, #116]                  @ 4-byte Reload
	adds	r0, #40
	.loc	3 541 14                        @ ../Source/NMEAParser.c:541:14
	str	r0, [sp, #100]                  @ 4-byte Spill
	ldr	r0, [sp, #116]                  @ 4-byte Reload
	adds	r0, #44
	.loc	3 542 29                        @ ../Source/NMEAParser.c:542:29
	str	r0, [sp, #96]                   @ 4-byte Spill
	ldr	r0, [sp, #116]                  @ 4-byte Reload
	adds	r0, #48
	.loc	3 543 29                        @ ../Source/NMEAParser.c:543:29
	str	r0, [sp, #92]                   @ 4-byte Spill
	ldr	r0, [sp, #116]                  @ 4-byte Reload
	adds	r0, #52
	.loc	3 544 29                        @ ../Source/NMEAParser.c:544:29
	str	r0, [sp, #88]                   @ 4-byte Spill
	ldr	r0, [sp, #116]                  @ 4-byte Reload
	adds	r0, #56
	.loc	3 545 14                        @ ../Source/NMEAParser.c:545:14
	str	r0, [sp, #84]                   @ 4-byte Spill
	ldr	r0, [sp, #116]                  @ 4-byte Reload
	adds	r0, #60
	.loc	3 546 29                        @ ../Source/NMEAParser.c:546:29
	str	r0, [sp, #80]                   @ 4-byte Spill
	ldr	r0, [sp, #116]                  @ 4-byte Reload
	adds	r0, #64
	.loc	3 547 29                        @ ../Source/NMEAParser.c:547:29
	str	r0, [sp, #76]                   @ 4-byte Spill
	ldr	r0, [sp, #116]                  @ 4-byte Reload
	adds	r0, #68
	.loc	3 548 29                        @ ../Source/NMEAParser.c:548:29
	str	r0, [sp, #72]                   @ 4-byte Spill
	ldr	r0, [sp, #116]                  @ 4-byte Reload
	adds	r0, #72
	.loc	3 528 10                        @ ../Source/NMEAParser.c:528:10
	str	r0, [sp, #68]
	ldr	r0, [sp, #72]                   @ 4-byte Reload
	str	r0, [sp, #64]
	ldr	r0, [sp, #76]                   @ 4-byte Reload
	str	r0, [sp, #60]
	ldr	r0, [sp, #80]                   @ 4-byte Reload
	str	r0, [sp, #56]
	ldr	r0, [sp, #84]                   @ 4-byte Reload
	str	r0, [sp, #52]
	ldr	r0, [sp, #88]                   @ 4-byte Reload
	str	r0, [sp, #48]
	ldr	r0, [sp, #92]                   @ 4-byte Reload
	str	r0, [sp, #44]
	ldr	r0, [sp, #96]                   @ 4-byte Reload
	str	r0, [sp, #40]
	ldr	r0, [sp, #100]                  @ 4-byte Reload
	str	r0, [sp, #36]
	ldr	r0, [sp, #104]                  @ 4-byte Reload
	str	r0, [sp, #32]
	ldr	r0, [sp, #108]                  @ 4-byte Reload
	str	r0, [sp, #28]
	ldr	r0, [sp, #112]                  @ 4-byte Reload
	str	r3, [sp, #24]
	ldr	r3, [sp, #116]                  @ 4-byte Reload
	str	r7, [sp, #20]
	str	r6, [sp, #16]
	str	r5, [sp, #12]
	str	r4, [sp, #8]
	str	r2, [sp, #4]
	str	r1, [sp]
	ldr	r1, __arm_cp.12_0
	add	r2, sp, #120
	bl	NMEA_Scan
.Ltmp301:
	.loc	3 528 9 is_stmt 0               @ ../Source/NMEAParser.c:528:9
	cmp	r0, #0
	bne	.LBB12_2
	b	.LBB12_1
.LBB12_1:
	.loc	3 0 9                           @ ../Source/NMEAParser.c:0:9
	add	r1, sp, #136
	movs	r0, #0
.Ltmp302:
	.loc	3 550 9 is_stmt 1               @ ../Source/NMEAParser.c:550:9
	strb	r0, [r1]
	b	.LBB12_5
.Ltmp303:
.LBB12_2:
	.loc	3 0 9 is_stmt 0                 @ ../Source/NMEAParser.c:0:9
	add	r0, sp, #120
.Ltmp304:
	.loc	3 552 20 is_stmt 1              @ ../Source/NMEAParser.c:552:20
	adds	r0, r0, #2
	.loc	3 552 9 is_stmt 0               @ ../Source/NMEAParser.c:552:9
	ldr	r1, __arm_cp.12_1
	bl	strcmp
.Ltmp305:
	.loc	3 552 9                         @ ../Source/NMEAParser.c:552:9
	cmp	r0, #0
	beq	.LBB12_4
	b	.LBB12_3
.LBB12_3:
	.loc	3 0 9                           @ ../Source/NMEAParser.c:0:9
	add	r1, sp, #136
	movs	r0, #0
.Ltmp306:
	.loc	3 553 9 is_stmt 1               @ ../Source/NMEAParser.c:553:9
	strb	r0, [r1]
	b	.LBB12_5
.Ltmp307:
.LBB12_4:
	.loc	3 0 9 is_stmt 0                 @ ../Source/NMEAParser.c:0:9
	add	r1, sp, #136
	movs	r0, #1
	.loc	3 555 5 is_stmt 1               @ ../Source/NMEAParser.c:555:5
	strb	r0, [r1]
	b	.LBB12_5
.LBB12_5:
	.loc	3 0 5 is_stmt 0                 @ ../Source/NMEAParser.c:0:5
	add	r0, sp, #136
	.loc	3 556 1 is_stmt 1               @ ../Source/NMEAParser.c:556:1
	ldrb	r0, [r0]
	add	sp, #140
	pop	{r4, r5, r6, r7, pc}
.Ltmp308:
	.p2align	2
@ %bb.6:
	.loc	3 0 1 is_stmt 0                 @ ../Source/NMEAParser.c:0:1
__arm_cp.12_0:
	.long	.L.str.16
.Lcpi_end24:
	.size	__arm_cp.12_0, .Lcpi_end24-__arm_cp.12_0
__arm_cp.12_1:
	.long	.L.str.8
.Lcpi_end25:
	.size	__arm_cp.12_1, .Lcpi_end25-__arm_cp.12_1
.Lfunc_end12:
	.size	NMEA_Parse_GSV, .Lfunc_end12-NMEA_Parse_GSV
	.cfi_endproc
	.cantunwind
	.fnend
                                        @ -- End function
	.section	.text.NMEA_Parse_VTG,"ax",%progbits
	.hidden	NMEA_Parse_VTG                  @ -- Begin function NMEA_Parse_VTG
	.globl	NMEA_Parse_VTG
	.p2align	2
	.type	NMEA_Parse_VTG,%function
	.code	16                              @ @NMEA_Parse_VTG
	.thumb_func
NMEA_Parse_VTG:
.Lfunc_begin13:
	.loc	3 559 0 is_stmt 1               @ ../Source/NMEAParser.c:559:0
	.fnstart
	.cfi_startproc
@ %bb.0:
	.save	{r4, r5, r7, lr}
	push	{r4, r5, r7, lr}
	.cfi_def_cfa_offset 16
	.cfi_offset lr, -4
	.cfi_offset r7, -8
	.cfi_offset r5, -12
	.cfi_offset r4, -16
	.pad	#72
	sub	sp, #72
	.cfi_def_cfa_offset 88
	str	r0, [sp, #64]
	str	r1, [sp, #60]
.Ltmp309:
	.loc	3 567 20 prologue_end           @ ../Source/NMEAParser.c:567:20
	ldr	r0, [sp, #60]
	.loc	3 569 14                        @ ../Source/NMEAParser.c:569:14
	ldr	r3, [sp, #64]
	.loc	3 571 21                        @ ../Source/NMEAParser.c:571:21
	mov	r1, r3
	adds	r1, #8
	.loc	3 573 21                        @ ../Source/NMEAParser.c:573:21
	mov	r2, r3
	adds	r2, #16
	.loc	3 575 21                        @ ../Source/NMEAParser.c:575:21
	mov	r4, r3
	adds	r4, #24
	add	r5, sp, #32
	.loc	3 567 10                        @ ../Source/NMEAParser.c:567:10
	str	r5, [sp, #28]
	add	r5, sp, #36
	str	r5, [sp, #24]
	str	r4, [sp, #20]
	add	r4, sp, #40
	str	r4, [sp, #16]
	str	r2, [sp, #12]
	add	r2, sp, #44
	str	r2, [sp, #8]
	str	r1, [sp, #4]
	add	r1, sp, #48
	str	r1, [sp]
	ldr	r1, __arm_cp.13_0
	add	r2, sp, #52
	bl	NMEA_Scan
.Ltmp310:
	.loc	3 567 9 is_stmt 0               @ ../Source/NMEAParser.c:567:9
	cmp	r0, #0
	bne	.LBB13_2
	b	.LBB13_1
.LBB13_1:
	.loc	3 0 9                           @ ../Source/NMEAParser.c:0:9
	add	r1, sp, #68
	movs	r0, #0
.Ltmp311:
	.loc	3 578 9 is_stmt 1               @ ../Source/NMEAParser.c:578:9
	strb	r0, [r1]
	b	.LBB13_10
.Ltmp312:
.LBB13_2:
	.loc	3 0 9 is_stmt 0                 @ ../Source/NMEAParser.c:0:9
	add	r0, sp, #52
.Ltmp313:
	.loc	3 579 20 is_stmt 1              @ ../Source/NMEAParser.c:579:20
	adds	r0, r0, #2
	.loc	3 579 9 is_stmt 0               @ ../Source/NMEAParser.c:579:9
	ldr	r1, __arm_cp.13_1
	bl	strcmp
.Ltmp314:
	.loc	3 579 9                         @ ../Source/NMEAParser.c:579:9
	cmp	r0, #0
	beq	.LBB13_4
	b	.LBB13_3
.LBB13_3:
	.loc	3 0 9                           @ ../Source/NMEAParser.c:0:9
	add	r1, sp, #68
	movs	r0, #0
.Ltmp315:
	.loc	3 580 9 is_stmt 1               @ ../Source/NMEAParser.c:580:9
	strb	r0, [r1]
	b	.LBB13_10
.Ltmp316:
.LBB13_4:
	.loc	3 0 9 is_stmt 0                 @ ../Source/NMEAParser.c:0:9
	add	r0, sp, #48
.Ltmp317:
	.loc	3 582 9 is_stmt 1               @ ../Source/NMEAParser.c:582:9
	ldrb	r0, [r0]
	.loc	3 582 23 is_stmt 0              @ ../Source/NMEAParser.c:582:23
	cmp	r0, #84
	bne	.LBB13_8
	b	.LBB13_5
.LBB13_5:
	.loc	3 0 23                          @ ../Source/NMEAParser.c:0:23
	add	r0, sp, #44
	.loc	3 583 9 is_stmt 1               @ ../Source/NMEAParser.c:583:9
	ldrb	r0, [r0]
	.loc	3 583 27 is_stmt 0              @ ../Source/NMEAParser.c:583:27
	cmp	r0, #77
	bne	.LBB13_8
	b	.LBB13_6
.LBB13_6:
	.loc	3 0 27                          @ ../Source/NMEAParser.c:0:27
	add	r0, sp, #40
	.loc	3 584 9 is_stmt 1               @ ../Source/NMEAParser.c:584:9
	ldrb	r0, [r0]
	.loc	3 584 24 is_stmt 0              @ ../Source/NMEAParser.c:584:24
	cmp	r0, #78
	bne	.LBB13_8
	b	.LBB13_7
.LBB13_7:
	.loc	3 0 24                          @ ../Source/NMEAParser.c:0:24
	add	r0, sp, #36
	.loc	3 585 9 is_stmt 1               @ ../Source/NMEAParser.c:585:9
	ldrb	r0, [r0]
.Ltmp318:
	.loc	3 582 9                         @ ../Source/NMEAParser.c:582:9
	cmp	r0, #75
	beq	.LBB13_9
	b	.LBB13_8
.LBB13_8:
	.loc	3 0 9 is_stmt 0                 @ ../Source/NMEAParser.c:0:9
	add	r1, sp, #68
	movs	r0, #0
.Ltmp319:
	.loc	3 586 9 is_stmt 1               @ ../Source/NMEAParser.c:586:9
	strb	r0, [r1]
	b	.LBB13_10
.Ltmp320:
.LBB13_9:
	.loc	3 587 43                        @ ../Source/NMEAParser.c:587:43
	ldr	r0, [sp, #32]
	.loc	3 587 5 is_stmt 0               @ ../Source/NMEAParser.c:587:5
	ldr	r1, [sp, #64]
	movs	r2, #32
	.loc	3 587 21                        @ ../Source/NMEAParser.c:587:21
	strb	r0, [r1, r2]
	add	r1, sp, #68
	movs	r0, #1
	.loc	3 589 5 is_stmt 1               @ ../Source/NMEAParser.c:589:5
	strb	r0, [r1]
	b	.LBB13_10
.LBB13_10:
	.loc	3 0 5 is_stmt 0                 @ ../Source/NMEAParser.c:0:5
	add	r0, sp, #68
	.loc	3 590 1 is_stmt 1               @ ../Source/NMEAParser.c:590:1
	ldrb	r0, [r0]
	add	sp, #72
	pop	{r4, r5, r7, pc}
.Ltmp321:
	.p2align	2
@ %bb.11:
	.loc	3 0 1 is_stmt 0                 @ ../Source/NMEAParser.c:0:1
__arm_cp.13_0:
	.long	.L.str.17
.Lcpi_end26:
	.size	__arm_cp.13_0, .Lcpi_end26-__arm_cp.13_0
__arm_cp.13_1:
	.long	.L.str.9
.Lcpi_end27:
	.size	__arm_cp.13_1, .Lcpi_end27-__arm_cp.13_1
.Lfunc_end13:
	.size	NMEA_Parse_VTG, .Lfunc_end13-NMEA_Parse_VTG
	.cfi_endproc
	.cantunwind
	.fnend
                                        @ -- End function
	.section	.text.NMEA_Parse_ZDA,"ax",%progbits
	.hidden	NMEA_Parse_ZDA                  @ -- Begin function NMEA_Parse_ZDA
	.globl	NMEA_Parse_ZDA
	.p2align	2
	.type	NMEA_Parse_ZDA,%function
	.code	16                              @ @NMEA_Parse_ZDA
	.thumb_func
NMEA_Parse_ZDA:
.Lfunc_begin14:
	.loc	3 593 0 is_stmt 1               @ ../Source/NMEAParser.c:593:0
	.fnstart
	.cfi_startproc
@ %bb.0:
	.save	{r4, r5, r6, lr}
	push	{r4, r5, r6, lr}
	.cfi_def_cfa_offset 16
	.cfi_offset lr, -4
	.cfi_offset r6, -8
	.cfi_offset r5, -12
	.cfi_offset r4, -16
	.pad	#40
	sub	sp, #40
	.cfi_def_cfa_offset 56
	str	r0, [sp, #32]
	str	r1, [sp, #28]
.Ltmp322:
	.loc	3 597 17 prologue_end           @ ../Source/NMEAParser.c:597:17
	ldr	r0, [sp, #28]
	.loc	3 599 12                        @ ../Source/NMEAParser.c:599:12
	ldr	r3, [sp, #32]
	.loc	3 600 19                        @ ../Source/NMEAParser.c:600:19
	adds	r1, r3, #4
	.loc	3 601 24                        @ ../Source/NMEAParser.c:601:24
	adds	r2, r3, #5
	.loc	3 602 24                        @ ../Source/NMEAParser.c:602:24
	adds	r4, r3, #6
	.loc	3 603 19                        @ ../Source/NMEAParser.c:603:19
	mov	r5, r3
	adds	r5, #8
	.loc	3 604 19                        @ ../Source/NMEAParser.c:604:19
	mov	r6, r3
	adds	r6, #12
	.loc	3 597 7                         @ ../Source/NMEAParser.c:597:7
	str	r6, [sp, #16]
	str	r5, [sp, #12]
	str	r4, [sp, #8]
	str	r2, [sp, #4]
	str	r1, [sp]
	ldr	r1, __arm_cp.14_0
	add	r2, sp, #20
	bl	NMEA_Scan
.Ltmp323:
	.loc	3 597 6 is_stmt 0               @ ../Source/NMEAParser.c:597:6
	cmp	r0, #0
	bne	.LBB14_2
	b	.LBB14_1
.LBB14_1:
	.loc	3 0 6                           @ ../Source/NMEAParser.c:0:6
	add	r1, sp, #36
	movs	r0, #0
.Ltmp324:
	.loc	3 605 7 is_stmt 1               @ ../Source/NMEAParser.c:605:7
	strb	r0, [r1]
	b	.LBB14_9
.Ltmp325:
.LBB14_2:
	.loc	3 0 7 is_stmt 0                 @ ../Source/NMEAParser.c:0:7
	add	r0, sp, #20
.Ltmp326:
	.loc	3 606 18 is_stmt 1              @ ../Source/NMEAParser.c:606:18
	adds	r0, r0, #2
	.loc	3 606 7 is_stmt 0               @ ../Source/NMEAParser.c:606:7
	ldr	r1, __arm_cp.14_1
	bl	strcmp
.Ltmp327:
	.loc	3 606 7                         @ ../Source/NMEAParser.c:606:7
	cmp	r0, #0
	beq	.LBB14_4
	b	.LBB14_3
.LBB14_3:
	.loc	3 0 7                           @ ../Source/NMEAParser.c:0:7
	add	r1, sp, #36
	movs	r0, #0
.Ltmp328:
	.loc	3 607 7 is_stmt 1               @ ../Source/NMEAParser.c:607:7
	strb	r0, [r1]
	b	.LBB14_9
.Ltmp329:
.LBB14_4:
	.loc	3 610 11                        @ ../Source/NMEAParser.c:610:11
	ldr	r0, [sp, #32]
	.loc	3 610 18 is_stmt 0              @ ../Source/NMEAParser.c:610:18
	ldr	r0, [r0, #8]
	.loc	3 610 7                         @ ../Source/NMEAParser.c:610:7
	bl	abs
	.loc	3 610 36                        @ ../Source/NMEAParser.c:610:36
	cmp	r0, #13
	bgt	.LBB14_7
	b	.LBB14_5
.LBB14_5:
	.loc	3 611 7 is_stmt 1               @ ../Source/NMEAParser.c:611:7
	ldr	r0, [sp, #32]
	.loc	3 611 14 is_stmt 0              @ ../Source/NMEAParser.c:611:14
	ldr	r0, [r0, #12]
	.loc	3 611 33                        @ ../Source/NMEAParser.c:611:33
	cmp	r0, #59
	bgt	.LBB14_7
	b	.LBB14_6
.LBB14_6:
	.loc	3 612 7 is_stmt 1               @ ../Source/NMEAParser.c:612:7
	ldr	r0, [sp, #32]
	.loc	3 612 14 is_stmt 0              @ ../Source/NMEAParser.c:612:14
	ldr	r0, [r0, #12]
.Ltmp330:
	.loc	3 610 7 is_stmt 1               @ ../Source/NMEAParser.c:610:7
	cmp	r0, #0
	bpl	.LBB14_8
	b	.LBB14_7
.LBB14_7:
	.loc	3 0 7 is_stmt 0                 @ ../Source/NMEAParser.c:0:7
	add	r1, sp, #36
	movs	r0, #0
.Ltmp331:
	.loc	3 613 7 is_stmt 1               @ ../Source/NMEAParser.c:613:7
	strb	r0, [r1]
	b	.LBB14_9
.Ltmp332:
.LBB14_8:
	.loc	3 0 7 is_stmt 0                 @ ../Source/NMEAParser.c:0:7
	add	r1, sp, #36
	movs	r0, #1
	.loc	3 615 3 is_stmt 1               @ ../Source/NMEAParser.c:615:3
	strb	r0, [r1]
	b	.LBB14_9
.LBB14_9:
	.loc	3 0 3 is_stmt 0                 @ ../Source/NMEAParser.c:0:3
	add	r0, sp, #36
	.loc	3 616 1 is_stmt 1               @ ../Source/NMEAParser.c:616:1
	ldrb	r0, [r0]
	add	sp, #40
	pop	{r4, r5, r6, pc}
.Ltmp333:
	.p2align	2
@ %bb.10:
	.loc	3 0 1 is_stmt 0                 @ ../Source/NMEAParser.c:0:1
__arm_cp.14_0:
	.long	.L.str.18
.Lcpi_end28:
	.size	__arm_cp.14_0, .Lcpi_end28-__arm_cp.14_0
__arm_cp.14_1:
	.long	.L.str.10
.Lcpi_end29:
	.size	__arm_cp.14_1, .Lcpi_end29-__arm_cp.14_1
.Lfunc_end14:
	.size	NMEA_Parse_ZDA, .Lfunc_end14-NMEA_Parse_ZDA
	.cfi_endproc
	.cantunwind
	.fnend
                                        @ -- End function
	.section	.text.NMEA_GetTime,"ax",%progbits
	.hidden	NMEA_GetTime                    @ -- Begin function NMEA_GetTime
	.globl	NMEA_GetTime
	.p2align	2
	.type	NMEA_GetTime,%function
	.code	16                              @ @NMEA_GetTime
	.thumb_func
NMEA_GetTime:
.Lfunc_begin15:
	.loc	3 619 0 is_stmt 1               @ ../Source/NMEAParser.c:619:0
	.fnstart
	.cfi_startproc
@ %bb.0:
	.save	{r7, lr}
	push	{r7, lr}
	.cfi_def_cfa_offset 8
	.cfi_offset lr, -4
	.cfi_offset r7, -8
	.pad	#64
	sub	sp, #64
	.cfi_def_cfa_offset 72
	str	r0, [sp, #56]
	str	r1, [sp, #52]
	str	r2, [sp, #48]
.Ltmp334:
	.loc	3 620 9 prologue_end            @ ../Source/NMEAParser.c:620:9
	ldr	r0, [sp, #52]
	movs	r1, #2
	.loc	3 620 15 is_stmt 0              @ ../Source/NMEAParser.c:620:15
	ldrsh	r0, [r0, r1]
	.loc	3 620 26                        @ ../Source/NMEAParser.c:620:26
	adds	r0, r0, #1
	cmp	r0, #0
	beq	.LBB15_2
	b	.LBB15_1
.LBB15_1:
	.loc	3 620 29                        @ ../Source/NMEAParser.c:620:29
	ldr	r0, [sp, #48]
	.loc	3 620 36                        @ ../Source/NMEAParser.c:620:36
	ldrb	r0, [r0]
	sxtb	r0, r0
.Ltmp335:
	.loc	3 620 9                         @ ../Source/NMEAParser.c:620:9
	adds	r0, r0, #1
	cmp	r0, #0
	bne	.LBB15_3
	b	.LBB15_2
.LBB15_2:
	.loc	3 0 9                           @ ../Source/NMEAParser.c:0:9
	movs	r0, #0
	mvns	r0, r0
.Ltmp336:
	.loc	3 621 9 is_stmt 1               @ ../Source/NMEAParser.c:621:9
	str	r0, [sp, #60]
	b	.LBB15_12
.Ltmp337:
.LBB15_3:
	.loc	3 0 9 is_stmt 0                 @ ../Source/NMEAParser.c:0:9
	add	r0, sp, #4
	movs	r1, #44
	.loc	3 624 5 is_stmt 1               @ ../Source/NMEAParser.c:624:5
	bl	__aeabi_memclr4
.Ltmp338:
	.loc	3 625 9                         @ ../Source/NMEAParser.c:625:9
	ldr	r0, [sp, #52]
	movs	r1, #2
	.loc	3 625 15 is_stmt 0              @ ../Source/NMEAParser.c:625:15
	ldrsh	r0, [r0, r1]
.Ltmp339:
	.loc	3 625 9                         @ ../Source/NMEAParser.c:625:9
	cmp	r0, #79
	bgt	.LBB15_5
	b	.LBB15_4
.LBB15_4:
.Ltmp340:
	.loc	3 626 29 is_stmt 1              @ ../Source/NMEAParser.c:626:29
	ldr	r0, [sp, #52]
	movs	r1, #2
	.loc	3 626 35 is_stmt 0              @ ../Source/NMEAParser.c:626:35
	ldrsh	r0, [r0, r1]
	.loc	3 626 40                        @ ../Source/NMEAParser.c:626:40
	adds	r0, #100
	.loc	3 626 20                        @ ../Source/NMEAParser.c:626:20
	str	r0, [sp, #24]
	.loc	3 627 5 is_stmt 1               @ ../Source/NMEAParser.c:627:5
	b	.LBB15_9
.Ltmp341:
.LBB15_5:
	.loc	3 627 16 is_stmt 0              @ ../Source/NMEAParser.c:627:16
	ldr	r0, [sp, #52]
	movs	r1, #2
	.loc	3 627 22                        @ ../Source/NMEAParser.c:627:22
	ldrsh	r0, [r0, r1]
	ldr	r1, __arm_cp.15_0
.Ltmp342:
	.loc	3 627 16                        @ ../Source/NMEAParser.c:627:16
	cmp	r0, r1
	blt	.LBB15_7
	b	.LBB15_6
.LBB15_6:
.Ltmp343:
	.loc	3 628 22 is_stmt 1              @ ../Source/NMEAParser.c:628:22
	ldr	r0, [sp, #52]
	movs	r1, #2
	.loc	3 628 28 is_stmt 0              @ ../Source/NMEAParser.c:628:28
	ldrsh	r0, [r0, r1]
	ldr	r1, __arm_cp.15_1
	.loc	3 628 33                        @ ../Source/NMEAParser.c:628:33
	adds	r0, r0, r1
	.loc	3 628 20                        @ ../Source/NMEAParser.c:628:20
	str	r0, [sp, #24]
	.loc	3 629 5 is_stmt 1               @ ../Source/NMEAParser.c:629:5
	b	.LBB15_8
.Ltmp344:
.LBB15_7:
	.loc	3 630 22                        @ ../Source/NMEAParser.c:630:22
	ldr	r0, [sp, #52]
	movs	r1, #2
	.loc	3 630 28 is_stmt 0              @ ../Source/NMEAParser.c:630:28
	ldrsh	r0, [r0, r1]
	.loc	3 630 20                        @ ../Source/NMEAParser.c:630:20
	str	r0, [sp, #24]
	b	.LBB15_8
.Ltmp345:
.LBB15_8:
	.loc	3 0 20                          @ ../Source/NMEAParser.c:0:20
	b	.LBB15_9
.LBB15_9:
	.loc	3 632 17 is_stmt 1              @ ../Source/NMEAParser.c:632:17
	ldr	r0, [sp, #52]
	movs	r1, #1
	.loc	3 632 23 is_stmt 0              @ ../Source/NMEAParser.c:632:23
	ldrsb	r0, [r0, r1]
	.loc	3 632 29                        @ ../Source/NMEAParser.c:632:29
	subs	r0, r0, #1
	.loc	3 632 15                        @ ../Source/NMEAParser.c:632:15
	str	r0, [sp, #20]
	.loc	3 633 18 is_stmt 1              @ ../Source/NMEAParser.c:633:18
	ldr	r0, [sp, #52]
	.loc	3 633 24 is_stmt 0              @ ../Source/NMEAParser.c:633:24
	ldrb	r0, [r0]
	sxtb	r0, r0
	.loc	3 633 16                        @ ../Source/NMEAParser.c:633:16
	str	r0, [sp, #16]
	.loc	3 634 18 is_stmt 1              @ ../Source/NMEAParser.c:634:18
	ldr	r0, [sp, #48]
	.loc	3 634 25 is_stmt 0              @ ../Source/NMEAParser.c:634:25
	ldrb	r0, [r0]
	sxtb	r0, r0
	.loc	3 634 16                        @ ../Source/NMEAParser.c:634:16
	str	r0, [sp, #12]
	.loc	3 635 17 is_stmt 1              @ ../Source/NMEAParser.c:635:17
	ldr	r0, [sp, #48]
	.loc	3 635 24 is_stmt 0              @ ../Source/NMEAParser.c:635:24
	ldrsb	r0, [r0, r1]
	.loc	3 635 15                        @ ../Source/NMEAParser.c:635:15
	str	r0, [sp, #8]
	.loc	3 636 17 is_stmt 1              @ ../Source/NMEAParser.c:636:17
	ldr	r0, [sp, #48]
	movs	r1, #2
	.loc	3 636 24 is_stmt 0              @ ../Source/NMEAParser.c:636:24
	ldrsb	r0, [r0, r1]
	.loc	3 636 15                        @ ../Source/NMEAParser.c:636:15
	str	r0, [sp, #4]
	add	r0, sp, #4
	.loc	3 638 24 is_stmt 1              @ ../Source/NMEAParser.c:638:24
	bl	mktime
	.loc	3 638 12 is_stmt 0              @ ../Source/NMEAParser.c:638:12
	str	r0, [sp]
.Ltmp346:
	.loc	3 639 9 is_stmt 1               @ ../Source/NMEAParser.c:639:9
	ldr	r0, [sp]
.Ltmp347:
	.loc	3 639 9 is_stmt 0               @ ../Source/NMEAParser.c:639:9
	adds	r0, r0, #1
	cmp	r0, #0
	beq	.LBB15_11
	b	.LBB15_10
.LBB15_10:
.Ltmp348:
	.loc	3 641 22 is_stmt 1              @ ../Source/NMEAParser.c:641:22
	ldr	r0, [sp]
	.loc	3 641 9 is_stmt 0               @ ../Source/NMEAParser.c:641:9
	ldr	r1, [sp, #56]
	.loc	3 641 20                        @ ../Source/NMEAParser.c:641:20
	str	r0, [r1]
	movs	r0, #0
	.loc	3 643 9 is_stmt 1               @ ../Source/NMEAParser.c:643:9
	str	r0, [sp, #60]
	b	.LBB15_12
.Ltmp349:
.LBB15_11:
	.loc	3 0 9 is_stmt 0                 @ ../Source/NMEAParser.c:0:9
	movs	r0, #0
	mvns	r0, r0
.Ltmp350:
	.loc	3 645 9 is_stmt 1               @ ../Source/NMEAParser.c:645:9
	str	r0, [sp, #60]
	b	.LBB15_12
.Ltmp351:
.LBB15_12:
	.loc	3 647 1                         @ ../Source/NMEAParser.c:647:1
	ldr	r0, [sp, #60]
	add	sp, #64
	pop	{r7, pc}
.Ltmp352:
	.p2align	2
@ %bb.13:
	.loc	3 0 1 is_stmt 0                 @ ../Source/NMEAParser.c:0:1
__arm_cp.15_0:
	.long	1900                            @ 0x76c
.Lcpi_end30:
	.size	__arm_cp.15_0, .Lcpi_end30-__arm_cp.15_0
__arm_cp.15_1:
	.long	4294965396                      @ 0xfffff894
.Lcpi_end31:
	.size	__arm_cp.15_1, .Lcpi_end31-__arm_cp.15_1
.Lfunc_end15:
	.size	NMEA_GetTime, .Lfunc_end15-NMEA_GetTime
	.cfi_endproc
	.cantunwind
	.fnend
                                        @ -- End function
	.type	.L.str,%object                  @ @.str
	.section	.rodata.str1.1,"aMS",%progbits,1
.L.str:
	.asciz	"\n"
	.size	.L.str, 2

	.type	.L.str.1,%object                @ @.str.1
.L.str.1:
	.asciz	"\r\n"
	.size	.L.str.1, 3

	.type	.L.str.2,%object                @ @.str.2
.L.str.2:
	.asciz	"t"
	.size	.L.str.2, 2

	.type	.L.str.3,%object                @ @.str.3
.L.str.3:
	.asciz	"RMC"
	.size	.L.str.3, 4

	.type	.L.str.4,%object                @ @.str.4
.L.str.4:
	.asciz	"GGA"
	.size	.L.str.4, 4

	.type	.L.str.5,%object                @ @.str.5
.L.str.5:
	.asciz	"GSA"
	.size	.L.str.5, 4

	.type	.L.str.6,%object                @ @.str.6
.L.str.6:
	.asciz	"GLL"
	.size	.L.str.6, 4

	.type	.L.str.7,%object                @ @.str.7
.L.str.7:
	.asciz	"GST"
	.size	.L.str.7, 4

	.type	.L.str.8,%object                @ @.str.8
.L.str.8:
	.asciz	"GSV"
	.size	.L.str.8, 4

	.type	.L.str.9,%object                @ @.str.9
.L.str.9:
	.asciz	"VTG"
	.size	.L.str.9, 4

	.type	.L.str.10,%object               @ @.str.10
.L.str.10:
	.asciz	"ZDA"
	.size	.L.str.10, 4

	.type	.L.str.11,%object               @ @.str.11
.L.str.11:
	.asciz	"tTcfdfdffDfd"
	.size	.L.str.11, 13

	.type	.L.str.12,%object               @ @.str.12
.L.str.12:
	.asciz	"tTfdfdiiffcfcf_"
	.size	.L.str.12, 16

	.type	.L.str.13,%object               @ @.str.13
.L.str.13:
	.asciz	"tciiiiiiiiiiiiifff"
	.size	.L.str.13, 19

	.type	.L.str.14,%object               @ @.str.14
.L.str.14:
	.asciz	"tfdfdTc;c"
	.size	.L.str.14, 10

	.type	.L.str.15,%object               @ @.str.15
.L.str.15:
	.asciz	"tTfffffff"
	.size	.L.str.15, 10

	.type	.L.str.16,%object               @ @.str.16
.L.str.16:
	.asciz	"tiii;iiiiiiiiiiiiiiii"
	.size	.L.str.16, 22

	.type	.L.str.17,%object               @ @.str.17
.L.str.17:
	.asciz	"tfcfcfcfc;c"
	.size	.L.str.17, 12

	.type	.L.str.18,%object               @ @.str.18
.L.str.18:
	.asciz	"tTiiiii"
	.size	.L.str.18, 8

	.file	4 "C:\\Keil_v5\\ARM\\ARMCLANG\\Bin\\..\\include" "stdint.h"
	.file	5 "D:\\Projects\\CCMSFloridaPhpr\\Application\\KEIL" "../Source\\NMEAParser.c"
	.file	6 "C:\\Keil_v5\\ARM\\ARMCLANG\\Bin\\..\\include" "stdarg.h"
	.section	".note.GNU-stack","",%progbits
	.eabi_attribute	30, 6	@ Tag_ABI_optimization_goals
	.ARM_attribute	16, 1	@ Tag_AV_eba