	.text
	.syntax unified
	.eabi_attribute	67, "2.09"	@ Tag_conformance
	.cpu	cortex-m0
	.eabi_attribute	6, 12	@ Tag_CPU_arch
	.eabi_attribute	7, 77	@ Tag_CPU_arch_profile
	.eabi_attribute	8, 0	@ Tag_ARM_ISA_use
	.eabi_attribute	9, 1	@ Tag_THUMB_ISA_use
	.eabi_attribute	34, 0	@ Tag_CPU_unaligned_access
	.eabi_attribute	17, 1	@ Tag_ABI_PCS_GOT_use
	.eabi_attribute	20, 2	@ Tag_ABI_FP_denormal
	.eabi_attribute	21, 0	@ Tag_ABI_FP_exceptions
	.eabi_attribute	23, 1	@ Tag_ABI_FP_number_model
	.eabi_attribute	24, 1	@ Tag_ABI_align_needed
	.eabi_attribute	25, 1	@ Tag_ABI_align_preserved
	.eabi_attribute	38, 1	@ Tag_ABI_FP_16bit_format
	.eabi_attribute	18, 2	@ Tag_ABI_PCS_wchar_t
	.eabi_attribute	26, 1	@ Tag_ABI_enum_size
	.eabi_attribute	14, 0	@ Tag_ABI_PCS_R9_use
	.file	"retarget.c"
	.file	1 "C:\\Keil_v5\\ARM\\ARMCLANG\\Bin\\..\\include" "stdio.h"
	.file	2 "D:\\Projects\\CCMSFloridaPhpr\\Application\\KEIL" "../../Library/StdDriver/src/retarget.c"
	.file	3 "C:\\Keil_v5\\ARM\\ARMCLANG\\Bin\\..\\include" "stdint.h"
	.file	4 "D:\\Projects\\CCMSFloridaPhpr\\Application\\KEIL" "../../Library/Device/Nuvoton/M031/Include/uart_reg.h"
	.file	5 "D:\\Projects\\CCMSFloridaPhpr\\Application\\KEIL" "../../Library/CMSIS/Include\\core_cm0.h"
	.section	.text.Hard_Fault_Handler,"ax",%progbits
	.hidden	Hard_Fault_Handler              @ -- Begin function Hard_Fault_Handler
	.globl	Hard_Fault_Handler
	.p2align	2
	.type	Hard_Fault_Handler,%function
	.code	16                              @ @Hard_Fault_Handler
	.thumb_func
Hard_Fault_Handler:
.Lfunc_begin0:
	.loc	2 78 0                          @ ../../Library/StdDriver/src/retarget.c:78:0
	.fnstart
	.cfi_sections .debug_frame
	.cfi_startproc
@ %bb.0:
	.save	{r7, lr}
	push	{r7, lr}
	.cfi_def_cfa_offset 8
	.cfi_offset lr, -4
	.cfi_offset r7, -8
	.pad	#8
	sub	sp, #8
	.cfi_def_cfa_offset 16
	str	r0, [sp, #4]
.Ltmp0:
	.loc	2 79 5 prologue_end             @ ../../Library/StdDriver/src/retarget.c:79:5
	ldr	r0, __arm_cp.0_0
	bl	printf
	.loc	2 81 15                         @ ../../Library/StdDriver/src/retarget.c:81:15
	ldr	r0, [sp, #4]
	.loc	2 81 5 is_stmt 0                @ ../../Library/StdDriver/src/retarget.c:81:5
	bl	stackDump
	.loc	2 83 5 is_stmt 1                @ ../../Library/StdDriver/src/retarget.c:83:5
	b	.LBB0_1
.LBB0_1:                                @ =>This Inner Loop Header: Depth=1
	b	.LBB0_1
.Ltmp1:
	.p2align	2
@ %bb.2:
	.loc	2 0 5 is_stmt 0                 @ ../../Library/StdDriver/src/retarget.c:0:5
__arm_cp.0_0:
	.long	.L.str
.Lcpi_end0:
	.size	__arm_cp.0_0, .Lcpi_end0-__arm_cp.0_0
.Lfunc_end0:
	.size	Hard_Fault_Handler, .Lfunc_end0-Hard_Fault_Handler
	.cfi_endproc
	.cantunwind
	.fnend
                                        @ -- End function
	.section	.text.stackDump,"ax",%progbits
	.p2align	2                               @ -- Begin function stackDump
	.type	stackDump,%function
	.code	16                              @ @stackDump
	.thumb_func
stackDump:
.Lfunc_begin1:
	.loc	2 60 0 is_stmt 1                @ ../../Library/StdDriver/src/retarget.c:60:0
	.fnstart
	.cfi_startproc
@ %bb.0:
	.save	{r7, lr}
	push	{r7, lr}
	.cfi_def_cfa_offset 8
	.cfi_offset lr, -4
	.cfi_offset r7, -8
	.pad	#8
	sub	sp, #8
	.cfi_def_cfa_offset 16
	str	r0, [sp, #4]
.Ltmp2:
	.loc	2 61 28 prologue_end            @ ../../Library/StdDriver/src/retarget.c:61:28
	ldr	r0, [sp, #4]
	ldr	r1, [r0]
	.loc	2 61 5 is_stmt 0                @ ../../Library/StdDriver/src/retarget.c:61:5
	ldr	r0, __arm_cp.1_0
	bl	printf
	.loc	2 62 28 is_stmt 1               @ ../../Library/StdDriver/src/retarget.c:62:28
	ldr	r0, [sp, #4]
	ldr	r1, [r0, #4]
	.loc	2 62 5 is_stmt 0                @ ../../Library/StdDriver/src/retarget.c:62:5
	ldr	r0, __arm_cp.1_1
	bl	printf
	.loc	2 63 28 is_stmt 1               @ ../../Library/StdDriver/src/retarget.c:63:28
	ldr	r0, [sp, #4]
	ldr	r1, [r0, #8]
	.loc	2 63 5 is_stmt 0                @ ../../Library/StdDriver/src/retarget.c:63:5
	ldr	r0, __arm_cp.1_2
	bl	printf
	.loc	2 64 28 is_stmt 1               @ ../../Library/StdDriver/src/retarget.c:64:28
	ldr	r0, [sp, #4]
	ldr	r1, [r0, #12]
	.loc	2 64 5 is_stmt 0                @ ../../Library/StdDriver/src/retarget.c:64:5
	ldr	r0, __arm_cp.1_3
	bl	printf
	.loc	2 65 28 is_stmt 1               @ ../../Library/StdDriver/src/retarget.c:65:28
	ldr	r0, [sp, #4]
	ldr	r1, [r0, #16]
	.loc	2 65 5 is_stmt 0                @ ../../Library/StdDriver/src/retarget.c:65:5
	ldr	r0, __arm_cp.1_4
	bl	printf
	.loc	2 66 28 is_stmt 1               @ ../../Library/StdDriver/src/retarget.c:66:28
	ldr	r0, [sp, #4]
	ldr	r1, [r0, #20]
	.loc	2 66 5 is_stmt 0                @ ../../Library/StdDriver/src/retarget.c:66:5
	ldr	r0, __arm_cp.1_5
	bl	printf
	.loc	2 67 28 is_stmt 1               @ ../../Library/StdDriver/src/retarget.c:67:28
	ldr	r0, [sp, #4]
	ldr	r1, [r0, #24]
	.loc	2 67 5 is_stmt 0                @ ../../Library/StdDriver/src/retarget.c:67:5
	ldr	r0, __arm_cp.1_6
	bl	printf
	.loc	2 68 28 is_stmt 1               @ ../../Library/StdDriver/src/retarget.c:68:28
	ldr	r0, [sp, #4]
	ldr	r1, [r0, #28]
	.loc	2 68 5 is_stmt 0                @ ../../Library/StdDriver/src/retarget.c:68:5
	ldr	r0, __arm_cp.1_7
	bl	printf
	.loc	2 69 1 is_stmt 1                @ ../../Library/StdDriver/src/retarget.c:69:1
	add	sp, #8
	pop	{r7, pc}
.Ltmp3:
	.p2align	2
@ %bb.1:
	.loc	2 0 1 is_stmt 0                 @ ../../Library/StdDriver/src/retarget.c:0:1
__arm_cp.1_0:
	.long	.L.str.1
.Lcpi_end1:
	.size	__arm_cp.1_0, .Lcpi_end1-__arm_cp.1_0
__arm_cp.1_1:
	.long	.L.str.2
.Lcpi_end2:
	.size	__arm_cp.1_1, .Lcpi_end2-__arm_cp.1_1
__arm_cp.1_2:
	.long	.L.str.3
.Lcpi_end3:
	.size	__arm_cp.1_2, .Lcpi_end3-__arm_cp.1_2
__arm_cp.1_3:
	.long	.L.str.4
.Lcpi_end4:
	.size	__arm_cp.1_3, .Lcpi_end4-__arm_cp.1_3
__arm_cp.1_4:
	.long	.L.str.5
.Lcpi_end5:
	.size	__arm_cp.1_4, .Lcpi_end5-__arm_cp.1_4
__arm_cp.1_5:
	.long	.L.str.6
.Lcpi_end6:
	.size	__arm_cp.1_5, .Lcpi_end6-__arm_cp.1_5
__arm_cp.1_6:
	.long	.L.str.7
.Lcpi_end7:
	.size	__arm_cp.1_6, .Lcpi_end7-__arm_cp.1_6
__arm_cp.1_7:
	.long	.L.str.8
.Lcpi_end8:
	.size	__arm_cp.1_7, .Lcpi_end8-__arm_cp.1_7
.Lfunc_end1:
	.size	stackDump, .Lfunc_end1-stackDump
	.cfi_endproc
	.cantunwind
	.fnend
                                        @ -- End function
	.section	.text.HardFault_Handler,"ax",%progbits
	.hidden	HardFault_Handler               @ -- Begin function HardFault_Handler
	.globl	HardFault_Handler
	.p2align	1
	.type	HardFault_Handler,%function
	.code	16                              @ @HardFault_Handler
	.thumb_func
HardFault_Handler:
.Lfunc_begin2:
	.loc	2 344 0 is_stmt 1               @ ../../Library/StdDriver/src/retarget.c:344:0
	.fnstart
	.cfi_startproc
@ %bb.0:
	.save	{r7, lr}
	push	{r7, lr}
	.cfi_def_cfa_offset 8
	.cfi_offset lr, -4
	.cfi_offset r7, -8
.Ltmp4:
	.loc	2 358 3 prologue_end            @ ../../Library/StdDriver/src/retarget.c:358:3
	bl	NVIC_SystemReset
	.loc	2 359 1                         @ ../../Library/StdDriver/src/retarget.c:359:1
	pop	{r7, pc}
.Ltmp5:
.Lfunc_end2:
	.size	HardFault_Handler, .Lfunc_end2-HardFault_Handler
	.cfi_endproc
	.cantunwind
	.fnend
                                        @ -- End function
	.section	.text.NVIC_SystemReset,"ax",%progbits
	.p2align	2                               @ -- Begin function NVIC_SystemReset
	.type	NVIC_SystemReset,%function
	.code	16                              @ @NVIC_SystemReset
	.thumb_func
NVIC_SystemReset:
.Lfunc_begin3:
	.loc	5 731 0                         @ ../../Library/CMSIS/Include\core_cm0.h:731:0
	.fnstart
	.cfi_startproc
@ %bb.0:
	.loc	5 732 3 prologue_end            @ ../../Library/CMSIS/Include\core_cm0.h:732:3
	dsb	sy
	ldr	r1, __arm_cp.3_0
	ldr	r0, __arm_cp.3_1
	.loc	5 734 15                        @ ../../Library/CMSIS/Include\core_cm0.h:734:15
	str	r0, [r1]
	.loc	5 736 3                         @ ../../Library/CMSIS/Include\core_cm0.h:736:3
	dsb	sy
	.loc	5 738 3                         @ ../../Library/CMSIS/Include\core_cm0.h:738:3
	b	.LBB3_1
.LBB3_1:                                @ =>This Inner Loop Header: Depth=1
.Ltmp6:
	.loc	5 740 5                         @ ../../Library/CMSIS/Include\core_cm0.h:740:5
	nop
.Ltmp7:
	.loc	5 738 3                         @ ../../Library/CMSIS/Include\core_cm0.h:738:3
	b	.LBB3_1
.Ltmp8:
	.p2align	2
@ %bb.2:
	.loc	5 0 3 is_stmt 0                 @ ../../Library/CMSIS/Include\core_cm0.h:0:3
__arm_cp.3_0:
	.long	3758157068                      @ 0xe000ed0c
.Lcpi_end9:
	.size	__arm_cp.3_0, .Lcpi_end9-__arm_cp.3_0
__arm_cp.3_1:
	.long	100270084                       @ 0x5fa0004
.Lcpi_end10:
	.size	__arm_cp.3_1, .Lcpi_end10-__arm_cp.3_1
.Lfunc_end3:
	.size	NVIC_SystemReset, .Lfunc_end3-NVIC_SystemReset
	.cfi_endproc
	.cantunwind
	.fnend
                                        @ -- End function
	.section	.text.kbhit,"ax",%progbits
	.hidden	kbhit                           @ -- Begin function kbhit
	.globl	kbhit
	.p2align	2
	.type	kbhit,%function
	.code	16                              @ @kbhit
	.thumb_func
kbhit:
.Lfunc_begin4:
	.loc	2 614 0 is_stmt 1               @ ../../Library/StdDriver/src/retarget.c:614:0
	.fnstart
	.cfi_startproc
@ %bb.0:
	ldr	r0, __arm_cp.4_0
.Ltmp9:
	.loc	2 616 27 prologue_end           @ ../../Library/StdDriver/src/retarget.c:616:27
	ldr	r0, [r0]
	movs	r1, #1
	lsls	r1, r1, #14
	.loc	2 616 35 is_stmt 0              @ ../../Library/StdDriver/src/retarget.c:616:35
	ands	r0, r1
	.loc	2 616 63                        @ ../../Library/StdDriver/src/retarget.c:616:63
	lsrs	r0, r0, #14
	.loc	2 616 5                         @ ../../Library/StdDriver/src/retarget.c:616:5
	bx	lr
.Ltmp10:
	.p2align	2
@ %bb.1:
	.loc	2 0 5                           @ ../../Library/StdDriver/src/retarget.c:0:5
__arm_cp.4_0:
	.long	1074200600                      @ 0x40070018
.Lcpi_end11:
	.size	__arm_cp.4_0, .Lcpi_end11-__arm_cp.4_0
.Lfunc_end4:
	.size	kbhit, .Lfunc_end4-kbhit
	.cfi_endproc
	.cantunwind
	.fnend
                                        @ -- End function
	.section	.text.IsDebugFifoEmpty,"ax",%progbits
	.hidden	IsDebugFifoEmpty                @ -- Begin function IsDebugFifoEmpty
	.globl	IsDebugFifoEmpty
	.p2align	2
	.type	IsDebugFifoEmpty,%function
	.code	16                              @ @IsDebugFifoEmpty
	.thumb_func
IsDebugFifoEmpty:
.Lfunc_begin5:
	.loc	2 633 0 is_stmt 1               @ ../../Library/StdDriver/src/retarget.c:633:0
	.fnstart
	.cfi_startproc
@ %bb.0:
	ldr	r0, __arm_cp.5_0
.Ltmp11:
	.loc	2 635 26 prologue_end           @ ../../Library/StdDriver/src/retarget.c:635:26
	ldr	r0, [r0]
	movs	r1, #1
	lsls	r1, r1, #28
	.loc	2 635 34 is_stmt 0              @ ../../Library/StdDriver/src/retarget.c:635:34
	ands	r0, r1
	.loc	2 635 63                        @ ../../Library/StdDriver/src/retarget.c:635:63
	lsrs	r0, r0, #28
	.loc	2 635 5                         @ ../../Library/StdDriver/src/retarget.c:635:5
	bx	lr
.Ltmp12:
	.p2align	2
@ %bb.1:
	.loc	2 0 5                           @ ../../Library/StdDriver/src/retarget.c:0:5
__arm_cp.5_0:
	.long	1074200600                      @ 0x40070018
.Lcpi_end12:
	.size	__arm_cp.5_0, .Lcpi_end12-__arm_cp.5_0
.Lfunc_end5:
	.size	IsDebugFifoEmpty, .Lfunc_end5-IsDebugFifoEmpty
	.cfi_endproc
	.cantunwind
	.fnend
                                        @ -- End function
	.section	.text._ttywrch,"ax",%progbits
	.hidden	_ttywrch                        @ -- Begin function _ttywrch
	.globl	_ttywrch
	.p2align	1
	.type	_ttywrch,%function
	.code	16                              @ @_ttywrch
	.thumb_func
_ttywrch:
.Lfunc_begin6:
	.loc	2 652 0 is_stmt 1               @ ../../Library/StdDriver/src/retarget.c:652:0
	.fnstart
	.cfi_startproc
@ %bb.0:
	.save	{r7, lr}
	push	{r7, lr}
	.cfi_def_cfa_offset 8
	.cfi_offset lr, -4
	.cfi_offset r7, -8
	.pad	#8
	sub	sp, #8
	.cfi_def_cfa_offset 16
	str	r0, [sp, #4]
.Ltmp13:
	.loc	2 653 14 prologue_end           @ ../../Library/StdDriver/src/retarget.c:653:14
	ldr	r0, [sp, #4]
	.loc	2 653 5 is_stmt 0               @ ../../Library/StdDriver/src/retarget.c:653:5
	bl	SendChar
	.loc	2 654 5 is_stmt 1               @ ../../Library/StdDriver/src/retarget.c:654:5
	add	sp, #8
	pop	{r7, pc}
.Ltmp14:
.Lfunc_end6:
	.size	_ttywrch, .Lfunc_end6-_ttywrch
	.cfi_endproc
	.cantunwind
	.fnend
                                        @ -- End function
	.section	.text.SendChar,"ax",%progbits
	.p2align	1                               @ -- Begin function SendChar
	.type	SendChar,%function
	.code	16                              @ @SendChar
	.thumb_func
SendChar:
.Lfunc_begin7:
	.loc	2 523 0                         @ ../../Library/StdDriver/src/retarget.c:523:0
	.fnstart
	.cfi_startproc
@ %bb.0:
	.save	{r7, lr}
	push	{r7, lr}
	.cfi_def_cfa_offset 8
	.cfi_offset lr, -4
	.cfi_offset r7, -8
	.pad	#8
	sub	sp, #8
	.cfi_def_cfa_offset 16
	str	r0, [sp, #4]
.Ltmp15:
	.loc	2 551 21 prologue_end           @ ../../Library/StdDriver/src/retarget.c:551:21
	ldr	r0, [sp, #4]
	.loc	2 551 5 is_stmt 0               @ ../../Library/StdDriver/src/retarget.c:551:5
	bl	SendChar_ToUART
	.loc	2 554 1 is_stmt 1               @ ../../Library/StdDriver/src/retarget.c:554:1
	add	sp, #8
	pop	{r7, pc}
.Ltmp16:
.Lfunc_end7:
	.size	SendChar, .Lfunc_end7-SendChar
	.cfi_endproc
	.cantunwind
	.fnend
                                        @ -- End function
	.section	.text.fputc,"ax",%progbits
	.hidden	fputc                           @ -- Begin function fputc
	.globl	fputc
	.p2align	1
	.type	fputc,%function
	.code	16                              @ @fputc
	.thumb_func
fputc:
.Lfunc_begin8:
	.loc	2 677 0                         @ ../../Library/StdDriver/src/retarget.c:677:0
	.fnstart
	.cfi_startproc
@ %bb.0:
	.save	{r7, lr}
	push	{r7, lr}
	.cfi_def_cfa_offset 8
	.cfi_offset lr, -4
	.cfi_offset r7, -8
	.pad	#8
	sub	sp, #8
	.cfi_def_cfa_offset 16
	str	r0, [sp, #4]
	str	r1, [sp]
.Ltmp17:
	.loc	2 678 14 prologue_end           @ ../../Library/StdDriver/src/retarget.c:678:14
	ldr	r0, [sp, #4]
	.loc	2 678 5 is_stmt 0               @ ../../Library/StdDriver/src/retarget.c:678:5
	bl	SendChar
	.loc	2 679 12 is_stmt 1              @ ../../Library/StdDriver/src/retarget.c:679:12
	ldr	r0, [sp, #4]
	.loc	2 679 5 is_stmt 0               @ ../../Library/StdDriver/src/retarget.c:679:5
	add	sp, #8
	pop	{r7, pc}
.Ltmp18:
.Lfunc_end8:
	.size	fputc, .Lfunc_end8-fputc
	.cfi_endproc
	.cantunwind
	.fnend
                                        @ -- End function
	.section	.text.fgetc,"ax",%progbits
	.hidden	fgetc                           @ -- Begin function fgetc
	.globl	fgetc
	.p2align	1
	.type	fgetc,%function
	.code	16                              @ @fgetc
	.thumb_func
fgetc:
.Lfunc_begin9:
	.loc	2 727 0 is_stmt 1               @ ../../Library/StdDriver/src/retarget.c:727:0
	.fnstart
	.cfi_startproc
@ %bb.0:
	.save	{r7, lr}
	push	{r7, lr}
	.cfi_def_cfa_offset 8
	.cfi_offset lr, -4
	.cfi_offset r7, -8
	.pad	#8
	sub	sp, #8
	.cfi_def_cfa_offset 16
	str	r0, [sp, #4]
.Ltmp19:
	.loc	2 728 13 prologue_end           @ ../../Library/StdDriver/src/retarget.c:728:13
	bl	GetChar
	.loc	2 728 5 is_stmt 0               @ ../../Library/StdDriver/src/retarget.c:728:5
	add	sp, #8
	pop	{r7, pc}
.Ltmp20:
.Lfunc_end9:
	.size	fgetc, .Lfunc_end9-fgetc
	.cfi_endproc
	.cantunwind
	.fnend
                                        @ -- End function
	.section	.text.GetChar,"ax",%progbits
	.p2align	2                               @ -- Begin function GetChar
	.type	GetChar,%function
	.code	16                              @ @GetChar
	.thumb_func
GetChar:
.Lfunc_begin10:
	.loc	2 566 0 is_stmt 1               @ ../../Library/StdDriver/src/retarget.c:566:0
	.fnstart
	.cfi_startproc
@ %bb.0:
	.loc	2 589 5 prologue_end            @ ../../Library/StdDriver/src/retarget.c:589:5
	b	.LBB10_1
.LBB10_1:                               @ =>This Inner Loop Header: Depth=1
	.loc	2 0 5 is_stmt 0                 @ ../../Library/StdDriver/src/retarget.c:0:5
	ldr	r0, __arm_cp.10_0
.Ltmp21:
	.loc	2 591 25 is_stmt 1              @ ../../Library/StdDriver/src/retarget.c:591:25
	ldr	r0, [r0]
.Ltmp22:
	.loc	2 591 12 is_stmt 0              @ ../../Library/StdDriver/src/retarget.c:591:12
	lsls	r0, r0, #17
	cmp	r0, #0
	bmi	.LBB10_3
	b	.LBB10_2
.LBB10_2:
	.loc	2 0 12                          @ ../../Library/StdDriver/src/retarget.c:0:12
	ldr	r0, __arm_cp.10_1
.Ltmp23:
	.loc	2 593 33 is_stmt 1              @ ../../Library/StdDriver/src/retarget.c:593:33
	ldr	r0, [r0]
	.loc	2 593 13 is_stmt 0              @ ../../Library/StdDriver/src/retarget.c:593:13
	uxtb	r0, r0
	bx	lr
.Ltmp24:
.LBB10_3:                               @   in Loop: Header=BB10_1 Depth=1
	.loc	2 589 5 is_stmt 1               @ ../../Library/StdDriver/src/retarget.c:589:5
	b	.LBB10_1
.Ltmp25:
	.p2align	2
@ %bb.4:
	.loc	2 0 5 is_stmt 0                 @ ../../Library/StdDriver/src/retarget.c:0:5
__arm_cp.10_0:
	.long	1074200600                      @ 0x40070018
.Lcpi_end13:
	.size	__arm_cp.10_0, .Lcpi_end13-__arm_cp.10_0
__arm_cp.10_1:
	.long	1074200576                      @ 0x40070000
.Lcpi_end14:
	.size	__arm_cp.10_1, .Lcpi_end14-__arm_cp.10_1
.Lfunc_end10:
	.size	GetChar, .Lfunc_end10-GetChar
	.cfi_endproc
	.cantunwind
	.fnend
                                        @ -- End function
	.section	.text.ferror,"ax",%progbits
	.hidden	ferror                          @ -- Begin function ferror
	.globl	ferror
	.p2align	1
	.type	ferror,%function
	.code	16                              @ @ferror
	.thumb_func
ferror:
.Lfunc_begin11:
	.loc	2 747 0 is_stmt 1               @ ../../Library/StdDriver/src/retarget.c:747:0
	.fnstart
	.cfi_startproc
@ %bb.0:
	.pad	#4
	sub	sp, #4
	.cfi_def_cfa_offset 4
	str	r0, [sp]
	movs	r0, #0
	mvns	r0, r0
.Ltmp26:
	.loc	2 748 5 prologue_end            @ ../../Library/StdDriver/src/retarget.c:748:5
	add	sp, #4
	bx	lr
.Ltmp27:
.Lfunc_end11:
	.size	ferror, .Lfunc_end11-ferror
	.cfi_endproc
	.cantunwind
	.fnend
                                        @ -- End function
	.section	.text.SendChar_ToUART,"ax",%progbits
	.p2align	2                               @ -- Begin function SendChar_ToUART
	.type	SendChar_ToUART,%function
	.code	16                              @ @SendChar_ToUART
	.thumb_func
SendChar_ToUART:
.Lfunc_begin12:
	.loc	2 444 0                         @ ../../Library/StdDriver/src/retarget.c:444:0
	.fnstart
	.cfi_startproc
@ %bb.0:
	.pad	#4
	sub	sp, #4
	.cfi_def_cfa_offset 4
	str	r0, [sp]
.Ltmp28:
	.loc	2 445 5 prologue_end            @ ../../Library/StdDriver/src/retarget.c:445:5
	b	.LBB12_1
.LBB12_1:                               @ =>This Inner Loop Header: Depth=1
	.loc	2 0 5 is_stmt 0                 @ ../../Library/StdDriver/src/retarget.c:0:5
	ldr	r0, __arm_cp.12_0
	.loc	2 445 23                        @ ../../Library/StdDriver/src/retarget.c:445:23
	ldr	r0, [r0]
	.loc	2 445 5                         @ ../../Library/StdDriver/src/retarget.c:445:5
	lsls	r0, r0, #8
	cmp	r0, #0
	bpl	.LBB12_3
	b	.LBB12_2
.LBB12_2:                               @   in Loop: Header=BB12_1 Depth=1
	b	.LBB12_1
.LBB12_3:
.Ltmp29:
	.loc	2 447 8 is_stmt 1               @ ../../Library/StdDriver/src/retarget.c:447:8
	ldr	r0, [sp]
.Ltmp30:
	.loc	2 447 8 is_stmt 0               @ ../../Library/StdDriver/src/retarget.c:447:8
	cmp	r0, #10
	bne	.LBB12_8
	b	.LBB12_4
.LBB12_4:
	.loc	2 0 8                           @ ../../Library/StdDriver/src/retarget.c:0:8
	ldr	r1, __arm_cp.12_1
	movs	r0, #13
.Ltmp31:
	.loc	2 449 25 is_stmt 1              @ ../../Library/StdDriver/src/retarget.c:449:25
	str	r0, [r1]
	.loc	2 450 9                         @ ../../Library/StdDriver/src/retarget.c:450:9
	b	.LBB12_5
.LBB12_5:                               @ =>This Inner Loop Header: Depth=1
	.loc	2 0 9 is_stmt 0                 @ ../../Library/StdDriver/src/retarget.c:0:9
	ldr	r0, __arm_cp.12_0
	.loc	2 450 27                        @ ../../Library/StdDriver/src/retarget.c:450:27
	ldr	r0, [r0]
	.loc	2 450 9                         @ ../../Library/StdDriver/src/retarget.c:450:9
	lsls	r0, r0, #8
	cmp	r0, #0
	bpl	.LBB12_7
	b	.LBB12_6
.LBB12_6:                               @   in Loop: Header=BB12_5 Depth=1
	b	.LBB12_5
.LBB12_7:
	.loc	2 451 5 is_stmt 1               @ ../../Library/StdDriver/src/retarget.c:451:5
	b	.LBB12_8
.Ltmp32:
.LBB12_8:
	.loc	2 452 23                        @ ../../Library/StdDriver/src/retarget.c:452:23
	ldr	r0, [sp]
	ldr	r1, __arm_cp.12_1
	.loc	2 452 21 is_stmt 0              @ ../../Library/StdDriver/src/retarget.c:452:21
	str	r0, [r1]
	.loc	2 453 1 is_stmt 1               @ ../../Library/StdDriver/src/retarget.c:453:1
	add	sp, #4
	bx	lr
.Ltmp33:
	.p2align	2
@ %bb.9:
	.loc	2 0 1 is_stmt 0                 @ ../../Library/StdDriver/src/retarget.c:0:1
__arm_cp.12_0:
	.long	1074200600                      @ 0x40070018
.Lcpi_end15:
	.size	__arm_cp.12_0, .Lcpi_end15-__arm_cp.12_0
__arm_cp.12_1:
	.long	1074200576                      @ 0x40070000
.Lcpi_end16:
	.size	__arm_cp.12_1, .Lcpi_end16-__arm_cp.12_1
.Lfunc_end12:
	.size	SendChar_ToUART, .Lfunc_end12-SendChar_ToUART
	.cfi_endproc
	.cantunwind
	.fnend
                                        @ -- End function
	.type	.L.str,%object                  @ @.str
	.section	.rodata.str1.1,"aMS",%progbits,1
.L.str:
	.asciz	"In Hard Fault Handler\n"
	.size	.L.str, 23

	.hidden	__stdout                        @ @__stdout
	.type	__stdout,%object
	.section	.bss.__stdout,"aw",%nobits
	.globl	__stdout
	.p2align	2
__stdout:
	.zero	84
	.size	__stdout, 84

	.hidden	__stdin                         @ @__stdin
	.type	__stdin,%object
	.section	.bss.__stdin,"aw",%nobits
	.globl	__stdin
	.p2align	2
__stdin:
	.zero	84
	.size	__stdin, 84

	.type	.L.str.1,%object                @ @.str.1
	.section	.rodata.str1.1,"aMS",%progbits,1
.L.str.1:
	.asciz	"r0  = 0x%x\n"
	.size	.L.str.1, 12

	.type	.L.str.2,%object                @ @.str.2
.L.str.2:
	.asciz	"r1  = 0x%x\n"
	.size	.L.str.2, 12

	.type	.L.str.3,%object                @ @.str.3
.L.str.3:
	.asciz	"r2  = 0x%x\n"
	.size	.L.str.3, 12

	.type	.L.str.4,%object                @ @.str.4
.L.str.4:
	.asciz	"r3  = 0x%x\n"
	.size	.L.str.4, 12

	.type	.L.str.5,%object                @ @.str.5
.L.str.5:
	.asciz	"r12 = 0x%x\n"
	.size	.L.str.5, 12

	.type	.L.str.6,%object                @ @.str.6
.L.str.6:
	.asciz	"lr  = 0x%x\n"
	.size	.L.str.6, 12

	.type	.L.str.7,%object                @ @.str.7
.L.str.7:
	.asciz	"pc  = 0x%x\n"
	.size	.L.str.7, 12

	.type	.L.str.8,%object                @ @.str.8
.L.str.8:
	.asciz	"psr = 0x%x\n"
	.size	.L.str.8, 12

	.section	".note.GNU-stack","",%progbits
	.eabi_attribute	30, 6	@ Tag_ABI_optimization_goals
	.ARM_attribute	16, 1	@ Tag_AV_eba