	.text
	.syntax unified
	.eabi_attribute	67, "2.09"	@ Tag_conformance
	.cpu	cortex-m0
	.eabi_attribute	6, 12	@ Tag_CPU_arch
	.eabi_attribute	7, 77	@ Tag_CPU_arch_profile
	.eabi_attribute	8, 0	@ Tag_ARM_ISA_use
	.eabi_attribute	9, 1	@ Tag_THUMB_ISA_use
	.eabi_attribute	34, 0	@ Tag_CPU_unaligned_access
	.eabi_attribute	17, 1	@ Tag_ABI_PCS_GOT_use
	.eabi_attribute	20, 2	@ Tag_ABI_FP_denormal
	.eabi_attribute	21, 0	@ Tag_ABI_FP_exceptions
	.eabi_attribute	23, 1	@ Tag_ABI_FP_number_model
	.eabi_attribute	24, 1	@ Tag_ABI_align_needed
	.eabi_attribute	25, 1	@ Tag_ABI_align_preserved
	.eabi_attribute	38, 1	@ Tag_ABI_FP_16bit_format
	.eabi_attribute	18, 2	@ Tag_ABI_PCS_wchar_t
	.eabi_attribute	26, 1	@ Tag_ABI_enum_size
	.eabi_attribute	14, 0	@ Tag_ABI_PCS_R9_use
	.file	"Server.c"
	.file	1 "C:\\Keil_v5\\ARM\\ARMCLANG\\Bin\\..\\include" "stdint.h"
	.file	2 "G:\\My Drive\\Projects\\CCMSFlorida\\Application\\KEIL" "../Source/Server.c"
	.file	3 "G:\\My Drive\\Projects\\CCMSFlorida\\Application\\KEIL" "../Header\\EMeter.h"
	.file	4 "G:\\My Drive\\Projects\\CCMSFlorida\\Application\\KEIL" "../Header\\M590.h"
	.file	5 "G:\\My Drive\\Projects\\CCMSFlorida\\Application\\KEIL" "../../Library/CMSIS/Include\\core_cm0.h"
	.section	.text.MakeDataString,"ax",%progbits
	.hidden	MakeDataString                  @ -- Begin function MakeDataString
	.globl	MakeDataString
	.p2align	2
	.type	MakeDataString,%function
	.code	16                              @ @MakeDataString
	.thumb_func
MakeDataString:
.Lfunc_begin0:
	.loc	2 34 0                          @ ../Source/Server.c:34:0
	.fnstart
	.cfi_sections .debug_frame
	.cfi_startproc
@ %bb.0:
	.save	{r4, r5, r6, r7, lr}
	push	{r4, r5, r6, r7, lr}
	.cfi_def_cfa_offset 20
	.cfi_offset lr, -4
	.cfi_offset r7, -8
	.cfi_offset r6, -12
	.cfi_offset r5, -16
	.cfi_offset r4, -20
	.pad	#28
	sub	sp, #28
	.cfi_def_cfa_offset 48
.Ltmp0:
	.loc	2 37 5 prologue_end             @ ../Source/Server.c:37:5
	ldr	r0, __arm_cp.0_0
	ldrb	r0, [r0]
.Ltmp1:
	.loc	2 37 5 is_stmt 0                @ ../Source/Server.c:37:5
	cmp	r0, #3
	blo	.LBB0_2
@ %bb.1:
	.loc	2 0 5                           @ ../Source/Server.c:0:5
	movs	r0, #0
.Ltmp2:
	.loc	2 38 15 is_stmt 1               @ ../Source/Server.c:38:15
	ldr	r1, __arm_cp.0_0
	strb	r0, [r1]
.Ltmp3:
.LBB0_2:
	.loc	2 39 13                         @ ../Source/Server.c:39:13
	ldr	r2, __arm_cp.0_1
	ldrb	r0, [r2]
	adds	r0, r0, #1
	uxtb	r1, r0
.Ltmp4:
	.loc	2 40 17                         @ ../Source/Server.c:40:17
	lsrs	r1, r1, #1
.Ltmp5:
	.loc	2 40 5 is_stmt 0                @ ../Source/Server.c:40:5
	cmp	r1, #126
	bls	.LBB0_4
@ %bb.3:
	.loc	2 0 5                           @ ../Source/Server.c:0:5
	movs	r0, #1
.LBB0_4:
	strb	r0, [r2]
	.loc	2 43 2 is_stmt 1                @ ../Source/Server.c:43:2
	ldr	r4, __arm_cp.0_2
	adds	r0, r4, #5
	movs	r1, #255
	str	r1, [sp, #4]                    @ 4-byte Spill
	adds	r1, #252
	bl	__aeabi_memclr
.Ltmp6:
	ldr	r1, __arm_cp.0_3
	movs	r2, #5
	mov	r0, r4
	bl	__aeabi_memcpy
.Ltmp7:
	.loc	2 44 2                          @ ../Source/Server.c:44:2
	ldr	r1, __arm_cp.0_4
	mov	r0, r4
	bl	strcat
.Ltmp8:
	.loc	2 0 2 is_stmt 0                 @ ../Source/Server.c:0:2
	movs	r5, #44
	.loc	2 45 2 is_stmt 1                @ ../Source/Server.c:45:2
	mov	r0, r5
	bl	InsertChar
.Ltmp9:
	.loc	2 46 50                         @ ../Source/Server.c:46:50
	ldr	r7, __arm_cp.0_5
	.loc	2 46 71 is_stmt 0               @ ../Source/Server.c:46:71
	ldrb	r3, [r7, #6]
	.loc	2 46 50                         @ ../Source/Server.c:46:50
	ldrb	r2, [r7, #5]
	.loc	2 46 91                         @ ../Source/Server.c:46:91
	ldrb	r0, [r7, #7]
	.loc	2 46 2                          @ ../Source/Server.c:46:2
	str	r0, [sp]
	add	r6, sp, #8
	ldr	r1, __arm_cp.0_6
	mov	r0, r6
	bl	__2sprintf
.Ltmp10:
	.loc	2 47 2 is_stmt 1                @ ../Source/Server.c:47:2
	mov	r0, r4
	mov	r1, r6
	bl	strcat
.Ltmp11:
	.loc	2 48 2                          @ ../Source/Server.c:48:2
	mov	r0, r5
	bl	InsertChar
.Ltmp12:
	.loc	2 0 2 is_stmt 0                 @ ../Source/Server.c:0:2
	movs	r4, #0
	.loc	2 49 2 is_stmt 1                @ ../Source/Server.c:49:2
	str	r4, [sp, #24]
	str	r4, [sp, #20]
	str	r4, [sp, #16]
	str	r4, [sp, #12]
	str	r4, [sp, #8]
	.loc	2 50 50                         @ ../Source/Server.c:50:50
	ldrb	r2, [r7, #3]
	.loc	2 50 71 is_stmt 0               @ ../Source/Server.c:50:71
	ldrb	r3, [r7, #2]
	.loc	2 50 93                         @ ../Source/Server.c:50:93
	ldrh	r0, [r7]
	.loc	2 50 2                          @ ../Source/Server.c:50:2
	str	r0, [sp]
	mov	r0, r6
	ldr	r1, __arm_cp.0_6
	bl	__2sprintf
.Ltmp13:
	.loc	2 0 2                           @ ../Source/Server.c:0:2
	ldr	r7, __arm_cp.0_2
	.loc	2 51 2 is_stmt 1                @ ../Source/Server.c:51:2
	mov	r0, r7
	mov	r1, r6
	bl	strcat
.Ltmp14:
	.loc	2 52 2                          @ ../Source/Server.c:52:2
	mov	r0, r5
	bl	InsertChar
.Ltmp15:
	.loc	2 53 2                          @ ../Source/Server.c:53:2
	str	r4, [sp, #24]
	str	r4, [sp, #20]
	str	r4, [sp, #16]
	str	r4, [sp, #12]
	str	r4, [sp, #8]
	.loc	2 54 25                         @ ../Source/Server.c:54:25
	ldr	r0, __arm_cp.0_7
	ldrb	r2, [r0, #1]
	.loc	2 54 2 is_stmt 0                @ ../Source/Server.c:54:2
	ldr	r1, __arm_cp.0_8
	mov	r0, r6
	bl	__2sprintf
.Ltmp16:
	.loc	2 55 2 is_stmt 1                @ ../Source/Server.c:55:2
	mov	r0, r7
	mov	r1, r6
	bl	strcat
.Ltmp17:
	.loc	2 56 2                          @ ../Source/Server.c:56:2
	mov	r0, r5
	bl	InsertChar
.Ltmp18:
	.loc	2 57 2                          @ ../Source/Server.c:57:2
	str	r4, [sp, #24]
	str	r4, [sp, #20]
	str	r4, [sp, #16]
	str	r4, [sp, #12]
	str	r4, [sp, #8]
	.loc	2 58 9                          @ ../Source/Server.c:58:9
	ldr	r0, __arm_cp.0_0
	ldrb	r0, [r0]
	.loc	2 58 2 is_stmt 0                @ ../Source/Server.c:58:2
	cmp	r0, #2
	beq	.LBB0_8
@ %bb.5:
	cmp	r0, #1
	beq	.LBB0_9
@ %bb.6:
	cmp	r0, #0
	beq	.LBB0_7
	b	.LBB0_11
.LBB0_7:
.Ltmp19:
	.loc	2 61 41 is_stmt 1               @ ../Source/Server.c:61:41
	ldr	r7, __arm_cp.0_9
	ldrh	r2, [r7]
	add	r5, sp, #8
	.loc	2 61 4 is_stmt 0                @ ../Source/Server.c:61:4
	ldr	r1, __arm_cp.0_8
	mov	r0, r5
	bl	__2sprintf
.Ltmp20:
	.loc	2 62 4 is_stmt 1                @ ../Source/Server.c:62:4
	ldr	r4, __arm_cp.0_2
	mov	r0, r4
	mov	r1, r5
	bl	strcat
.Ltmp21:
	.loc	2 0 4 is_stmt 0                 @ ../Source/Server.c:0:4
	movs	r6, #44
	.loc	2 63 4 is_stmt 1                @ ../Source/Server.c:63:4
	mov	r0, r6
	bl	InsertChar
.Ltmp22:
	.loc	2 64 40                         @ ../Source/Server.c:64:40
	ldrh	r2, [r7, #2]
	.loc	2 64 4 is_stmt 0                @ ../Source/Server.c:64:4
	mov	r0, r5
	ldr	r1, __arm_cp.0_8
	bl	__2sprintf
.Ltmp23:
	.loc	2 65 4 is_stmt 1                @ ../Source/Server.c:65:4
	mov	r0, r4
	mov	r1, r5
	bl	strcat
.Ltmp24:
	.loc	2 66 4                          @ ../Source/Server.c:66:4
	mov	r0, r6
	bl	InsertChar
.Ltmp25:
	.loc	2 67 40                         @ ../Source/Server.c:67:40
	ldrh	r2, [r7, #4]
	.loc	2 67 4 is_stmt 0                @ ../Source/Server.c:67:4
	mov	r0, r5
	ldr	r1, __arm_cp.0_8
	bl	__2sprintf
.Ltmp26:
	.loc	2 68 4 is_stmt 1                @ ../Source/Server.c:68:4
	mov	r0, r4
	mov	r1, r5
	bl	strcat
.Ltmp27:
	.loc	2 69 4                          @ ../Source/Server.c:69:4
	mov	r0, r6
	bl	InsertChar
.Ltmp28:
	.loc	2 0 4 is_stmt 0                 @ ../Source/Server.c:0:4
	adds	r4, r7, #6
	b	.LBB0_10
.LBB0_8:
	.loc	2 91 41 is_stmt 1               @ ../Source/Server.c:91:41
	ldr	r4, __arm_cp.0_9
	ldrh	r2, [r4, #28]
	add	r5, sp, #8
	.loc	2 91 4 is_stmt 0                @ ../Source/Server.c:91:4
	ldr	r1, __arm_cp.0_8
	mov	r0, r5
	bl	__2sprintf
.Ltmp29:
	.loc	2 92 4 is_stmt 1                @ ../Source/Server.c:92:4
	ldr	r7, __arm_cp.0_2
	mov	r0, r7
	mov	r1, r5
	bl	strcat
.Ltmp30:
	.loc	2 0 4 is_stmt 0                 @ ../Source/Server.c:0:4
	movs	r6, #44
	.loc	2 93 4 is_stmt 1                @ ../Source/Server.c:93:4
	mov	r0, r6
	bl	InsertChar
.Ltmp31:
	.loc	2 94 40                         @ ../Source/Server.c:94:40
	ldrh	r2, [r4, #30]
	.loc	2 94 4 is_stmt 0                @ ../Source/Server.c:94:4
	mov	r0, r5
	ldr	r1, __arm_cp.0_8
	bl	__2sprintf
.Ltmp32:
	.loc	2 95 4 is_stmt 1                @ ../Source/Server.c:95:4
	mov	r0, r7
	mov	r1, r5
	bl	strcat
.Ltmp33:
	.loc	2 96 4                          @ ../Source/Server.c:96:4
	mov	r0, r6
	bl	InsertChar
.Ltmp34:
	.loc	2 97 40                         @ ../Source/Server.c:97:40
	ldrh	r2, [r4, #32]
	.loc	2 97 4 is_stmt 0                @ ../Source/Server.c:97:4
	mov	r0, r5
	ldr	r1, __arm_cp.0_8
	bl	__2sprintf
.Ltmp35:
	.loc	2 98 4 is_stmt 1                @ ../Source/Server.c:98:4
	mov	r0, r7
	mov	r1, r5
	bl	strcat
.Ltmp36:
	.loc	2 99 4                          @ ../Source/Server.c:99:4
	mov	r0, r6
	bl	InsertChar
.Ltmp37:
	.loc	2 0 4 is_stmt 0                 @ ../Source/Server.c:0:4
	adds	r4, #34
	b	.LBB0_10
.LBB0_9:
	.loc	2 76 41 is_stmt 1               @ ../Source/Server.c:76:41
	ldr	r4, __arm_cp.0_9
	ldrh	r2, [r4, #14]
	add	r5, sp, #8
	.loc	2 76 4 is_stmt 0                @ ../Source/Server.c:76:4
	ldr	r1, __arm_cp.0_8
	mov	r0, r5
	bl	__2sprintf
.Ltmp38:
	.loc	2 77 4 is_stmt 1                @ ../Source/Server.c:77:4
	ldr	r7, __arm_cp.0_2
	mov	r0, r7
	mov	r1, r5
	bl	strcat
.Ltmp39:
	.loc	2 0 4 is_stmt 0                 @ ../Source/Server.c:0:4
	movs	r6, #44
	.loc	2 78 4 is_stmt 1                @ ../Source/Server.c:78:4
	mov	r0, r6
	bl	InsertChar
.Ltmp40:
	.loc	2 79 40                         @ ../Source/Server.c:79:40
	ldrh	r2, [r4, #16]
	.loc	2 79 4 is_stmt 0                @ ../Source/Server.c:79:4
	mov	r0, r5
	ldr	r1, __arm_cp.0_8
	bl	__2sprintf
.Ltmp41:
	.loc	2 80 4 is_stmt 1                @ ../Source/Server.c:80:4
	mov	r0, r7
	mov	r1, r5
	bl	strcat
.Ltmp42:
	.loc	2 81 4                          @ ../Source/Server.c:81:4
	mov	r0, r6
	bl	InsertChar
.Ltmp43:
	.loc	2 82 40                         @ ../Source/Server.c:82:40
	ldrh	r2, [r4, #18]
	.loc	2 82 4 is_stmt 0                @ ../Source/Server.c:82:4
	mov	r0, r5
	ldr	r1, __arm_cp.0_8
	bl	__2sprintf
.Ltmp44:
	.loc	2 83 4 is_stmt 1                @ ../Source/Server.c:83:4
	mov	r0, r7
	mov	r1, r5
	bl	strcat
.Ltmp45:
	.loc	2 84 4                          @ ../Source/Server.c:84:4
	mov	r0, r6
	bl	InsertChar
.Ltmp46:
	.loc	2 0 4 is_stmt 0                 @ ../Source/Server.c:0:4
	adds	r4, #20
.LBB0_10:
	ldrh	r2, [r4]
	add	r4, sp, #8
	ldr	r1, __arm_cp.0_8
	mov	r0, r4
	bl	__2sprintf
.Ltmp47:
	ldr	r0, __arm_cp.0_2
	mov	r1, r4
	bl	strcat
.Ltmp48:
	movs	r0, #44
	bl	InsertChar
.Ltmp49:
.LBB0_11:
	.loc	2 108 31 is_stmt 1              @ ../Source/Server.c:108:31
	ldr	r0, __arm_cp.0_9
	ldr	r2, [r0, #52]
	add	r5, sp, #8
	.loc	2 108 2 is_stmt 0               @ ../Source/Server.c:108:2
	ldr	r4, __arm_cp.0_8
	mov	r0, r5
	mov	r1, r4
	bl	__2sprintf
.Ltmp50:
	.loc	2 0 2                           @ ../Source/Server.c:0:2
	ldr	r0, __arm_cp.0_2
	mov	r6, r0
	.loc	2 109 2 is_stmt 1               @ ../Source/Server.c:109:2
	mov	r1, r5
	bl	strcat
.Ltmp51:
	.loc	2 0 2 is_stmt 0                 @ ../Source/Server.c:0:2
	movs	r7, #44
	.loc	2 110 2 is_stmt 1               @ ../Source/Server.c:110:2
	mov	r0, r7
	bl	InsertChar
.Ltmp52:
	.loc	2 112 31                        @ ../Source/Server.c:112:31
	ldr	r0, __arm_cp.0_9
	ldr	r2, [r0, #56]
	.loc	2 112 2 is_stmt 0               @ ../Source/Server.c:112:2
	mov	r0, r5
	mov	r1, r4
	bl	__2sprintf
.Ltmp53:
	.loc	2 113 2 is_stmt 1               @ ../Source/Server.c:113:2
	mov	r0, r6
	mov	r4, r6
	mov	r1, r5
	bl	strcat
.Ltmp54:
	.loc	2 114 2                         @ ../Source/Server.c:114:2
	mov	r0, r7
	bl	InsertChar
.Ltmp55:
	.loc	2 0 2 is_stmt 0                 @ ../Source/Server.c:0:2
	movs	r0, #195
	lsls	r0, r0, #1
	.loc	2 115 25 is_stmt 1              @ ../Source/Server.c:115:25
	ldr	r6, __arm_cp.0_10
	ldrb	r2, [r6, r0]
	.loc	2 115 2 is_stmt 0               @ ../Source/Server.c:115:2
	mov	r0, r5
	ldr	r1, __arm_cp.0_8
	bl	__2sprintf
.Ltmp56:
	.loc	2 116 2 is_stmt 1               @ ../Source/Server.c:116:2
	mov	r0, r4
	mov	r1, r5
	bl	strcat
.Ltmp57:
	.loc	2 117 2                         @ ../Source/Server.c:117:2
	mov	r0, r7
	bl	InsertChar
.Ltmp58:
	.loc	2 0 2 is_stmt 0                 @ ../Source/Server.c:0:2
	ldr	r4, [sp, #4]                    @ 4-byte Reload
	mov	r0, r4
	adds	r0, #136
	.loc	2 118 25 is_stmt 1              @ ../Source/Server.c:118:25
	ldrb	r2, [r6, r0]
	.loc	2 118 2 is_stmt 0               @ ../Source/Server.c:118:2
	mov	r0, r5
	ldr	r1, __arm_cp.0_8
	bl	__2sprintf
.Ltmp59:
	.loc	2 119 2 is_stmt 1               @ ../Source/Server.c:119:2
	ldr	r0, __arm_cp.0_2
	mov	r1, r5
	bl	strcat
.Ltmp60:
	.loc	2 120 2                         @ ../Source/Server.c:120:2
	mov	r0, r7
	bl	InsertChar
.Ltmp61:
	.loc	2 0 2 is_stmt 0                 @ ../Source/Server.c:0:2
	ldr	r0, __arm_cp.0_0
	.loc	2 121 30 is_stmt 1              @ ../Source/Server.c:121:30
	ldrb	r0, [r0]
	.loc	2 121 24 is_stmt 0              @ ../Source/Server.c:121:24
	adr	r1, .LCPI0_11
	ldrb	r0, [r1, r0]
	.loc	2 121 2                         @ ../Source/Server.c:121:2
	bl	InsertChar
.Ltmp62:
	.loc	2 122 2 is_stmt 1               @ ../Source/Server.c:122:2
	mov	r0, r7
	bl	InsertChar
.Ltmp63:
	.loc	2 0 2 is_stmt 0                 @ ../Source/Server.c:0:2
	movs	r0, #41
	lsls	r0, r0, #3
	.loc	2 123 74 is_stmt 1              @ ../Source/Server.c:123:74
	ldrb	r3, [r6, r0]
	mov	r0, r4
	adds	r0, #72
	.loc	2 123 48 is_stmt 0              @ ../Source/Server.c:123:48
	ldrb	r2, [r6, r0]
	.loc	2 123 2                         @ ../Source/Server.c:123:2
	ldr	r1, __arm_cp.0_12
	mov	r0, r5
	bl	__2sprintf
.Ltmp64:
	.loc	2 0 2                           @ ../Source/Server.c:0:2
	ldr	r6, __arm_cp.0_2
	.loc	2 124 2 is_stmt 1               @ ../Source/Server.c:124:2
	mov	r0, r6
	mov	r1, r5
	bl	strcat
.Ltmp65:
	.loc	2 125 2                         @ ../Source/Server.c:125:2
	mov	r0, r7
	bl	InsertChar
.Ltmp66:
	.loc	2 0 2 is_stmt 0                 @ ../Source/Server.c:0:2
	movs	r0, #21
	lsls	r0, r0, #4
	ldr	r1, __arm_cp.0_10
	.loc	2 126 76 is_stmt 1              @ ../Source/Server.c:126:76
	ldrb	r3, [r1, r0]
	adds	r4, #80
	.loc	2 126 49 is_stmt 0              @ ../Source/Server.c:126:49
	ldrb	r2, [r1, r4]
	.loc	2 126 2                         @ ../Source/Server.c:126:2
	mov	r0, r5
	ldr	r1, __arm_cp.0_12
	bl	__2sprintf
.Ltmp67:
	.loc	2 127 2 is_stmt 1               @ ../Source/Server.c:127:2
	mov	r0, r6
	mov	r1, r5
	bl	strcat
.Ltmp68:
	.loc	2 128 2                         @ ../Source/Server.c:128:2
	mov	r0, r7
	bl	InsertChar
.Ltmp69:
	.loc	2 129 20                        @ ../Source/Server.c:129:20
	ldr	r0, __arm_cp.0_1
	ldrb	r2, [r0]
	.loc	2 129 2 is_stmt 0               @ ../Source/Server.c:129:2
	mov	r0, r5
	ldr	r1, __arm_cp.0_8
	bl	__2sprintf
.Ltmp70:
	.loc	2 130 2 is_stmt 1               @ ../Source/Server.c:130:2
	mov	r0, r6
	mov	r1, r5
	bl	strcat
.Ltmp71:
	.loc	2 131 2                         @ ../Source/Server.c:131:2
	mov	r0, r7
	bl	InsertChar
.Ltmp72:
	.loc	2 132 2                         @ ../Source/Server.c:132:2
	mov	r0, r6
	bl	strlen
.Ltmp73:
	adds	r0, r6, r0
	ldr	r1, __arm_cp.0_13
	movs	r2, #10
	bl	__aeabi_memcpy
.Ltmp74:
	.loc	2 0 2 is_stmt 0                 @ ../Source/Server.c:0:2
	ldr	r1, __arm_cp.0_0
	.loc	2 133 14 is_stmt 1              @ ../Source/Server.c:133:14
	ldrb	r0, [r1]
	adds	r0, r0, #1
	strb	r0, [r1]
	.loc	2 134 1                         @ ../Source/Server.c:134:1
	add	sp, #28
	pop	{r4, r5, r6, r7, pc}
.Ltmp75:
	.p2align	2
@ %bb.12:
	.loc	2 0 1 is_stmt 0                 @ ../Source/Server.c:0:1
__arm_cp.0_0:
	.long	currentPhase
.Lcpi_end0:
	.size	__arm_cp.0_0, .Lcpi_end0-__arm_cp.0_0
__arm_cp.0_1:
	.long	PacketCount
.Lcpi_end1:
	.size	__arm_cp.0_1, .Lcpi_end1-__arm_cp.0_1
__arm_cp.0_2:
	.long	dataBuffer
.Lcpi_end2:
	.size	__arm_cp.0_2, .Lcpi_end2-__arm_cp.0_2
__arm_cp.0_3:
	.long	.L.str
.Lcpi_end3:
	.size	__arm_cp.0_3, .Lcpi_end3-__arm_cp.0_3
__arm_cp.0_4:
	.long	NetWork
.Lcpi_end4:
	.size	__arm_cp.0_4, .Lcpi_end4-__arm_cp.0_4
__arm_cp.0_5:
	.long	CurrentDateTime
.Lcpi_end5:
	.size	__arm_cp.0_5, .Lcpi_end5-__arm_cp.0_5
__arm_cp.0_6:
	.long	.L.str.1
.Lcpi_end6:
	.size	__arm_cp.0_6, .Lcpi_end6-__arm_cp.0_6
__arm_cp.0_7:
	.long	GSM
.Lcpi_end7:
	.size	__arm_cp.0_7, .Lcpi_end7-__arm_cp.0_7
__arm_cp.0_8:
	.long	.L.str.2
.Lcpi_end8:
	.size	__arm_cp.0_8, .Lcpi_end8-__arm_cp.0_8
__arm_cp.0_9:
	.long	MeterParam
.Lcpi_end9:
	.size	__arm_cp.0_9, .Lcpi_end9-__arm_cp.0_9
__arm_cp.0_10:
	.long	CCMS
.Lcpi_end10:
	.size	__arm_cp.0_10, .Lcpi_end10-__arm_cp.0_10
.LCPI0_11:
.L__const.MakeDataString.phase:
	.asciz	"RYB"
__arm_cp.0_12:
	.long	.L.str.3
.Lcpi_end11:
	.size	__arm_cp.0_12, .Lcpi_end11-__arm_cp.0_12
__arm_cp.0_13:
	.long	.L.str.4
.Lcpi_end12:
	.size	__arm_cp.0_13, .Lcpi_end12-__arm_cp.0_13
.Lfunc_end0:
	.size	MakeDataString, .Lfunc_end0-MakeDataString
	.cfi_endproc
	.cantunwind
	.fnend
                                        @ -- End function
	.section	.text.InsertChar,"ax",%progbits
	.p2align	2                               @ -- Begin function InsertChar
	.type	InsertChar,%function
	.code	16                              @ @InsertChar
	.thumb_func
InsertChar:
.Lfunc_begin1:
	.file	6 "G:\\My Drive\\Projects\\CCMSFlorida\\Application\\KEIL" "../Header\\CCMS.h"
	.loc	6 105 0 is_stmt 1               @ ../Header\CCMS.h:105:0
	.fnstart
	.cfi_startproc
@ %bb.0:
	@DEBUG_VALUE: InsertChar:value <- $r0
	.save	{r4, r5, r7, lr}
	push	{r4, r5, r7, lr}
	.cfi_def_cfa_offset 16
	.cfi_offset lr, -4
	.cfi_offset r7, -8
	.cfi_offset r5, -12
	.cfi_offset r4, -16
	mov	r4, r0
.Ltmp76:
	@DEBUG_VALUE: InsertChar:value <- $r4
	.loc	6 107 7 prologue_end            @ ../Header\CCMS.h:107:7
	ldr	r5, __arm_cp.1_0
.Ltmp77:
	@DEBUG_VALUE: InsertChar:s <- $r5
	mov	r0, r5
	bl	strlen
.Ltmp78:
	@DEBUG_VALUE: InsertChar:i <- $r0
	.loc	6 108 9                         @ ../Header\CCMS.h:108:9
	strb	r4, [r5, r0]
	.loc	6 108 5 is_stmt 0               @ ../Header\CCMS.h:108:5
	adds	r0, r5, r0
.Ltmp79:
	.loc	6 0 5                           @ ../Header\CCMS.h:0:5
	movs	r1, #0
	.loc	6 109 11 is_stmt 1              @ ../Header\CCMS.h:109:11
	strb	r1, [r0, #1]
	.loc	6 110 1                         @ ../Header\CCMS.h:110:1
	pop	{r4, r5, r7, pc}
.Ltmp80:
	.p2align	2
@ %bb.1:
	.loc	6 0 1 is_stmt 0                 @ ../Header\CCMS.h:0:1
__arm_cp.1_0:
	.long	dataBuffer
.Lcpi_end13:
	.size	__arm_cp.1_0, .Lcpi_end13-__arm_cp.1_0
.Lfunc_end1:
	.size	InsertChar, .Lfunc_end1-InsertChar
	.cfi_endproc
	.cantunwind
	.fnend
                                        @ -- End function
	.section	.text.MakeBLESystemString,"ax",%progbits
	.hidden	MakeBLESystemString             @ -- Begin function MakeBLESystemString
	.globl	MakeBLESystemString
	.p2align	2
	.type	MakeBLESystemString,%function
	.code	16                              @ @MakeBLESystemString
	.thumb_func
MakeBLESystemString:
.Lfunc_begin2:
	.loc	2 137 0 is_stmt 1               @ ../Source/Server.c:137:0
	.fnstart
	.cfi_startproc
@ %bb.0:
	.save	{r4, r5, r6, r7, lr}
	push	{r4, r5, r6, r7, lr}
	.cfi_def_cfa_offset 20
	.cfi_offset lr, -4
	.cfi_offset r7, -8
	.cfi_offset r6, -12
	.cfi_offset r5, -16
	.cfi_offset r4, -20
	.pad	#68
	sub	sp, #68
	.cfi_def_cfa_offset 88
	movs	r0, #1
	lsls	r1, r0, #9
.Ltmp81:
	.loc	2 139 2 prologue_end            @ ../Source/Server.c:139:2
	ldr	r4, __arm_cp.2_0
	mov	r0, r4
	bl	__aeabi_memclr4
.Ltmp82:
	.loc	2 0 2 is_stmt 0                 @ ../Source/Server.c:0:2
	add	r5, sp, #16
	.loc	2 141 2 is_stmt 1               @ ../Source/Server.c:141:2
	adr	r1, .LCPI2_1
	ldr	r2, __arm_cp.2_2
	mov	r0, r5
	bl	__2sprintf
.Ltmp83:
	.loc	2 142 2                         @ ../Source/Server.c:142:2
	mov	r0, r4
	mov	r1, r5
	bl	strcat
.Ltmp84:
	.loc	2 0 2 is_stmt 0                 @ ../Source/Server.c:0:2
	movs	r1, #62
.Ltmp85:
	.loc	2 144 17 is_stmt 1              @ ../Source/Server.c:144:17
	ldr	r0, __arm_cp.2_3
	ldrb	r1, [r0, r1]
.Ltmp86:
	.loc	2 144 5 is_stmt 0               @ ../Source/Server.c:144:5
	cmp	r1, #0
	beq	.LBB2_3
@ %bb.1:
	.loc	2 0 5                           @ ../Source/Server.c:0:5
	movs	r1, #63
.Ltmp87:
	.loc	2 148 17 is_stmt 1              @ ../Source/Server.c:148:17
	ldrb	r5, [r0, r1]
	.loc	2 0 0 is_stmt 0                 @ ../Source/Server.c:0:0
	mov	r0, r4
	bl	strlen
.Ltmp88:
	adds	r0, r4, r0
.Ltmp89:
	.loc	2 148 6                         @ ../Source/Server.c:148:6
	cmp	r5, #1
	bne	.LBB2_4
@ %bb.2:
.Ltmp90:
	.loc	2 149 4 is_stmt 1               @ ../Source/Server.c:149:4
	ldr	r1, __arm_cp.2_5
	movs	r2, #24
	b	.LBB2_5
.Ltmp91:
.LBB2_3:
	.loc	2 145 3                         @ ../Source/Server.c:145:3
	mov	r0, r4
	bl	strlen
.Ltmp92:
	adds	r0, r4, r0
	ldr	r1, __arm_cp.2_6
	movs	r2, #20
	b	.LBB2_5
.LBB2_4:
.Ltmp93:
	.loc	2 151 4                         @ ../Source/Server.c:151:4
	ldr	r1, __arm_cp.2_4
	movs	r2, #26
.Ltmp94:
.LBB2_5:
	.loc	2 0 0 is_stmt 0                 @ ../Source/Server.c:0:0
	bl	__aeabi_memcpy
.Ltmp95:
	.loc	2 153 5 is_stmt 1               @ ../Source/Server.c:153:5
	ldr	r0, __arm_cp.2_7
	ldrb	r5, [r0]
	.loc	2 0 0 is_stmt 0                 @ ../Source/Server.c:0:0
	mov	r0, r4
	bl	strlen
.Ltmp96:
	adds	r0, r4, r0
.Ltmp97:
	.loc	2 153 5                         @ ../Source/Server.c:153:5
	cmp	r5, #0
	beq	.LBB2_7
@ %bb.6:
	.loc	2 0 5                           @ ../Source/Server.c:0:5
	movs	r1, #0
.Ltmp98:
	.loc	2 155 3 is_stmt 1               @ ../Source/Server.c:155:3
	strb	r1, [r0, #7]
	movs	r1, #10
	strb	r1, [r0, #6]
	movs	r1, #107
	strb	r1, [r0, #5]
	movs	r1, #79
	strb	r1, [r0, #4]
	movs	r1, #32
	strb	r1, [r0, #3]
	movs	r1, #67
	strb	r1, [r0, #2]
	movs	r1, #84
	strb	r1, [r0, #1]
	movs	r1, #82
	strb	r1, [r0]
	ldr	r1, __arm_cp.2_8
	b	.LBB2_8
.Ltmp99:
.LBB2_7:
	.loc	2 162 3                         @ ../Source/Server.c:162:3
	ldr	r1, __arm_cp.2_9
	movs	r2, #9
	bl	__aeabi_memcpy
.Ltmp100:
	.loc	2 0 3 is_stmt 0                 @ ../Source/Server.c:0:3
	ldr	r1, __arm_cp.2_10
.Ltmp101:
.LBB2_8:
	adds	r0, r1, #7
	adds	r5, r1, #6
	adds	r6, r1, #5
	adds	r2, r1, #2
	adds	r7, r1, #3
	ldrb	r3, [r2]
	ldrb	r2, [r7]
	ldrh	r1, [r1]
	ldrb	r6, [r6]
	ldrb	r5, [r5]
	ldrb	r0, [r0]
	str	r1, [sp]
	str	r6, [sp, #4]
	str	r5, [sp, #8]
	str	r0, [sp, #12]
	add	r0, sp, #16
	adr	r1, .LCPI2_11
	bl	__2sprintf
.Ltmp102:
	.loc	2 168 5 is_stmt 1               @ ../Source/Server.c:168:5
	ldr	r0, __arm_cp.2_12
	ldrb	r5, [r0]
	.loc	2 0 0 is_stmt 0                 @ ../Source/Server.c:0:0
	mov	r0, r4
	bl	strlen
.Ltmp103:
	adds	r0, r4, r0
.Ltmp104:
	.loc	2 168 5                         @ ../Source/Server.c:168:5
	cmp	r5, #0
	beq	.LBB2_10
@ %bb.9:
.Ltmp105:
	.loc	2 169 3 is_stmt 1               @ ../Source/Server.c:169:3
	ldr	r1, __arm_cp.2_13
	movs	r2, #10
	b	.LBB2_11
.LBB2_10:
	.loc	2 171 3                         @ ../Source/Server.c:171:3
	ldr	r1, __arm_cp.2_14
	movs	r2, #14
.LBB2_11:
	.loc	2 0 0 is_stmt 0                 @ ../Source/Server.c:0:0
	bl	__aeabi_memcpy
.Ltmp106:
	add	r1, sp, #16
.Ltmp107:
	.loc	2 173 2 is_stmt 1               @ ../Source/Server.c:173:2
	mov	r0, r4
	bl	strcat
.Ltmp108:
	.loc	2 176 9                         @ ../Source/Server.c:176:9
	ldr	r6, __arm_cp.2_15
	ldrb	r5, [r6]
	.loc	2 0 0 is_stmt 0                 @ ../Source/Server.c:0:0
	bl	strlen
.Ltmp109:
	adds	r0, r4, r0
.Ltmp110:
	.loc	2 176 5                         @ ../Source/Server.c:176:5
	cmp	r5, #2
	blo	.LBB2_13
@ %bb.12:
.Ltmp111:
	.loc	2 177 3 is_stmt 1               @ ../Source/Server.c:177:3
	ldr	r1, __arm_cp.2_17
	movs	r2, #14
	b	.LBB2_14
.LBB2_13:
	.loc	2 179 3                         @ ../Source/Server.c:179:3
	ldr	r1, __arm_cp.2_16
	movs	r2, #18
.LBB2_14:
	.loc	2 0 0 is_stmt 0                 @ ../Source/Server.c:0:0
	bl	__aeabi_memcpy
.Ltmp112:
	.loc	2 182 29 is_stmt 1              @ ../Source/Server.c:182:29
	ldrb	r2, [r6, #1]
	add	r5, sp, #16
	.loc	2 182 2 is_stmt 0               @ ../Source/Server.c:182:2
	adr	r1, .LCPI2_18
	mov	r0, r5
	bl	__2sprintf
.Ltmp113:
	.loc	2 183 2 is_stmt 1               @ ../Source/Server.c:183:2
	mov	r0, r4
	mov	r1, r5
	bl	strcat
.Ltmp114:
	.loc	2 185 9                         @ ../Source/Server.c:185:9
	ldrb	r5, [r6]
	.loc	2 0 0 is_stmt 0                 @ ../Source/Server.c:0:0
	mov	r0, r4
	bl	strlen
.Ltmp115:
	adds	r0, r4, r0
.Ltmp116:
	.loc	2 185 5                         @ ../Source/Server.c:185:5
	cmp	r5, #4
	blo	.LBB2_16
@ %bb.15:
.Ltmp117:
	.loc	2 186 3 is_stmt 1               @ ../Source/Server.c:186:3
	ldr	r1, __arm_cp.2_20
	movs	r2, #13
	b	.LBB2_17
.LBB2_16:
	.loc	2 188 3                         @ ../Source/Server.c:188:3
	ldr	r1, __arm_cp.2_19
	movs	r2, #17
.LBB2_17:
	.loc	2 0 0 is_stmt 0                 @ ../Source/Server.c:0:0
	bl	__aeabi_memcpy
.Ltmp118:
	mov	r0, r4
	bl	strlen
.Ltmp119:
	adds	r0, r4, r0
.Ltmp120:
	.loc	2 190 5 is_stmt 1               @ ../Source/Server.c:190:5
	cmp	r5, #5
	blo	.LBB2_19
@ %bb.18:
.Ltmp121:
	.loc	2 191 3                         @ ../Source/Server.c:191:3
	ldr	r1, __arm_cp.2_22
	movs	r2, #18
	b	.LBB2_20
.LBB2_19:
	.loc	2 193 3                         @ ../Source/Server.c:193:3
	ldr	r1, __arm_cp.2_21
	movs	r2, #22
.LBB2_20:
	.loc	2 0 0 is_stmt 0                 @ ../Source/Server.c:0:0
	bl	__aeabi_memcpy
.Ltmp122:
	movs	r0, #195
	lsls	r0, r0, #1
.Ltmp123:
	.loc	2 195 10 is_stmt 1              @ ../Source/Server.c:195:10
	ldr	r6, __arm_cp.2_23
	ldrb	r5, [r6, r0]
	.loc	2 0 0 is_stmt 0                 @ ../Source/Server.c:0:0
	mov	r0, r4
	bl	strlen
.Ltmp124:
	adds	r0, r4, r0
.Ltmp125:
	.loc	2 195 5                         @ ../Source/Server.c:195:5
	lsls	r1, r5, #31
	bne	.LBB2_22
@ %bb.21:
.Ltmp126:
	.loc	2 198 3 is_stmt 1               @ ../Source/Server.c:198:3
	ldr	r1, __arm_cp.2_25
	movs	r2, #11
	bl	__aeabi_memcpy
.Ltmp127:
	.loc	2 0 3 is_stmt 0                 @ ../Source/Server.c:0:3
	b	.LBB2_23
.LBB2_22:
	.loc	2 196 3 is_stmt 1               @ ../Source/Server.c:196:3
	ldr	r1, __arm_cp.2_24
	movs	r2, #10
	bl	__aeabi_memcpy
.Ltmp128:
.LBB2_23:
	.loc	2 0 3 is_stmt 0                 @ ../Source/Server.c:0:3
	movs	r0, #255
	adds	r0, #136
	.loc	2 200 74 is_stmt 1              @ ../Source/Server.c:200:74
	ldrb	r3, [r6, r0]
	add	r4, sp, #16
	.loc	2 200 2 is_stmt 0               @ ../Source/Server.c:200:2
	adr	r1, .LCPI2_26
	mov	r0, r4
	mov	r2, r5
	bl	__2sprintf
.Ltmp129:
	.loc	2 201 2 is_stmt 1               @ ../Source/Server.c:201:2
	ldr	r0, __arm_cp.2_0
	mov	r1, r4
	bl	strcat
.Ltmp130:
	.loc	2 203 1                         @ ../Source/Server.c:203:1
	add	sp, #68
	pop	{r4, r5, r6, r7, pc}
.Ltmp131:
	.p2align	2
@ %bb.24:
	.loc	2 0 1 is_stmt 0                 @ ../Source/Server.c:0:1
__arm_cp.2_0:
	.long	dataBuffer
.Lcpi_end14:
	.size	__arm_cp.2_0, .Lcpi_end14-__arm_cp.2_0
.LCPI2_1:
.L.str.5:
	.asciz	"Ver: %s\n\000\000\000"
__arm_cp.2_2:
	.long	.L.str.4
.Lcpi_end15:
	.size	__arm_cp.2_2, .Lcpi_end15-__arm_cp.2_2
__arm_cp.2_3:
	.long	MeterParam
.Lcpi_end16:
	.size	__arm_cp.2_3, .Lcpi_end16-__arm_cp.2_3
__arm_cp.2_4:
	.long	.L.str.8
.Lcpi_end17:
	.size	__arm_cp.2_4, .Lcpi_end17-__arm_cp.2_4
__arm_cp.2_5:
	.long	.L.str.7
.Lcpi_end18:
	.size	__arm_cp.2_5, .Lcpi_end18-__arm_cp.2_5
__arm_cp.2_6:
	.long	.L.str.6
.Lcpi_end19:
	.size	__arm_cp.2_6, .Lcpi_end19-__arm_cp.2_6
__arm_cp.2_7:
	.long	IsRTC
.Lcpi_end20:
	.size	__arm_cp.2_7, .Lcpi_end20-__arm_cp.2_7
__arm_cp.2_8:
	.long	RTCDateTime
.Lcpi_end21:
	.size	__arm_cp.2_8, .Lcpi_end21-__arm_cp.2_8
__arm_cp.2_9:
	.long	.L.str.11
.Lcpi_end22:
	.size	__arm_cp.2_9, .Lcpi_end22-__arm_cp.2_9
__arm_cp.2_10:
	.long	CurrentDateTime
.Lcpi_end23:
	.size	__arm_cp.2_10, .Lcpi_end23-__arm_cp.2_10
.LCPI2_11:
.L.str.10:
	.asciz	"Date: %02d/%02d/%02d\nTime: %02d:%02d:%02d\n\000"
__arm_cp.2_12:
	.long	IsTimeSet
.Lcpi_end24:
	.size	__arm_cp.2_12, .Lcpi_end24-__arm_cp.2_12
__arm_cp.2_13:
	.long	.L.str.12
.Lcpi_end25:
	.size	__arm_cp.2_13, .Lcpi_end25-__arm_cp.2_13
__arm_cp.2_14:
	.long	.L.str.13
.Lcpi_end26:
	.size	__arm_cp.2_14, .Lcpi_end26-__arm_cp.2_14
__arm_cp.2_15:
	.long	GSM
.Lcpi_end27:
	.size	__arm_cp.2_15, .Lcpi_end27-__arm_cp.2_15
__arm_cp.2_16:
	.long	.L.str.15
.Lcpi_end28:
	.size	__arm_cp.2_16, .Lcpi_end28-__arm_cp.2_16
__arm_cp.2_17:
	.long	.L.str.14
.Lcpi_end29:
	.size	__arm_cp.2_17, .Lcpi_end29-__arm_cp.2_17
.LCPI2_18:
.L.str.16:
	.asciz	"SIG: %d\n\000\000\000"
__arm_cp.2_19:
	.long	.L.str.18
.Lcpi_end30:
	.size	__arm_cp.2_19, .Lcpi_end30-__arm_cp.2_19
__arm_cp.2_20:
	.long	.L.str.17
.Lcpi_end31:
	.size	__arm_cp.2_20, .Lcpi_end31-__arm_cp.2_20
__arm_cp.2_21:
	.long	.L.str.20
.Lcpi_end32:
	.size	__arm_cp.2_21, .Lcpi_end32-__arm_cp.2_21
__arm_cp.2_22:
	.long	.L.str.19
.Lcpi_end33:
	.size	__arm_cp.2_22, .Lcpi_end33-__arm_cp.2_22
__arm_cp.2_23:
	.long	CCMS
.Lcpi_end34:
	.size	__arm_cp.2_23, .Lcpi_end34-__arm_cp.2_23
__arm_cp.2_24:
	.long	.L.str.21
.Lcpi_end35:
	.size	__arm_cp.2_24, .Lcpi_end35-__arm_cp.2_24
__arm_cp.2_25:
	.long	.L.str.22
.Lcpi_end36:
	.size	__arm_cp.2_25, .Lcpi_end36-__arm_cp.2_25
.LCPI2_26:
.L.str.23:
	.asciz	"Stat Byte : %03d\nControl Byte: %03d\n\000\000\000"
.Lfunc_end2:
	.size	MakeBLESystemString, .Lfunc_end2-MakeBLESystemString
	.cfi_endproc
	.cantunwind
	.fnend
                                        @ -- End function
	.section	.text.ProcessServer,"ax",%progbits
	.hidden	ProcessServer                   @ -- Begin function ProcessServer
	.globl	ProcessServer
	.p2align	2
	.type	ProcessServer,%function
	.code	16                              @ @ProcessServer
	.thumb_func
ProcessServer:
.Lfunc_begin3:
	.loc	2 207 0 is_stmt 1               @ ../Source/Server.c:207:0
	.fnstart
	.cfi_startproc
@ %bb.0:
	.save	{r4, r5, r7, lr}
	push	{r4, r5, r7, lr}
	.cfi_def_cfa_offset 16
	.cfi_offset lr, -4
	.cfi_offset r7, -8
	.cfi_offset r5, -12
	.cfi_offset r4, -16
.Ltmp132:
	.loc	2 209 5 prologue_end            @ ../Source/Server.c:209:5
	ldr	r4, __arm_cp.3_0
	ldrb	r0, [r4]
.Ltmp133:
	.loc	2 209 5 is_stmt 0               @ ../Source/Server.c:209:5
	cmp	r0, #0
	beq	.LBB3_2
@ %bb.1:
.Ltmp134:
	.loc	2 211 3 is_stmt 1               @ ../Source/Server.c:211:3
	bl	DecodeServerData
.Ltmp135:
	.loc	2 0 3 is_stmt 0                 @ ../Source/Server.c:0:3
	movs	r0, #0
	.loc	2 212 15 is_stmt 1              @ ../Source/Server.c:212:15
	strb	r0, [r4]
.Ltmp136:
.LBB3_2:
	.loc	2 214 5                         @ ../Source/Server.c:214:5
	ldr	r5, __arm_cp.3_2
	ldrh	r0, [r5]
.Ltmp137:
	.loc	2 214 5 is_stmt 0               @ ../Source/Server.c:214:5
	cmp	r0, #0
	beq	.LBB3_5
@ %bb.3:
	.loc	2 0 5                           @ ../Source/Server.c:0:5
	ldr	r0, __arm_cp.3_1
	ldrb	r0, [r0]
	.loc	2 214 5                         @ ../Source/Server.c:214:5
	cmp	r0, #5
	bne	.LBB3_5
@ %bb.4:
.Ltmp138:
	.loc	2 219 4 is_stmt 1               @ ../Source/Server.c:219:4
	bl	MakeDataString
.Ltmp139:
	.loc	2 221 4                         @ ../Source/Server.c:221:4
	ldr	r0, __arm_cp.3_3
	movs	r4, #0
	mov	r1, r4
	bl	SendDataToServer
.Ltmp140:
	.loc	2 222 21                        @ ../Source/Server.c:222:21
	ldr	r0, __arm_cp.3_4
	strh	r4, [r0]
	.loc	2 223 15                        @ ../Source/Server.c:223:15
	strh	r4, [r5]
.Ltmp141:
.LBB3_5:
	.loc	2 226 1                         @ ../Source/Server.c:226:1
	pop	{r4, r5, r7, pc}
.Ltmp142:
	.p2align	2
@ %bb.6:
	.loc	2 0 1 is_stmt 0                 @ ../Source/Server.c:0:1
__arm_cp.3_0:
	.long	IsServerData
.Lcpi_end37:
	.size	__arm_cp.3_0, .Lcpi_end37-__arm_cp.3_0
__arm_cp.3_1:
	.long	GSM
.Lcpi_end38:
	.size	__arm_cp.3_1, .Lcpi_end38-__arm_cp.3_1
__arm_cp.3_2:
	.long	IsDataReady
.Lcpi_end39:
	.size	__arm_cp.3_2, .Lcpi_end39-__arm_cp.3_2
__arm_cp.3_3:
	.long	dataBuffer
.Lcpi_end40:
	.size	__arm_cp.3_3, .Lcpi_end40-__arm_cp.3_3
__arm_cp.3_4:
	.long	ServerHangTimeOut
.Lcpi_end41:
	.size	__arm_cp.3_4, .Lcpi_end41-__arm_cp.3_4
.Lfunc_end3:
	.size	ProcessServer, .Lfunc_end3-ProcessServer
	.cfi_endproc
	.cantunwind
	.fnend
                                        @ -- End function
	.section	.text.DecodeServerData,"ax",%progbits
	.hidden	DecodeServerData                @ -- Begin function DecodeServerData
	.globl	DecodeServerData
	.p2align	2
	.type	DecodeServerData,%function
	.code	16                              @ @DecodeServerData
	.thumb_func
DecodeServerData:
.Lfunc_begin4:
	.loc	2 237 0 is_stmt 1               @ ../Source/Server.c:237:0
	.fnstart
	.cfi_startproc
@ %bb.0:
	.save	{r4, r5, r6, r7, lr}
	push	{r4, r5, r6, r7, lr}
	.cfi_def_cfa_offset 20
	.cfi_offset lr, -4
	.cfi_offset r7, -8
	.cfi_offset r6, -12
	.cfi_offset r5, -16
	.cfi_offset r4, -20
	.pad	#4
	sub	sp, #4
	.cfi_def_cfa_offset 24
.Ltmp143:
	.loc	2 242 6 prologue_end            @ ../Source/Server.c:242:6
	ldr	r0, __arm_cp.4_0
	ldrb	r0, [r0]
.Ltmp144:
	.loc	2 242 5 is_stmt 0               @ ../Source/Server.c:242:5
	cmp	r0, #0
	beq	.LBB4_12
@ %bb.1:
.Ltmp145:
	.loc	2 245 5 is_stmt 1               @ ../Source/Server.c:245:5
	ldr	r0, __arm_cp.4_1
	adr	r1, .LCPI4_2
	bl	strstr
.Ltmp146:
	.loc	2 245 5 is_stmt 0               @ ../Source/Server.c:245:5
	cmp	r0, #0
	beq	.LBB4_3
@ %bb.2:
.Ltmp147:
	.loc	2 247 3 is_stmt 1               @ ../Source/Server.c:247:3
	bl	LatchON
.Ltmp148:
	.loc	2 0 3 is_stmt 0                 @ ../Source/Server.c:0:3
	movs	r0, #255
	adds	r0, #136
	.loc	2 248 20 is_stmt 1              @ ../Source/Server.c:248:20
	ldr	r1, __arm_cp.4_3
	ldrb	r2, [r1, r0]
	movs	r3, #4
	orrs	r2, r3
	strb	r2, [r1, r0]
	movs	r0, #195
	lsls	r0, r0, #1
	.loc	2 249 18                        @ ../Source/Server.c:249:18
	ldrb	r2, [r1, r0]
	orrs	r2, r3
	strb	r2, [r1, r0]
.Ltmp149:
	.loc	2 421 5                         @ ../Source/Server.c:421:5
	add	sp, #4
	pop	{r4, r5, r6, r7, pc}
.LBB4_3:
.Ltmp150:
	.loc	2 255 5                         @ ../Source/Server.c:255:5
	ldr	r0, __arm_cp.4_1
	adr	r1, .LCPI4_4
	bl	strstr
.Ltmp151:
	.loc	2 255 5 is_stmt 0               @ ../Source/Server.c:255:5
	cmp	r0, #0
	beq	.LBB4_5
@ %bb.4:
	.loc	2 0 5                           @ ../Source/Server.c:0:5
	movs	r0, #255
	adds	r0, #136
.Ltmp152:
	.loc	2 258 20 is_stmt 1              @ ../Source/Server.c:258:20
	ldr	r1, __arm_cp.4_3
	ldrb	r2, [r1, r0]
	movs	r3, #4
	orrs	r3, r2
	strb	r3, [r1, r0]
	movs	r0, #195
	lsls	r0, r0, #1
	.loc	2 259 18                        @ ../Source/Server.c:259:18
	ldrb	r2, [r1, r0]
	movs	r3, #251
	ands	r3, r2
	strb	r3, [r1, r0]
	.loc	2 261 3                         @ ../Source/Server.c:261:3
	bl	LatchOff
.Ltmp153:
	.loc	2 421 5                         @ ../Source/Server.c:421:5
	add	sp, #4
	pop	{r4, r5, r6, r7, pc}
.LBB4_5:
.Ltmp154:
	.loc	2 266 5                         @ ../Source/Server.c:266:5
	ldr	r0, __arm_cp.4_1
	adr	r1, .LCPI4_5
	bl	strstr
.Ltmp155:
	.loc	2 266 5 is_stmt 0               @ ../Source/Server.c:266:5
	cmp	r0, #0
	beq	.LBB4_9
@ %bb.6:
.Ltmp156:
	@DEBUG_VALUE: DecodeServerData:fn <- [DW_OP_plus_uconst 2, DW_OP_stack_value] undef
	.loc	2 270 8 is_stmt 1               @ ../Source/Server.c:270:8
	ldr	r0, __arm_cp.4_1
	movs	r1, #44
	bl	strchr
.Ltmp157:
	@DEBUG_VALUE: DecodeServerData:ls <- $r0
	.loc	2 271 6                         @ ../Source/Server.c:271:6
	cmp	r0, #0
	beq	.LBB4_9
.Ltmp158:
@ %bb.7:
	@DEBUG_VALUE: DecodeServerData:ls <- $r0
	.loc	2 0 0 is_stmt 0                 @ ../Source/Server.c:0:0
	mov	r4, r0
.Ltmp159:
	@DEBUG_VALUE: DecodeServerData:ls <- $r4
	.loc	2 268 8 is_stmt 1               @ ../Source/Server.c:268:8
	ldr	r0, __arm_cp.4_1
	adr	r1, .LCPI4_6
	bl	strstr
.Ltmp160:
	@DEBUG_VALUE: DecodeServerData:fn <- $r0
	.loc	2 0 8 is_stmt 0                 @ ../Source/Server.c:0:8
	movs	r1, #0
.Ltmp161:
	.loc	2 273 10 is_stmt 1              @ ../Source/Server.c:273:10
	strb	r1, [r4]
.Ltmp162:
	.loc	2 269 5                         @ ../Source/Server.c:269:5
	adds	r0, r0, #2
.Ltmp163:
	@DEBUG_VALUE: DecodeServerData:fn <- $r0
	.loc	2 274 8                         @ ../Source/Server.c:274:8
	bl	atoi
.Ltmp164:
	@DEBUG_VALUE: DecodeServerData:n <- [DW_OP_LLVM_convert 32 7, DW_OP_LLVM_convert 8 7, DW_OP_stack_value] $r0
	.loc	2 275 8                         @ ../Source/Server.c:275:8
	uxtb	r0, r0
.Ltmp165:
	.loc	2 275 13 is_stmt 0              @ ../Source/Server.c:275:13
	subs	r1, r0, #1
	cmp	r1, #239
	bhi	.LBB4_9
.Ltmp166:
@ %bb.8:
	@DEBUG_VALUE: DecodeServerData:ls <- $r4
	.loc	2 0 13                          @ ../Source/Server.c:0:13
	movs	r1, #97
	lsls	r1, r1, #2
.Ltmp167:
	.loc	2 277 19 is_stmt 1              @ ../Source/Server.c:277:19
	ldr	r2, __arm_cp.4_3
	strh	r0, [r2, r1]
	.loc	2 278 5                         @ ../Source/Server.c:278:5
	bl	UpdateConfigInFlash
.Ltmp168:
.LBB4_9:
	.loc	2 284 6                         @ ../Source/Server.c:284:6
	ldr	r0, __arm_cp.4_1
	adr	r1, .LCPI4_7
	bl	strstr
.Ltmp169:
	.loc	2 284 36 is_stmt 0              @ ../Source/Server.c:284:36
	cmp	r0, #0
	bne	.LBB4_11
@ %bb.10:
	.loc	2 284 40                        @ ../Source/Server.c:284:40
	ldr	r0, __arm_cp.4_1
	adr	r1, .LCPI4_8
	bl	strstr
.Ltmp170:
	.loc	2 284 5                         @ ../Source/Server.c:284:5
	cmp	r0, #0
	beq	.LBB4_14
.LBB4_11:
	.loc	2 0 5                           @ ../Source/Server.c:0:5
	movs	r1, #255
	adds	r1, #136
.Ltmp171:
	.loc	2 287 11 is_stmt 1              @ ../Source/Server.c:287:11
	ldr	r0, __arm_cp.4_3
	ldrb	r1, [r0, r1]
.Ltmp172:
	.loc	2 287 6 is_stmt 0               @ ../Source/Server.c:287:6
	lsls	r1, r1, #29
	bmi	.LBB4_13
.Ltmp173:
.LBB4_12:
	.loc	2 421 5 is_stmt 1               @ ../Source/Server.c:421:5
	add	sp, #4
	pop	{r4, r5, r6, r7, pc}
.LBB4_13:
	.loc	2 0 5 is_stmt 0                 @ ../Source/Server.c:0:5
	movs	r1, #195
	lsls	r1, r1, #1
.Ltmp174:
	.loc	2 289 19 is_stmt 1              @ ../Source/Server.c:289:19
	ldrb	r2, [r0, r1]
	movs	r3, #5
	.loc	2 290 4                         @ ../Source/Server.c:290:4
	orrs	r3, r2
	strb	r3, [r0, r1]
	ldr	r0, __arm_cp.4_9
	movs	r1, #1
	str	r1, [r0, #8]
	str	r1, [r0, #4]
	str	r1, [r0]
	str	r1, [r0, #12]
	.loc	2 291 4                         @ ../Source/Server.c:291:4
	bl	LatchON
.Ltmp175:
	.loc	2 421 5                         @ ../Source/Server.c:421:5
	add	sp, #4
	pop	{r4, r5, r6, r7, pc}
.LBB4_14:
.Ltmp176:
	.loc	2 296 6                         @ ../Source/Server.c:296:6
	ldr	r0, __arm_cp.4_1
	adr	r1, .LCPI4_10
	bl	strstr
.Ltmp177:
	.loc	2 296 36 is_stmt 0              @ ../Source/Server.c:296:36
	cmp	r0, #0
	bne	.LBB4_16
@ %bb.15:
	.loc	2 296 40                        @ ../Source/Server.c:296:40
	ldr	r0, __arm_cp.4_1
	adr	r1, .LCPI4_11
	bl	strstr
.Ltmp178:
	.loc	2 296 5                         @ ../Source/Server.c:296:5
	cmp	r0, #0
	beq	.LBB4_18
.LBB4_16:
	.loc	2 0 5                           @ ../Source/Server.c:0:5
	movs	r0, #255
	adds	r0, #136
.Ltmp179:
	.loc	2 299 11 is_stmt 1              @ ../Source/Server.c:299:11
	ldr	r4, __arm_cp.4_3
	ldrb	r0, [r4, r0]
.Ltmp180:
	.loc	2 299 6 is_stmt 0               @ ../Source/Server.c:299:6
	lsls	r0, r0, #29
	bpl	.LBB4_12
@ %bb.17:
	.loc	2 0 6                           @ ../Source/Server.c:0:6
	movs	r0, #195
	lsls	r5, r0, #1
.Ltmp181:
	.loc	2 301 4 is_stmt 1               @ ../Source/Server.c:301:4
	ldrb	r0, [r4, r5]
	movs	r1, #254
	ands	r1, r0
	strb	r1, [r4, r5]
	ldr	r0, __arm_cp.4_9
	movs	r1, #0
	str	r1, [r0, #8]
	str	r1, [r0, #4]
	str	r1, [r0]
	str	r1, [r0, #12]
	.loc	2 302 4                         @ ../Source/Server.c:302:4
	bl	LatchOff
.Ltmp182:
	.loc	2 303 19                        @ ../Source/Server.c:303:19
	ldrb	r0, [r4, r5]
	movs	r1, #251
	ands	r1, r0
	strb	r1, [r4, r5]
.Ltmp183:
	.loc	2 421 5                         @ ../Source/Server.c:421:5
	add	sp, #4
	pop	{r4, r5, r6, r7, pc}
.LBB4_18:
.Ltmp184:
	.loc	2 308 40                        @ ../Source/Server.c:308:40
	ldr	r0, __arm_cp.4_1
	ldr	r1, __arm_cp.4_12
	bl	strstr
.Ltmp185:
	.loc	2 308 5 is_stmt 0               @ ../Source/Server.c:308:5
	cmp	r0, #0
	beq	.LBB4_21
@ %bb.19:
.Ltmp186:
	.loc	2 310 6 is_stmt 1               @ ../Source/Server.c:310:6
	ldr	r0, __arm_cp.4_1
	ldr	r1, __arm_cp.4_12
	bl	strstr
.Ltmp187:
	@DEBUG_VALUE: DecodeServerData:fn <- $r0
	.loc	2 311 6                         @ ../Source/Server.c:311:6
	cmp	r0, #0
	beq	.LBB4_21
.Ltmp188:
@ %bb.20:
	@DEBUG_VALUE: DecodeServerData:fn <- $r0
	.loc	2 313 8                         @ ../Source/Server.c:313:8
	ldrb	r2, [r0, #3]
	movs	r1, #10
	.loc	2 313 21 is_stmt 0              @ ../Source/Server.c:313:21
	muls	r2, r1, r2
	.loc	2 313 30                        @ ../Source/Server.c:313:30
	ldrb	r3, [r0, #4]
	.loc	2 313 27                        @ ../Source/Server.c:313:27
	adds	r4, r3, r2
	subs	r4, #16
.Ltmp189:
	@DEBUG_VALUE: DecodeServerData:n <- $r4
	.loc	2 0 27                          @ ../Source/Server.c:0:27
	movs	r3, #255
	mov	r5, r3
	adds	r5, #72
	.loc	2 314 29 is_stmt 1              @ ../Source/Server.c:314:29
	ldr	r2, __arm_cp.4_3
	strb	r4, [r2, r5]
	.loc	2 315 8                         @ ../Source/Server.c:315:8
	ldrb	r4, [r0, #6]
.Ltmp190:
	.loc	2 315 21 is_stmt 0              @ ../Source/Server.c:315:21
	muls	r4, r1, r4
	.loc	2 315 30                        @ ../Source/Server.c:315:30
	ldrb	r5, [r0, #7]
	.loc	2 315 27                        @ ../Source/Server.c:315:27
	adds	r4, r5, r4
	subs	r4, #16
.Ltmp191:
	@DEBUG_VALUE: DecodeServerData:n <- $r4
	.loc	2 0 27                          @ ../Source/Server.c:0:27
	movs	r5, #41
	lsls	r5, r5, #3
	.loc	2 316 28 is_stmt 1              @ ../Source/Server.c:316:28
	strb	r4, [r2, r5]
	.loc	2 318 8                         @ ../Source/Server.c:318:8
	ldrb	r4, [r0, #9]
.Ltmp192:
	.loc	2 318 21 is_stmt 0              @ ../Source/Server.c:318:21
	muls	r4, r1, r4
	.loc	2 318 30                        @ ../Source/Server.c:318:30
	ldrb	r5, [r0, #10]
	.loc	2 318 27                        @ ../Source/Server.c:318:27
	adds	r4, r5, r4
	subs	r4, #16
.Ltmp193:
	@DEBUG_VALUE: DecodeServerData:n <- $r4
	.loc	2 0 27                          @ ../Source/Server.c:0:27
	adds	r3, #80
	.loc	2 319 30 is_stmt 1              @ ../Source/Server.c:319:30
	strb	r4, [r2, r3]
	.loc	2 320 8                         @ ../Source/Server.c:320:8
	ldrb	r3, [r0, #12]
	.loc	2 320 22 is_stmt 0              @ ../Source/Server.c:320:22
	muls	r3, r1, r3
	.loc	2 320 31                        @ ../Source/Server.c:320:31
	ldrb	r0, [r0, #13]
.Ltmp194:
	.loc	2 320 28                        @ ../Source/Server.c:320:28
	adds	r0, r0, r3
	subs	r0, #16
.Ltmp195:
	@DEBUG_VALUE: DecodeServerData:n <- $r0
	.loc	2 0 28                          @ ../Source/Server.c:0:28
	movs	r1, #21
	lsls	r1, r1, #4
	b	.LBB4_24
.Ltmp196:
.LBB4_21:
	.loc	2 328 40 is_stmt 1              @ ../Source/Server.c:328:40
	ldr	r0, __arm_cp.4_1
	ldr	r1, __arm_cp.4_13
	bl	strstr
.Ltmp197:
	.loc	2 328 5 is_stmt 0               @ ../Source/Server.c:328:5
	cmp	r0, #0
	beq	.LBB4_26
@ %bb.22:
.Ltmp198:
	.loc	2 330 6 is_stmt 1               @ ../Source/Server.c:330:6
	ldr	r0, __arm_cp.4_1
	ldr	r1, __arm_cp.4_13
	bl	strstr
.Ltmp199:
	@DEBUG_VALUE: DecodeServerData:fn <- $r0
	.loc	2 331 6                         @ ../Source/Server.c:331:6
	cmp	r0, #0
	beq	.LBB4_26
.Ltmp200:
@ %bb.23:
	@DEBUG_VALUE: DecodeServerData:fn <- $r0
	.loc	2 333 32                        @ ../Source/Server.c:333:32
	ldrb	r1, [r0, #4]
	movs	r2, #10
	.loc	2 333 44 is_stmt 0              @ ../Source/Server.c:333:44
	muls	r2, r1, r2
	.loc	2 333 8                         @ ../Source/Server.c:333:8
	ldrb	r1, [r0, #3]
	movs	r3, #100
	.loc	2 333 21                        @ ../Source/Server.c:333:21
	muls	r3, r1, r3
	.loc	2 333 28                        @ ../Source/Server.c:333:28
	adds	r1, r3, r2
	.loc	2 333 53                        @ ../Source/Server.c:333:53
	ldrb	r0, [r0, #5]
.Ltmp201:
	.loc	2 333 50                        @ ../Source/Server.c:333:50
	adds	r0, r1, r0
	adds	r0, #48
.Ltmp202:
	@DEBUG_VALUE: DecodeServerData:n <- $r0
	.loc	2 0 50                          @ ../Source/Server.c:0:50
	movs	r1, #255
	adds	r1, #136
	.loc	2 335 20 is_stmt 1              @ ../Source/Server.c:335:20
	ldr	r2, __arm_cp.4_3
.Ltmp203:
.LBB4_24:
	@DEBUG_VALUE: DecodeServerData:n <- $r0
	.loc	2 0 0 is_stmt 0                 @ ../Source/Server.c:0:0
	strb	r0, [r2, r1]
.Ltmp204:
.LBB4_25:
	bl	UpdateConfigInFlash
.Ltmp205:
	.loc	2 421 5 is_stmt 1               @ ../Source/Server.c:421:5
	add	sp, #4
	pop	{r4, r5, r6, r7, pc}
.LBB4_26:
.Ltmp206:
	.loc	2 342 40                        @ ../Source/Server.c:342:40
	ldr	r0, __arm_cp.4_1
	ldr	r1, __arm_cp.4_14
	bl	strstr
.Ltmp207:
	.loc	2 342 5 is_stmt 0               @ ../Source/Server.c:342:5
	cmp	r0, #0
	beq	.LBB4_31
@ %bb.27:
.Ltmp208:
	.loc	2 344 6 is_stmt 1               @ ../Source/Server.c:344:6
	ldr	r0, __arm_cp.4_1
	ldr	r1, __arm_cp.4_14
	bl	strstr
.Ltmp209:
	@DEBUG_VALUE: DecodeServerData:fn <- $r0
	.loc	2 345 6                         @ ../Source/Server.c:345:6
	cmp	r0, #0
	beq	.LBB4_31
.Ltmp210:
@ %bb.28:
	@DEBUG_VALUE: DecodeServerData:fn <- $r0
	.loc	2 0 0 is_stmt 0                 @ ../Source/Server.c:0:0
	mov	r5, r0
.Ltmp211:
	@DEBUG_VALUE: DecodeServerData:fn <- $r5
	movs	r1, #44
.Ltmp212:
	.loc	2 347 7 is_stmt 1               @ ../Source/Server.c:347:7
	bl	strchr
.Ltmp213:
	@DEBUG_VALUE: DecodeServerData:ls <- $r0
	.loc	2 348 7                         @ ../Source/Server.c:348:7
	cmp	r0, #0
	beq	.LBB4_31
.Ltmp214:
@ %bb.29:
	@DEBUG_VALUE: DecodeServerData:fn <- $r5
	@DEBUG_VALUE: DecodeServerData:ls <- $r0
	.loc	2 0 7 is_stmt 0                 @ ../Source/Server.c:0:7
	mov	r6, r0
.Ltmp215:
	@DEBUG_VALUE: DecodeServerData:ls <- $r6
	movs	r7, #0
.Ltmp216:
	.loc	2 350 10 is_stmt 1              @ ../Source/Server.c:350:10
	strb	r7, [r0]
	.loc	2 351 5                         @ ../Source/Server.c:351:5
	ldr	r4, __arm_cp.4_3
	adds	r0, r4, #2
	.loc	2 351 41 is_stmt 0              @ ../Source/Server.c:351:41
	adds	r1, r5, #3
	.loc	2 351 5                         @ ../Source/Server.c:351:5
	bl	strcpy
.Ltmp217:
	.loc	2 352 7 is_stmt 1               @ ../Source/Server.c:352:7
	adds	r5, r6, #1
.Ltmp218:
	@DEBUG_VALUE: DecodeServerData:ls <- $r5
	.loc	2 0 7 is_stmt 0                 @ ../Source/Server.c:0:7
	movs	r1, #44
	.loc	2 353 8 is_stmt 1               @ ../Source/Server.c:353:8
	mov	r0, r5
	bl	strchr
.Ltmp219:
	@DEBUG_VALUE: DecodeServerData:fn <- $r0
	.loc	2 354 8                         @ ../Source/Server.c:354:8
	cmp	r0, #0
	beq	.LBB4_25
.Ltmp220:
@ %bb.30:
	@DEBUG_VALUE: DecodeServerData:ls <- $r5
	@DEBUG_VALUE: DecodeServerData:fn <- $r0
	.loc	2 356 11                        @ ../Source/Server.c:356:11
	strb	r7, [r0]
	.loc	2 357 6                         @ ../Source/Server.c:357:6
	adds	r4, #22
	mov	r0, r4
.Ltmp221:
	mov	r1, r5
	bl	strcpy
.Ltmp222:
	.loc	2 0 6 is_stmt 0                 @ ../Source/Server.c:0:6
	b	.LBB4_25
.Ltmp223:
.LBB4_31:
	.loc	2 366 40 is_stmt 1              @ ../Source/Server.c:366:40
	ldr	r0, __arm_cp.4_1
	adr	r1, .LCPI4_15
	bl	strstr
.Ltmp224:
	.loc	2 366 5 is_stmt 0               @ ../Source/Server.c:366:5
	cmp	r0, #0
	beq	.LBB4_37
@ %bb.32:
.Ltmp225:
	.loc	2 368 6 is_stmt 1               @ ../Source/Server.c:368:6
	ldr	r0, __arm_cp.4_1
	adr	r1, .LCPI4_16
	bl	strstr
.Ltmp226:
	@DEBUG_VALUE: DecodeServerData:fn <- $r0
	.loc	2 369 6                         @ ../Source/Server.c:369:6
	cmp	r0, #0
	beq	.LBB4_34
.Ltmp227:
@ %bb.33:
	@DEBUG_VALUE: DecodeServerData:fn <- $r0
	.loc	2 0 6 is_stmt 0                 @ ../Source/Server.c:0:6
	movs	r0, #255
.Ltmp228:
	adds	r0, #136
.Ltmp229:
	.loc	2 371 21 is_stmt 1              @ ../Source/Server.c:371:21
	ldr	r1, __arm_cp.4_3
	ldrb	r2, [r1, r0]
	movs	r3, #2
	orrs	r3, r2
	b	.LBB4_36
.Ltmp230:
.LBB4_34:
	@DEBUG_VALUE: DecodeServerData:fn <- $r0
	.loc	2 375 6                         @ ../Source/Server.c:375:6
	ldr	r0, __arm_cp.4_1
.Ltmp231:
	adr	r1, .LCPI4_17
	bl	strstr
.Ltmp232:
	@DEBUG_VALUE: DecodeServerData:fn <- $r0
	.loc	2 376 6                         @ ../Source/Server.c:376:6
	cmp	r0, #0
	beq	.LBB4_37
.Ltmp233:
@ %bb.35:
	@DEBUG_VALUE: DecodeServerData:fn <- $r0
	.loc	2 0 6 is_stmt 0                 @ ../Source/Server.c:0:6
	movs	r0, #255
.Ltmp234:
	adds	r0, #136
.Ltmp235:
	.loc	2 378 21 is_stmt 1              @ ../Source/Server.c:378:21
	ldr	r1, __arm_cp.4_3
	ldrb	r2, [r1, r0]
	movs	r3, #253
	ands	r3, r2
.Ltmp236:
.LBB4_36:
	.loc	2 0 0 is_stmt 0                 @ ../Source/Server.c:0:0
	strb	r3, [r1, r0]
	b	.LBB4_25
.Ltmp237:
.LBB4_37:
	.loc	2 384 5 is_stmt 1               @ ../Source/Server.c:384:5
	ldr	r0, __arm_cp.4_1
	adr	r1, .LCPI4_18
	bl	strstr
.Ltmp238:
	.loc	2 384 5 is_stmt 0               @ ../Source/Server.c:384:5
	cmp	r0, #0
	beq	.LBB4_41
@ %bb.38:
.Ltmp239:
	.loc	2 386 6 is_stmt 1               @ ../Source/Server.c:386:6
	ldr	r0, __arm_cp.4_1
	adr	r1, .LCPI4_19
	bl	strstr
.Ltmp240:
	@DEBUG_VALUE: DecodeServerData:fn <- $r0
	.loc	2 387 6                         @ ../Source/Server.c:387:6
	cmp	r0, #0
	beq	.LBB4_40
.Ltmp241:
@ %bb.39:
	@DEBUG_VALUE: DecodeServerData:fn <- $r0
	.loc	2 389 4                         @ ../Source/Server.c:389:4
	bl	M590Init
.Ltmp242:
	.loc	2 421 5                         @ ../Source/Server.c:421:5
	add	sp, #4
	pop	{r4, r5, r6, r7, pc}
.LBB4_40:
.Ltmp243:
	@DEBUG_VALUE: DecodeServerData:fn <- $r0
	.loc	2 392 6                         @ ../Source/Server.c:392:6
	ldr	r0, __arm_cp.4_1
.Ltmp244:
	adr	r1, .LCPI4_20
	bl	strstr
.Ltmp245:
	@DEBUG_VALUE: DecodeServerData:fn <- $r0
	.loc	2 393 6                         @ ../Source/Server.c:393:6
	cmp	r0, #0
	bne	.LBB4_47
.Ltmp246:
.LBB4_41:
	.loc	2 401 5                         @ ../Source/Server.c:401:5
	ldr	r0, __arm_cp.4_1
	adr	r1, .LCPI4_21
	bl	strstr
.Ltmp247:
	.loc	2 401 5 is_stmt 0               @ ../Source/Server.c:401:5
	cmp	r0, #0
	bne	.LBB4_42
	b	.LBB4_12
.LBB4_42:
	.loc	2 0 5                           @ ../Source/Server.c:0:5
	ldr	r0, __arm_cp.4_22
	ldrb	r0, [r0]
	.loc	2 401 5                         @ ../Source/Server.c:401:5
	cmp	r0, #4
	bhs	.LBB4_43
	b	.LBB4_12
.LBB4_43:
	.loc	2 0 5                           @ ../Source/Server.c:0:5
	movs	r4, #3
.LBB4_44:                               @ =>This Inner Loop Header: Depth=1
.Ltmp248:
	@DEBUG_VALUE: DecodeServerData:n <- $r4
	.loc	2 409 8 is_stmt 1               @ ../Source/Server.c:409:8
	bl	FTPLogin
.Ltmp249:
	.loc	2 409 8 is_stmt 0               @ ../Source/Server.c:409:8
	cmp	r0, #0
	bne	.LBB4_46
.Ltmp250:
@ %bb.45:                               @   in Loop: Header=BB4_44 Depth=1
	@DEBUG_VALUE: DecodeServerData:n <- $r4
	.loc	2 0 8                           @ ../Source/Server.c:0:8
	movs	r0, #100
	.loc	2 415 5 is_stmt 1               @ ../Source/Server.c:415:5
	bl	Delay
.Ltmp251:
	.loc	2 416 6                         @ ../Source/Server.c:416:6
	subs	r4, r4, #1
.Ltmp252:
	@DEBUG_VALUE: DecodeServerData:n <- $r4
	.loc	2 407 4                         @ ../Source/Server.c:407:4
	lsls	r0, r4, #24
	bne	.LBB4_44
	b	.LBB4_12
.Ltmp253:
.LBB4_46:
	@DEBUG_VALUE: DecodeServerData:n <- $r4
	.loc	2 412 6                         @ ../Source/Server.c:412:6
	bl	JumpToBOOT
.Ltmp254:
	.loc	2 421 5                         @ ../Source/Server.c:421:5
	add	sp, #4
	pop	{r4, r5, r6, r7, pc}
.Ltmp255:
.LBB4_47:
	@DEBUG_VALUE: DecodeServerData:fn <- $r0
	.loc	2 395 4                         @ ../Source/Server.c:395:4
	bl	NVIC_SystemReset
.Ltmp256:
	.p2align	2
@ %bb.48:
	.loc	2 0 4 is_stmt 0                 @ ../Source/Server.c:0:4
__arm_cp.4_0:
	.long	IsServerData
.Lcpi_end42:
	.size	__arm_cp.4_0, .Lcpi_end42-__arm_cp.4_0
__arm_cp.4_1:
	.long	ServerRxData
.Lcpi_end43:
	.size	__arm_cp.4_1, .Lcpi_end43-__arm_cp.4_1
.LCPI4_2:
.L.str.24:
	.asciz	"F8,1,\000\000"
__arm_cp.4_3:
	.long	CCMS
.Lcpi_end44:
	.size	__arm_cp.4_3, .Lcpi_end44-__arm_cp.4_3
.LCPI4_4:
.L.str.25:
	.asciz	"F8,2,\000\000"
.LCPI4_5:
.L.str.26:
	.asciz	"SI,"
.LCPI4_6:
.L.str.27:
	.asciz	"I,\000"
.LCPI4_7:
.L.str.29:
	.asciz	"L010\000\000\000"
.LCPI4_8:
.L.str.30:
	.asciz	"L8,1,\000\000"
__arm_cp.4_9:
	.long	1073760392                      @ 0x40004888
.Lcpi_end45:
	.size	__arm_cp.4_9, .Lcpi_end45-__arm_cp.4_9
.LCPI4_10:
.L.str.31:
	.asciz	"L000\000\000\000"
.LCPI4_11:
.L.str.32:
	.asciz	"L8,2,\000\000"
__arm_cp.4_12:
	.long	.L.str.33
.Lcpi_end46:
	.size	__arm_cp.4_12, .Lcpi_end46-__arm_cp.4_12
__arm_cp.4_13:
	.long	.L.str.34
.Lcpi_end47:
	.size	__arm_cp.4_13, .Lcpi_end47-__arm_cp.4_13
__arm_cp.4_14:
	.long	.L.str.35
.Lcpi_end48:
	.size	__arm_cp.4_14, .Lcpi_end48-__arm_cp.4_14
.LCPI4_15:
.L.str.36:
	.asciz	"LR,"
.LCPI4_16:
.L.str.37:
	.asciz	"LR,1,\000\000"
.LCPI4_17:
.L.str.38:
	.asciz	"LR,0,\000\000"
.LCPI4_18:
.L.str.39:
	.asciz	"RST"
.LCPI4_19:
.L.str.40:
	.asciz	"RST,1\000\000"
.LCPI4_20:
.L.str.41:
	.asciz	"RST,0\000\000"
.LCPI4_21:
.L.str.42:
	.asciz	"FTP VN\000"
__arm_cp.4_22:
	.long	GSM
.Lcpi_end49:
	.size	__arm_cp.4_22, .Lcpi_end49-__arm_cp.4_22
.Lfunc_end4:
	.size	DecodeServerData, .Lfunc_end4-DecodeServerData
	.cfi_endproc
	.cantunwind
	.fnend
                                        @ -- End function
	.section	.text.CheckAPPString,"ax",%progbits
	.hidden	CheckAPPString                  @ -- Begin function CheckAPPString
	.globl	CheckAPPString
	.p2align	1
	.type	CheckAPPString,%function
	.code	16                              @ @CheckAPPString
	.thumb_func
CheckAPPString:
.Lfunc_begin5:
	.loc	2 231 0 is_stmt 1               @ ../Source/Server.c:231:0
	.fnstart
	.cfi_startproc
@ %bb.0:
	.loc	2 233 2 prologue_end            @ ../Source/Server.c:233:2
	bx	lr
.Ltmp257:
.Lfunc_end5:
	.size	CheckAPPString, .Lfunc_end5-CheckAPPString
	.cfi_endproc
	.cantunwind
	.fnend
                                        @ -- End function
	.section	.text.NVIC_SystemReset,"ax",%progbits
	.p2align	2                               @ -- Begin function NVIC_SystemReset
	.type	NVIC_SystemReset,%function
	.code	16                              @ @NVIC_SystemReset
	.thumb_func
NVIC_SystemReset:
.Lfunc_begin6:
	.loc	5 731 0                         @ ../../Library/CMSIS/Include\core_cm0.h:731:0
	.fnstart
	.cfi_startproc
@ %bb.0:
	.loc	5 732 3 prologue_end            @ ../../Library/CMSIS/Include\core_cm0.h:732:3
	dsb	sy
	ldr	r0, __arm_cp.6_0
	ldr	r1, __arm_cp.6_1
	.loc	5 734 15                        @ ../../Library/CMSIS/Include\core_cm0.h:734:15
	str	r1, [r0]
	.loc	5 736 3                         @ ../../Library/CMSIS/Include\core_cm0.h:736:3
	dsb	sy
.LBB6_1:                                @ =>This Inner Loop Header: Depth=1
.Ltmp258:
	.loc	5 740 5                         @ ../../Library/CMSIS/Include\core_cm0.h:740:5
	nop
.Ltmp259:
	.loc	5 738 3                         @ ../../Library/CMSIS/Include\core_cm0.h:738:3
	b	.LBB6_1
.Ltmp260:
	.p2align	2
@ %bb.2:
	.loc	5 0 3 is_stmt 0                 @ ../../Library/CMSIS/Include\core_cm0.h:0:3
__arm_cp.6_0:
	.long	3758157068                      @ 0xe000ed0c
.Lcpi_end50:
	.size	__arm_cp.6_0, .Lcpi_end50-__arm_cp.6_0
__arm_cp.6_1:
	.long	100270084                       @ 0x5fa0004
.Lcpi_end51:
	.size	__arm_cp.6_1, .Lcpi_end51-__arm_cp.6_1
.Lfunc_end6:
	.size	NVIC_SystemReset, .Lfunc_end6-NVIC_SystemReset
	.cfi_endproc
	.cantunwind
	.fnend
                                        @ -- End function
	.hidden	IsStored                        @ @IsStored
	.type	IsStored,%object
	.section	.bss.IsStored,"aw",%nobits
	.globl	IsStored
IsStored:
	.byte	0                               @ 0x0
	.size	IsStored, 1

	.hidden	currentPhase                    @ @currentPhase
	.type	currentPhase,%object
	.section	.bss.currentPhase,"aw",%nobits
	.globl	currentPhase
currentPhase:
	.byte	0                               @ 0x0
	.size	currentPhase, 1

	.hidden	PacketCount                     @ @PacketCount
	.type	PacketCount,%object
	.section	.bss.PacketCount,"aw",%nobits
	.globl	PacketCount
PacketCount:
	.byte	0                               @ 0x0
	.size	PacketCount, 1

	.hidden	dataBuffer                      @ @dataBuffer
	.type	dataBuffer,%object
	.section	.bss.dataBuffer,"aw",%nobits
	.globl	dataBuffer
	.p2align	2
dataBuffer:
	.zero	512
	.size	dataBuffer, 512

	.type	.L.str,%object                  @ @.str
	.section	.rodata.str1.1,"aMS",%progbits,1
.L.str:
	.asciz	"$AN,"
	.size	.L.str, 5

	.type	.L.str.1,%object                @ @.str.1
.L.str.1:
	.asciz	"%0.2d%0.2d%0.2d"
	.size	.L.str.1, 16

	.type	.L.str.2,%object                @ @.str.2
.L.str.2:
	.asciz	"%i"
	.size	.L.str.2, 3

	.type	.L.str.3,%object                @ @.str.3
.L.str.3:
	.asciz	"%02i:%02i"
	.size	.L.str.3, 10

	.type	.L.str.4,%object                @ @.str.4
	.section	.rodata.str1.4,"aMS",%progbits,1
	.p2align	2
.L.str.4:
	.asciz	"AN240130#"
	.size	.L.str.4, 10

	.type	.L.str.6,%object                @ @.str.6
	.p2align	2
.L.str.6:
	.asciz	"Meter NOT Detected\n"
	.size	.L.str.6, 20

	.type	.L.str.7,%object                @ @.str.7
	.p2align	2
.L.str.7:
	.asciz	"MAXWELL Meter Detected\n"
	.size	.L.str.7, 24

	.type	.L.str.8,%object                @ @.str.8
	.p2align	2
.L.str.8:
	.asciz	"EppleTone Meter Detected\n"
	.size	.L.str.8, 26

	.type	.L.str.11,%object               @ @.str.11
	.p2align	2
.L.str.11:
	.asciz	"RTC Err\n"
	.size	.L.str.11, 9

	.type	.L.str.12,%object               @ @.str.12
	.p2align	2
.L.str.12:
	.asciz	"Time Set\n"
	.size	.L.str.12, 10

	.type	.L.str.13,%object               @ @.str.13
	.p2align	2
.L.str.13:
	.asciz	"Time Not Set\n"
	.size	.L.str.13, 14

	.type	.L.str.14,%object               @ @.str.14
	.p2align	2
.L.str.14:
	.asciz	"SIM Detected\n"
	.size	.L.str.14, 14

	.type	.L.str.15,%object               @ @.str.15
	.p2align	2
.L.str.15:
	.asciz	"SIM NOT Detected\n"
	.size	.L.str.15, 18

	.type	.L.str.17,%object               @ @.str.17
	.p2align	2
.L.str.17:
	.asciz	"GPRS Active\n"
	.size	.L.str.17, 13

	.type	.L.str.18,%object               @ @.str.18
	.p2align	2
.L.str.18:
	.asciz	"GPRS NOT Active\n"
	.size	.L.str.18, 17

	.type	.L.str.19,%object               @ @.str.19
	.p2align	2
.L.str.19:
	.asciz	"SERVER Connected\n"
	.size	.L.str.19, 18

	.type	.L.str.20,%object               @ @.str.20
	.p2align	2
.L.str.20:
	.asciz	"SERVER Not Connected\n"
	.size	.L.str.20, 22

	.type	.L.str.21,%object               @ @.str.21
	.p2align	2
.L.str.21:
	.asciz	"RELAY ON\n"
	.size	.L.str.21, 10

	.type	.L.str.22,%object               @ @.str.22
	.p2align	2
.L.str.22:
	.asciz	"RELAY OFF\n"
	.size	.L.str.22, 11

	.hidden	IsDataReady                     @ @IsDataReady
	.type	IsDataReady,%object
	.section	.bss.IsDataReady,"aw",%nobits
	.globl	IsDataReady
	.p2align	1
IsDataReady:
	.short	0                               @ 0x0
	.size	IsDataReady, 2

	.type	.L.str.33,%object               @ @.str.33
	.section	.rodata.str1.1,"aMS",%progbits,1
.L.str.33:
	.asciz	"L2,"
	.size	.L.str.33, 4

	.type	.L.str.34,%object               @ @.str.34
.L.str.34:
	.asciz	"LS,"
	.size	.L.str.34, 4

	.type	.L.str.35,%object               @ @.str.35
.L.str.35:
	.asciz	"LI,"
	.size	.L.str.35, 4

	.globl	_printf_percent
	.globl	_printf_flags
	.globl	_printf_widthprec
	.globl	_printf_pre_padding
	.globl	_printf_s
	.globl	_printf_i
	.globl	_printf_d
	.globl	_printf_int_dec
	.globl	_printf_str
	.hidden	_printf_percent
	.hidden	_printf_flags
	.hidden	_printf_widthprec
	.hidden	_printf_pre_padding
	.hidden	_printf_s
	.hidden	_printf_i
	.hidden	_printf_d
	.hidden	_printf_int_dec
	.hidden	_printf_str
	.section	".note.GNU-stack","",%progbits
	.eabi_attribute	30, 1	@ Tag_ABI_optimization_goals
	.ARM_attribute	16, 1	@ Tag_AV_eba