	.text
	.syntax unified
	.eabi_attribute	67, "2.09"	@ Tag_conformance
	.cpu	cortex-m0
	.eabi_attribute	6, 12	@ Tag_CPU_arch
	.eabi_attribute	7, 77	@ Tag_CPU_arch_profile
	.eabi_attribute	8, 0	@ Tag_ARM_ISA_use
	.eabi_attribute	9, 1	@ Tag_THUMB_ISA_use
	.eabi_attribute	34, 0	@ Tag_CPU_unaligned_access
	.eabi_attribute	17, 1	@ Tag_ABI_PCS_GOT_use
	.eabi_attribute	20, 2	@ Tag_ABI_FP_denormal
	.eabi_attribute	21, 0	@ Tag_ABI_FP_exceptions
	.eabi_attribute	23, 1	@ Tag_ABI_FP_number_model
	.eabi_attribute	24, 1	@ Tag_ABI_align_needed
	.eabi_attribute	25, 1	@ Tag_ABI_align_preserved
	.eabi_attribute	38, 1	@ Tag_ABI_FP_16bit_format
	.eabi_attribute	18, 2	@ Tag_ABI_PCS_wchar_t
	.eabi_attribute	26, 1	@ Tag_ABI_enum_size
	.eabi_attribute	14, 0	@ Tag_ABI_PCS_R9_use
	.file	"spi.c"
	.file	1 "C:\\Keil_v5\\ARM\\ARMCLANG\\Bin\\..\\include" "stdint.h"
	.file	2 "D:\\Projects\\CCMSFloridaPhpr\\Application\\KEIL" "../../Library/Device/Nuvoton/M031/Include/spi_reg.h"
	.file	3 "D:\\Projects\\CCMSFloridaPhpr\\Application\\KEIL" "../../Library/Device/Nuvoton/M031/Include/clk_reg.h"
	.file	4 "D:\\Projects\\CCMSFloridaPhpr\\Application\\KEIL" "../../Library/Device/Nuvoton/M031/Include/sys_reg.h"
	.section	.text.SPI_Open,"ax",%progbits
	.hidden	SPI_Open                        @ -- Begin function SPI_Open
	.globl	SPI_Open
	.p2align	2
	.type	SPI_Open,%function
	.code	16                              @ @SPI_Open
	.thumb_func
SPI_Open:
.Lfunc_begin0:
	.file	5 "D:\\Projects\\CCMSFloridaPhpr\\Application\\KEIL" "../../Library/StdDriver/src/spi.c"
	.loc	5 50 0                          @ ../../Library/StdDriver/src/spi.c:50:0
	.fnstart
	.cfi_sections .debug_frame
	.cfi_startproc
@ %bb.0:
	.save	{r4, lr}
	push	{r4, lr}
	.cfi_def_cfa_offset 8
	.cfi_offset lr, -4
	.cfi_offset r4, -8
	.pad	#40
	sub	sp, #40
	.cfi_def_cfa_offset 48
	ldr	r4, [sp, #48]
	str	r0, [sp, #32]
	str	r1, [sp, #28]
	str	r2, [sp, #24]
	str	r3, [sp, #20]
	movs	r0, #0
.Ltmp0:
	.loc	5 51 14 prologue_end            @ ../../Library/StdDriver/src/spi.c:51:14
	str	r0, [sp, #16]
.Ltmp1:
	.loc	5 54 8                          @ ../../Library/StdDriver/src/spi.c:54:8
	ldr	r0, [sp, #32]
	ldr	r1, __arm_cp.0_0
.Ltmp2:
	.loc	5 54 8 is_stmt 0                @ ../../Library/StdDriver/src/spi.c:54:8
	cmp	r0, r1
	beq	.LBB0_2
	b	.LBB0_1
.LBB0_1:
	.loc	5 0 8                           @ ../../Library/StdDriver/src/spi.c:0:8
	movs	r0, #0
.Ltmp3:
	.loc	5 54 21                         @ ../../Library/StdDriver/src/spi.c:54:21
	str	r0, [sp, #36]
	b	.LBB0_30
.Ltmp4:
.LBB0_2:
	.loc	5 57 5 is_stmt 1                @ ../../Library/StdDriver/src/spi.c:57:5
	ldr	r1, [sp, #32]
	.loc	5 57 17 is_stmt 0               @ ../../Library/StdDriver/src/spi.c:57:17
	ldr	r0, [r1, #96]
	movs	r2, #1
	bics	r0, r2
	str	r0, [r1, #96]
.Ltmp5:
	.loc	5 59 8 is_stmt 1                @ ../../Library/StdDriver/src/spi.c:59:8
	ldr	r0, [sp, #20]
.Ltmp6:
	.loc	5 59 8 is_stmt 0                @ ../../Library/StdDriver/src/spi.c:59:8
	cmp	r0, #32
	bne	.LBB0_4
	b	.LBB0_3
.LBB0_3:
	.loc	5 0 8                           @ ../../Library/StdDriver/src/spi.c:0:8
	movs	r0, #0
.Ltmp7:
	.loc	5 60 22 is_stmt 1               @ ../../Library/StdDriver/src/spi.c:60:22
	str	r0, [sp, #20]
	.loc	5 60 9 is_stmt 0                @ ../../Library/StdDriver/src/spi.c:60:9
	b	.LBB0_4
.Ltmp8:
.LBB0_4:
	.loc	5 63 19 is_stmt 1               @ ../../Library/StdDriver/src/spi.c:63:19
	bl	CLK_GetHCLKFreq
	.loc	5 63 17 is_stmt 0               @ ../../Library/StdDriver/src/spi.c:63:17
	str	r0, [sp, #8]
.Ltmp9:
	.loc	5 65 8 is_stmt 1                @ ../../Library/StdDriver/src/spi.c:65:8
	ldr	r0, [sp, #28]
.Ltmp10:
	.loc	5 65 8 is_stmt 0                @ ../../Library/StdDriver/src/spi.c:65:8
	cmp	r0, #0
	beq	.LBB0_5
	b	.LBB0_29
.LBB0_5:
.Ltmp11:
	.loc	5 68 9 is_stmt 1                @ ../../Library/StdDriver/src/spi.c:68:9
	ldr	r1, [sp, #32]
	movs	r0, #0
	.loc	5 68 20 is_stmt 0               @ ../../Library/StdDriver/src/spi.c:68:20
	str	r0, [r1, #8]
	.loc	5 71 20 is_stmt 1               @ ../../Library/StdDriver/src/spi.c:71:20
	ldr	r0, [sp, #28]
	.loc	5 71 38 is_stmt 0               @ ../../Library/StdDriver/src/spi.c:71:38
	ldr	r1, [sp, #20]
	.loc	5 71 51                         @ ../../Library/StdDriver/src/spi.c:71:51
	lsls	r1, r1, #8
	.loc	5 71 35                         @ ../../Library/StdDriver/src/spi.c:71:35
	orrs	r0, r1
	.loc	5 71 77                         @ ../../Library/StdDriver/src/spi.c:71:77
	ldr	r1, [sp, #24]
	.loc	5 71 74                         @ ../../Library/StdDriver/src/spi.c:71:74
	orrs	r0, r1
	movs	r1, #1
	.loc	5 71 89                         @ ../../Library/StdDriver/src/spi.c:71:89
	orrs	r0, r1
	.loc	5 71 9                          @ ../../Library/StdDriver/src/spi.c:71:9
	ldr	r1, [sp, #32]
	.loc	5 71 18                         @ ../../Library/StdDriver/src/spi.c:71:18
	str	r0, [r1]
.Ltmp12:
	.loc	5 73 12 is_stmt 1               @ ../../Library/StdDriver/src/spi.c:73:12
	ldr	r0, [sp, #48]
	.loc	5 73 27 is_stmt 0               @ ../../Library/StdDriver/src/spi.c:73:27
	ldr	r1, [sp, #8]
.Ltmp13:
	.loc	5 73 12                         @ ../../Library/StdDriver/src/spi.c:73:12
	cmp	r0, r1
	blo	.LBB0_9
	b	.LBB0_6
.LBB0_6:
.Ltmp14:
	.loc	5 76 16 is_stmt 1               @ ../../Library/StdDriver/src/spi.c:76:16
	ldr	r0, [sp, #32]
	ldr	r1, __arm_cp.0_0
.Ltmp15:
	.loc	5 76 16 is_stmt 0               @ ../../Library/StdDriver/src/spi.c:76:16
	cmp	r0, r1
	bne	.LBB0_8
	b	.LBB0_7
.LBB0_7:
	.loc	5 0 16                          @ ../../Library/StdDriver/src/spi.c:0:16
	ldr	r1, __arm_cp.0_1
.Ltmp16:
	.loc	5 77 38 is_stmt 1               @ ../../Library/StdDriver/src/spi.c:77:38
	ldr	r0, [r1]
	movs	r2, #32
	.loc	5 77 46 is_stmt 0               @ ../../Library/StdDriver/src/spi.c:77:46
	orrs	r0, r2
	movs	r2, #16
	.loc	5 77 76                         @ ../../Library/StdDriver/src/spi.c:77:76
	bics	r0, r2
	.loc	5 77 30                         @ ../../Library/StdDriver/src/spi.c:77:30
	str	r0, [r1]
	.loc	5 77 17                         @ ../../Library/StdDriver/src/spi.c:77:17
	b	.LBB0_8
.Ltmp17:
.LBB0_8:
	.loc	5 78 9 is_stmt 1                @ ../../Library/StdDriver/src/spi.c:78:9
	b	.LBB0_9
.Ltmp18:
.LBB0_9:
	.loc	5 81 12                         @ ../../Library/StdDriver/src/spi.c:81:12
	ldr	r0, [sp, #32]
	ldr	r1, __arm_cp.0_0
.Ltmp19:
	.loc	5 81 12 is_stmt 0               @ ../../Library/StdDriver/src/spi.c:81:12
	cmp	r0, r1
	bne	.LBB0_20
	b	.LBB0_10
.LBB0_10:
	.loc	5 0 12                          @ ../../Library/StdDriver/src/spi.c:0:12
	ldr	r0, __arm_cp.0_1
.Ltmp20:
	.loc	5 83 22 is_stmt 1               @ ../../Library/StdDriver/src/spi.c:83:22
	ldr	r0, [r0]
.Ltmp21:
	.loc	5 83 16 is_stmt 0               @ ../../Library/StdDriver/src/spi.c:83:16
	lsls	r0, r0, #26
	lsrs	r0, r0, #30
	cmp	r0, #0
	bne	.LBB0_12
	b	.LBB0_11
.LBB0_11:
	.loc	5 0 16                          @ ../../Library/StdDriver/src/spi.c:0:16
	ldr	r0, __arm_cp.0_4
.Ltmp22:
	.loc	5 84 27 is_stmt 1               @ ../../Library/StdDriver/src/spi.c:84:27
	str	r0, [sp, #16]
	.loc	5 84 17 is_stmt 0               @ ../../Library/StdDriver/src/spi.c:84:17
	b	.LBB0_19
.LBB0_12:
	.loc	5 0 17                          @ ../../Library/StdDriver/src/spi.c:0:17
	ldr	r0, __arm_cp.0_1
.Ltmp23:
	.loc	5 85 27 is_stmt 1               @ ../../Library/StdDriver/src/spi.c:85:27
	ldr	r0, [r0]
	movs	r1, #48
	.loc	5 85 35 is_stmt 0               @ ../../Library/StdDriver/src/spi.c:85:35
	ands	r0, r1
.Ltmp24:
	.loc	5 85 21                         @ ../../Library/StdDriver/src/spi.c:85:21
	cmp	r0, #16
	bne	.LBB0_14
	b	.LBB0_13
.LBB0_13:
.Ltmp25:
	.loc	5 86 29 is_stmt 1               @ ../../Library/StdDriver/src/spi.c:86:29
	bl	CLK_GetPLLClockFreq
	.loc	5 86 27 is_stmt 0               @ ../../Library/StdDriver/src/spi.c:86:27
	str	r0, [sp, #16]
	.loc	5 86 17                         @ ../../Library/StdDriver/src/spi.c:86:17
	b	.LBB0_18
.LBB0_14:
	.loc	5 0 17                          @ ../../Library/StdDriver/src/spi.c:0:17
	ldr	r0, __arm_cp.0_1
.Ltmp26:
	.loc	5 87 27 is_stmt 1               @ ../../Library/StdDriver/src/spi.c:87:27
	ldr	r0, [r0]
	movs	r1, #48
	.loc	5 87 35 is_stmt 0               @ ../../Library/StdDriver/src/spi.c:87:35
	ands	r0, r1
.Ltmp27:
	.loc	5 87 21                         @ ../../Library/StdDriver/src/spi.c:87:21
	cmp	r0, #32
	bne	.LBB0_16
	b	.LBB0_15
.LBB0_15:
.Ltmp28:
	.loc	5 88 29 is_stmt 1               @ ../../Library/StdDriver/src/spi.c:88:29
	ldr	r0, [sp, #8]
	ldr	r1, __arm_cp.0_2
	.loc	5 88 50 is_stmt 0               @ ../../Library/StdDriver/src/spi.c:88:50
	ldr	r1, [r1]
	movs	r2, #7
	.loc	5 88 58                         @ ../../Library/StdDriver/src/spi.c:88:58
	ands	r1, r2
	.loc	5 88 84                         @ ../../Library/StdDriver/src/spi.c:88:84
	adds	r1, r1, #1
	.loc	5 88 41                         @ ../../Library/StdDriver/src/spi.c:88:41
	bl	__aeabi_uidiv
	.loc	5 88 27                         @ ../../Library/StdDriver/src/spi.c:88:27
	str	r0, [sp, #16]
	.loc	5 88 17                         @ ../../Library/StdDriver/src/spi.c:88:17
	b	.LBB0_17
.LBB0_16:
	.loc	5 0 17                          @ ../../Library/StdDriver/src/spi.c:0:17
	ldr	r0, __arm_cp.0_3
	.loc	5 90 27 is_stmt 1               @ ../../Library/StdDriver/src/spi.c:90:27
	str	r0, [sp, #16]
	b	.LBB0_17
.Ltmp29:
.LBB0_17:
	.loc	5 0 27 is_stmt 0                @ ../../Library/StdDriver/src/spi.c:0:27
	b	.LBB0_18
.LBB0_18:
	b	.LBB0_19
.LBB0_19:
	.loc	5 91 9 is_stmt 1                @ ../../Library/StdDriver/src/spi.c:91:9
	b	.LBB0_20
.Ltmp30:
.LBB0_20:
	.loc	5 93 12                         @ ../../Library/StdDriver/src/spi.c:93:12
	ldr	r0, [sp, #48]
	.loc	5 93 27 is_stmt 0               @ ../../Library/StdDriver/src/spi.c:93:27
	ldr	r1, [sp, #8]
.Ltmp31:
	.loc	5 93 12                         @ ../../Library/StdDriver/src/spi.c:93:12
	cmp	r0, r1
	blo	.LBB0_22
	b	.LBB0_21
.LBB0_21:
.Ltmp32:
	.loc	5 96 13 is_stmt 1               @ ../../Library/StdDriver/src/spi.c:96:13
	ldr	r1, [sp, #32]
	movs	r0, #0
	.loc	5 96 25 is_stmt 0               @ ../../Library/StdDriver/src/spi.c:96:25
	str	r0, [r1, #4]
	.loc	5 98 20 is_stmt 1               @ ../../Library/StdDriver/src/spi.c:98:20
	ldr	r0, [sp, #16]
	.loc	5 98 13 is_stmt 0               @ ../../Library/StdDriver/src/spi.c:98:13
	str	r0, [sp, #36]
	b	.LBB0_30
.Ltmp33:
.LBB0_22:
	.loc	5 100 17 is_stmt 1              @ ../../Library/StdDriver/src/spi.c:100:17
	ldr	r0, [sp, #48]
	.loc	5 100 32 is_stmt 0              @ ../../Library/StdDriver/src/spi.c:100:32
	ldr	r1, [sp, #16]
.Ltmp34:
	.loc	5 100 17                        @ ../../Library/StdDriver/src/spi.c:100:17
	cmp	r0, r1
	blo	.LBB0_24
	b	.LBB0_23
.LBB0_23:
.Ltmp35:
	.loc	5 103 13 is_stmt 1              @ ../../Library/StdDriver/src/spi.c:103:13
	ldr	r1, [sp, #32]
	movs	r0, #0
	.loc	5 103 25 is_stmt 0              @ ../../Library/StdDriver/src/spi.c:103:25
	str	r0, [r1, #4]
	.loc	5 105 20 is_stmt 1              @ ../../Library/StdDriver/src/spi.c:105:20
	ldr	r0, [sp, #16]
	.loc	5 105 13 is_stmt 0              @ ../../Library/StdDriver/src/spi.c:105:13
	str	r0, [sp, #36]
	b	.LBB0_30
.Ltmp36:
.LBB0_24:
	.loc	5 107 17 is_stmt 1              @ ../../Library/StdDriver/src/spi.c:107:17
	ldr	r0, [sp, #48]
.Ltmp37:
	.loc	5 107 17 is_stmt 0              @ ../../Library/StdDriver/src/spi.c:107:17
	cmp	r0, #0
	bne	.LBB0_26
	b	.LBB0_25
.LBB0_25:
.Ltmp38:
	.loc	5 110 13 is_stmt 1              @ ../../Library/StdDriver/src/spi.c:110:13
	ldr	r1, [sp, #32]
	.loc	5 110 25 is_stmt 0              @ ../../Library/StdDriver/src/spi.c:110:25
	ldr	r0, [r1, #4]
	ldr	r2, __arm_cp.0_6
	orrs	r0, r2
	str	r0, [r1, #4]
	.loc	5 112 21 is_stmt 1              @ ../../Library/StdDriver/src/spi.c:112:21
	ldr	r0, [sp, #16]
	.loc	5 112 31 is_stmt 0              @ ../../Library/StdDriver/src/spi.c:112:31
	lsrs	r0, r0, #8
	.loc	5 112 13                        @ ../../Library/StdDriver/src/spi.c:112:13
	str	r0, [sp, #36]
	b	.LBB0_30
.Ltmp39:
.LBB0_26:
	.loc	5 116 25 is_stmt 1              @ ../../Library/StdDriver/src/spi.c:116:25
	ldr	r1, [sp, #16]
	movs	r0, #10
	.loc	5 116 35 is_stmt 0              @ ../../Library/StdDriver/src/spi.c:116:35
	str	r0, [sp, #4]                    @ 4-byte Spill
	muls	r0, r1, r0
	.loc	5 116 43                        @ ../../Library/StdDriver/src/spi.c:116:43
	ldr	r1, [sp, #48]
	.loc	5 116 41                        @ ../../Library/StdDriver/src/spi.c:116:41
	bl	__aeabi_uidiv
	ldr	r1, [sp, #4]                    @ 4-byte Reload
	.loc	5 116 55                        @ ../../Library/StdDriver/src/spi.c:116:55
	adds	r0, r0, #5
	.loc	5 116 60                        @ ../../Library/StdDriver/src/spi.c:116:60
	bl	__aeabi_uidiv
	.loc	5 116 66                        @ ../../Library/StdDriver/src/spi.c:116:66
	subs	r0, r0, #1
	.loc	5 116 20                        @ ../../Library/StdDriver/src/spi.c:116:20
	str	r0, [sp, #12]
.Ltmp40:
	.loc	5 117 16 is_stmt 1              @ ../../Library/StdDriver/src/spi.c:117:16
	ldr	r0, [sp, #12]
.Ltmp41:
	.loc	5 117 16 is_stmt 0              @ ../../Library/StdDriver/src/spi.c:117:16
	lsrs	r0, r0, #8
	cmp	r0, #0
	beq	.LBB0_28
	b	.LBB0_27
.LBB0_27:
	.loc	5 0 16                          @ ../../Library/StdDriver/src/spi.c:0:16
	movs	r0, #255
.Ltmp42:
	.loc	5 119 24 is_stmt 1              @ ../../Library/StdDriver/src/spi.c:119:24
	str	r0, [sp, #12]
	.loc	5 120 17                        @ ../../Library/StdDriver/src/spi.c:120:17
	ldr	r1, [sp, #32]
	.loc	5 120 29 is_stmt 0              @ ../../Library/StdDriver/src/spi.c:120:29
	ldr	r0, [r1, #4]
	ldr	r2, __arm_cp.0_6
	orrs	r0, r2
	str	r0, [r1, #4]
	.loc	5 122 25 is_stmt 1              @ ../../Library/StdDriver/src/spi.c:122:25
	ldr	r0, [sp, #16]
	.loc	5 122 35 is_stmt 0              @ ../../Library/StdDriver/src/spi.c:122:35
	lsrs	r0, r0, #8
	.loc	5 122 17                        @ ../../Library/StdDriver/src/spi.c:122:17
	str	r0, [sp, #36]
	b	.LBB0_30
.Ltmp43:
.LBB0_28:
	.loc	5 126 32 is_stmt 1              @ ../../Library/StdDriver/src/spi.c:126:32
	ldr	r0, [sp, #32]
	.loc	5 126 37 is_stmt 0              @ ../../Library/StdDriver/src/spi.c:126:37
	ldr	r0, [r0, #4]
	ldr	r1, __arm_cp.0_5
	.loc	5 126 44                        @ ../../Library/StdDriver/src/spi.c:126:44
	ands	r0, r1
	.loc	5 126 76                        @ ../../Library/StdDriver/src/spi.c:126:76
	ldr	r1, [sp, #12]
	.loc	5 126 73                        @ ../../Library/StdDriver/src/spi.c:126:73
	orrs	r0, r1
	.loc	5 126 17                        @ ../../Library/StdDriver/src/spi.c:126:17
	ldr	r1, [sp, #32]
	.loc	5 126 29                        @ ../../Library/StdDriver/src/spi.c:126:29
	str	r0, [r1, #4]
	.loc	5 128 25 is_stmt 1              @ ../../Library/StdDriver/src/spi.c:128:25
	ldr	r0, [sp, #16]
	.loc	5 128 38 is_stmt 0              @ ../../Library/StdDriver/src/spi.c:128:38
	ldr	r1, [sp, #12]
	.loc	5 128 45                        @ ../../Library/StdDriver/src/spi.c:128:45
	adds	r1, r1, #1
	.loc	5 128 35                        @ ../../Library/StdDriver/src/spi.c:128:35
	bl	__aeabi_uidiv
	.loc	5 128 17                        @ ../../Library/StdDriver/src/spi.c:128:17
	str	r0, [sp, #36]
	b	.LBB0_30
.Ltmp44:
.LBB0_29:
	.loc	5 135 9 is_stmt 1               @ ../../Library/StdDriver/src/spi.c:135:9
	ldr	r1, [sp, #32]
	movs	r0, #0
	.loc	5 135 20 is_stmt 0              @ ../../Library/StdDriver/src/spi.c:135:20
	str	r0, [r1, #8]
	.loc	5 138 20 is_stmt 1              @ ../../Library/StdDriver/src/spi.c:138:20
	ldr	r1, [sp, #28]
	.loc	5 138 38 is_stmt 0              @ ../../Library/StdDriver/src/spi.c:138:38
	ldr	r2, [sp, #20]
	.loc	5 138 51                        @ ../../Library/StdDriver/src/spi.c:138:51
	lsls	r2, r2, #8
	.loc	5 138 35                        @ ../../Library/StdDriver/src/spi.c:138:35
	orrs	r1, r2
	.loc	5 138 77                        @ ../../Library/StdDriver/src/spi.c:138:77
	ldr	r2, [sp, #24]
	.loc	5 138 74                        @ ../../Library/StdDriver/src/spi.c:138:74
	orrs	r1, r2
	movs	r2, #1
	.loc	5 138 89                        @ ../../Library/StdDriver/src/spi.c:138:89
	orrs	r1, r2
	.loc	5 138 9                         @ ../../Library/StdDriver/src/spi.c:138:9
	ldr	r2, [sp, #32]
	.loc	5 138 18                        @ ../../Library/StdDriver/src/spi.c:138:18
	str	r1, [r2]
	.loc	5 141 9 is_stmt 1               @ ../../Library/StdDriver/src/spi.c:141:9
	ldr	r1, [sp, #32]
	.loc	5 141 21 is_stmt 0              @ ../../Library/StdDriver/src/spi.c:141:21
	str	r0, [r1, #4]
	ldr	r1, __arm_cp.0_1
	.loc	5 144 30 is_stmt 1              @ ../../Library/StdDriver/src/spi.c:144:30
	ldr	r0, [r1]
	movs	r2, #32
	.loc	5 144 38 is_stmt 0              @ ../../Library/StdDriver/src/spi.c:144:38
	orrs	r0, r2
	movs	r2, #16
	.loc	5 144 68                        @ ../../Library/StdDriver/src/spi.c:144:68
	bics	r0, r2
	.loc	5 144 22                        @ ../../Library/StdDriver/src/spi.c:144:22
	str	r0, [r1]
	.loc	5 146 17 is_stmt 1              @ ../../Library/StdDriver/src/spi.c:146:17
	bl	CLK_GetHCLKFreq
	ldr	r1, __arm_cp.0_2
	.loc	5 146 44 is_stmt 0              @ ../../Library/StdDriver/src/spi.c:146:44
	ldr	r1, [r1]
	movs	r2, #7
	.loc	5 146 52                        @ ../../Library/StdDriver/src/spi.c:146:52
	ands	r1, r2
	.loc	5 146 78                        @ ../../Library/StdDriver/src/spi.c:146:78
	adds	r1, r1, #1
	.loc	5 146 35                        @ ../../Library/StdDriver/src/spi.c:146:35
	bl	__aeabi_uidiv
	.loc	5 146 9                         @ ../../Library/StdDriver/src/spi.c:146:9
	str	r0, [sp, #36]
	b	.LBB0_30
.Ltmp45:
.LBB0_30:
	.loc	5 148 1 is_stmt 1               @ ../../Library/StdDriver/src/spi.c:148:1
	ldr	r0, [sp, #36]
	add	sp, #40
	pop	{r4, pc}
.Ltmp46:
	.p2align	2
@ %bb.31:
	.loc	5 0 1 is_stmt 0                 @ ../../Library/StdDriver/src/spi.c:0:1
__arm_cp.0_0:
	.long	1074139136                      @ 0x40061000
.Lcpi_end0:
	.size	__arm_cp.0_0, .Lcpi_end0-__arm_cp.0_0
__arm_cp.0_1:
	.long	1073742360                      @ 0x40000218
.Lcpi_end1:
	.size	__arm_cp.0_1, .Lcpi_end1-__arm_cp.0_1
__arm_cp.0_2:
	.long	1073742388                      @ 0x40000234
.Lcpi_end2:
	.size	__arm_cp.0_2, .Lcpi_end2-__arm_cp.0_2
__arm_cp.0_3:
	.long	48000000                        @ 0x2dc6c00
.Lcpi_end3:
	.size	__arm_cp.0_3, .Lcpi_end3-__arm_cp.0_3
__arm_cp.0_4:
	.long	32000000                        @ 0x1e84800
.Lcpi_end4:
	.size	__arm_cp.0_4, .Lcpi_end4-__arm_cp.0_4
__arm_cp.0_5:
	.long	4294966784                      @ 0xfffffe00
.Lcpi_end5:
	.size	__arm_cp.0_5, .Lcpi_end5-__arm_cp.0_5
__arm_cp.0_6:
	.long	511                             @ 0x1ff
.Lcpi_end6:
	.size	__arm_cp.0_6, .Lcpi_end6-__arm_cp.0_6
.Lfunc_end0:
	.size	SPI_Open, .Lfunc_end0-SPI_Open
	.cfi_endproc
	.cantunwind
	.fnend
                                        @ -- End function
	.section	.text.CLK_GetPLLClockFreq,"ax",%progbits
	.p2align	2                               @ -- Begin function CLK_GetPLLClockFreq
	.type	CLK_GetPLLClockFreq,%function
	.code	16                              @ @CLK_GetPLLClockFreq
	.thumb_func
CLK_GetPLLClockFreq:
.Lfunc_begin1:
	.file	6 "D:\\Projects\\CCMSFloridaPhpr\\Application\\KEIL" "../../Library/StdDriver/inc\\clk.h"
	.loc	6 462 0 is_stmt 1               @ ../../Library/StdDriver/inc\clk.h:462:0
	.fnstart
	.cfi_startproc
@ %bb.0:
	.save	{r7, lr}
	push	{r7, lr}
	.cfi_def_cfa_offset 8
	.cfi_offset lr, -4
	.cfi_offset r7, -8
	.pad	#32
	sub	sp, #32
	.cfi_def_cfa_offset 40
	ldr	r0, __arm_cp.1_0
.Ltmp47:
	.loc	6 465 13 prologue_end           @ ../../Library/StdDriver/inc\clk.h:465:13
	str	r0, [sp, #8]
	movs	r0, #0
	.loc	6 468 16                        @ ../../Library/StdDriver/inc\clk.h:468:16
	str	r0, [sp, #28]
	ldr	r0, __arm_cp.1_1
	.loc	6 469 19                        @ ../../Library/StdDriver/inc\clk.h:469:19
	ldr	r0, [r0]
	.loc	6 469 12 is_stmt 0              @ ../../Library/StdDriver/inc\clk.h:469:12
	str	r0, [sp, #4]
	add	r0, sp, #4
	.loc	6 471 9 is_stmt 1               @ ../../Library/StdDriver/inc\clk.h:471:9
	ldrb	r0, [r0, #2]
	movs	r1, #5
	tst	r0, r1
	bne	.LBB1_8
	b	.LBB1_1
.LBB1_1:
	.loc	6 0 9 is_stmt 0                 @ ../../Library/StdDriver/inc\clk.h:0:9
	add	r0, sp, #4
.Ltmp48:
	.loc	6 474 13 is_stmt 1              @ ../../Library/StdDriver/inc\clk.h:474:13
	ldrb	r0, [r0, #2]
	lsls	r0, r0, #28
	cmp	r0, #0
	bpl	.LBB1_3
	b	.LBB1_2
.LBB1_2:
	.loc	6 0 13 is_stmt 0                @ ../../Library/StdDriver/inc\clk.h:0:13
	ldr	r0, __arm_cp.1_3
.Ltmp49:
	.loc	6 476 20 is_stmt 1              @ ../../Library/StdDriver/inc\clk.h:476:20
	str	r0, [sp, #24]
	.loc	6 477 9                         @ ../../Library/StdDriver/inc\clk.h:477:9
	b	.LBB1_4
.Ltmp50:
.LBB1_3:
	.loc	6 0 9 is_stmt 0                 @ ../../Library/StdDriver/inc\clk.h:0:9
	ldr	r0, __arm_cp.1_2
	.loc	6 478 20 is_stmt 1              @ ../../Library/StdDriver/inc\clk.h:478:20
	str	r0, [sp, #24]
	b	.LBB1_4
.Ltmp51:
.LBB1_4:
	.loc	6 0 20 is_stmt 0                @ ../../Library/StdDriver/inc\clk.h:0:20
	add	r0, sp, #4
	.loc	6 480 13 is_stmt 1              @ ../../Library/StdDriver/inc\clk.h:480:13
	ldrb	r0, [r0, #2]
	lsls	r0, r0, #30
	cmp	r0, #0
	bpl	.LBB1_6
	b	.LBB1_5
.LBB1_5:
.Ltmp52:
	.loc	6 483 26                        @ ../../Library/StdDriver/inc\clk.h:483:26
	ldr	r0, [sp, #24]
	.loc	6 483 24 is_stmt 0              @ ../../Library/StdDriver/inc\clk.h:483:24
	str	r0, [sp, #28]
	.loc	6 484 9 is_stmt 1               @ ../../Library/StdDriver/inc\clk.h:484:9
	b	.LBB1_7
.Ltmp53:
.LBB1_6:
	.loc	6 0 9 is_stmt 0                 @ ../../Library/StdDriver/inc\clk.h:0:9
	add	r0, sp, #4
.Ltmp54:
	.loc	6 488 32 is_stmt 1              @ ../../Library/StdDriver/inc\clk.h:488:32
	ldrh	r0, [r0]
	.loc	6 488 64 is_stmt 0              @ ../../Library/StdDriver/inc\clk.h:488:64
	lsrs	r1, r0, #14
	add	r0, sp, #8
	.loc	6 488 21                        @ ../../Library/StdDriver/inc\clk.h:488:21
	adds	r0, r0, r1
	ldrb	r0, [r0]
	.loc	6 488 19                        @ ../../Library/StdDriver/inc\clk.h:488:19
	str	r0, [sp, #12]
	.loc	6 489 24 is_stmt 1              @ ../../Library/StdDriver/inc\clk.h:489:24
	ldr	r0, [sp, #4]
	ldr	r1, __arm_cp.1_4
	.loc	6 489 31 is_stmt 0              @ ../../Library/StdDriver/inc\clk.h:489:31
	ands	r0, r1
	.loc	6 489 80                        @ ../../Library/StdDriver/inc\clk.h:489:80
	adds	r0, r0, #2
	.loc	6 489 20                        @ ../../Library/StdDriver/inc\clk.h:489:20
	str	r0, [sp, #20]
	.loc	6 490 24 is_stmt 1              @ ../../Library/StdDriver/inc\clk.h:490:24
	ldr	r0, [sp, #4]
	movs	r1, #31
	lsls	r1, r1, #9
	.loc	6 490 31 is_stmt 0              @ ../../Library/StdDriver/inc\clk.h:490:31
	ands	r0, r1
	.loc	6 490 55                        @ ../../Library/StdDriver/inc\clk.h:490:55
	lsrs	r0, r0, #9
	.loc	6 490 80                        @ ../../Library/StdDriver/inc\clk.h:490:80
	adds	r0, r0, #2
	.loc	6 490 20                        @ ../../Library/StdDriver/inc\clk.h:490:20
	str	r0, [sp, #16]
	.loc	6 492 29 is_stmt 1              @ ../../Library/StdDriver/inc\clk.h:492:29
	ldr	r0, [sp, #24]
	.loc	6 492 36 is_stmt 0              @ ../../Library/StdDriver/inc\clk.h:492:36
	lsrs	r1, r0, #2
	.loc	6 492 44                        @ ../../Library/StdDriver/inc\clk.h:492:44
	ldr	r0, [sp, #20]
	.loc	6 492 42                        @ ../../Library/StdDriver/inc\clk.h:492:42
	muls	r0, r1, r0
	.loc	6 492 54                        @ ../../Library/StdDriver/inc\clk.h:492:54
	ldr	r2, [sp, #16]
	.loc	6 492 62                        @ ../../Library/StdDriver/inc\clk.h:492:62
	ldr	r1, [sp, #12]
	.loc	6 492 60                        @ ../../Library/StdDriver/inc\clk.h:492:60
	muls	r1, r2, r1
	.loc	6 492 51                        @ ../../Library/StdDriver/inc\clk.h:492:51
	bl	__aeabi_uidiv
	.loc	6 492 69                        @ ../../Library/StdDriver/inc\clk.h:492:69
	lsls	r0, r0, #2
	.loc	6 492 24                        @ ../../Library/StdDriver/inc\clk.h:492:24
	str	r0, [sp, #28]
	b	.LBB1_7
.Ltmp55:
.LBB1_7:
	.loc	6 494 5 is_stmt 1               @ ../../Library/StdDriver/inc\clk.h:494:5
	b	.LBB1_8
.Ltmp56:
.LBB1_8:
	.loc	6 496 12                        @ ../../Library/StdDriver/inc\clk.h:496:12
	ldr	r0, [sp, #28]
	.loc	6 496 5 is_stmt 0               @ ../../Library/StdDriver/inc\clk.h:496:5
	add	sp, #32
	pop	{r7, pc}
.Ltmp57:
	.p2align	2
@ %bb.9:
	.loc	6 0 5                           @ ../../Library/StdDriver/inc\clk.h:0:5
__arm_cp.1_0:
	.long	67240449                        @ 0x4020201
.Lcpi_end7:
	.size	__arm_cp.1_0, .Lcpi_end7-__arm_cp.1_0
__arm_cp.1_1:
	.long	1073742400                      @ 0x40000240
.Lcpi_end8:
	.size	__arm_cp.1_1, .Lcpi_end8-__arm_cp.1_1
__arm_cp.1_2:
	.long	32000000                        @ 0x1e84800
.Lcpi_end9:
	.size	__arm_cp.1_2, .Lcpi_end9-__arm_cp.1_2
__arm_cp.1_3:
	.long	12000000                        @ 0xb71b00
.Lcpi_end10:
	.size	__arm_cp.1_3, .Lcpi_end10-__arm_cp.1_3
__arm_cp.1_4:
	.long	511                             @ 0x1ff
.Lcpi_end11:
	.size	__arm_cp.1_4, .Lcpi_end11-__arm_cp.1_4
.Lfunc_end1:
	.size	CLK_GetPLLClockFreq, .Lfunc_end1-CLK_GetPLLClockFreq
	.cfi_endproc
	.cantunwind
	.fnend
                                        @ -- End function
	.section	.text.SPI_Close,"ax",%progbits
	.hidden	SPI_Close                       @ -- Begin function SPI_Close
	.globl	SPI_Close
	.p2align	2
	.type	SPI_Close,%function
	.code	16                              @ @SPI_Close
	.thumb_func
SPI_Close:
.Lfunc_begin2:
	.loc	5 157 0 is_stmt 1               @ ../../Library/StdDriver/src/spi.c:157:0
	.fnstart
	.cfi_startproc
@ %bb.0:
	.pad	#4
	sub	sp, #4
	.cfi_def_cfa_offset 4
	str	r0, [sp]
.Ltmp58:
	.loc	5 158 8 prologue_end            @ ../../Library/StdDriver/src/spi.c:158:8
	ldr	r0, [sp]
	ldr	r1, __arm_cp.2_0
.Ltmp59:
	.loc	5 158 8 is_stmt 0               @ ../../Library/StdDriver/src/spi.c:158:8
	cmp	r0, r1
	bne	.LBB2_2
	b	.LBB2_1
.LBB2_1:
	.loc	5 0 8                           @ ../../Library/StdDriver/src/spi.c:0:8
	ldr	r1, __arm_cp.2_1
.Ltmp60:
	.loc	5 161 21 is_stmt 1              @ ../../Library/StdDriver/src/spi.c:161:21
	ldr	r0, [r1]
	movs	r2, #1
	lsls	r2, r2, #13
	orrs	r0, r2
	str	r0, [r1]
	.loc	5 162 21                        @ ../../Library/StdDriver/src/spi.c:162:21
	ldr	r0, [r1]
	bics	r0, r2
	str	r0, [r1]
	.loc	5 163 5                         @ ../../Library/StdDriver/src/spi.c:163:5
	b	.LBB2_2
.Ltmp61:
.LBB2_2:
	.loc	5 164 1                         @ ../../Library/StdDriver/src/spi.c:164:1
	add	sp, #4
	bx	lr
.Ltmp62:
	.p2align	2
@ %bb.3:
	.loc	5 0 1 is_stmt 0                 @ ../../Library/StdDriver/src/spi.c:0:1
__arm_cp.2_0:
	.long	1074139136                      @ 0x40061000
.Lcpi_end12:
	.size	__arm_cp.2_0, .Lcpi_end12-__arm_cp.2_0
__arm_cp.2_1:
	.long	1073741836                      @ 0x4000000c
.Lcpi_end13:
	.size	__arm_cp.2_1, .Lcpi_end13-__arm_cp.2_1
.Lfunc_end2:
	.size	SPI_Close, .Lfunc_end2-SPI_Close
	.cfi_endproc
	.cantunwind
	.fnend
                                        @ -- End function
	.section	.text.SPI_ClearRxFIFO,"ax",%progbits
	.hidden	SPI_ClearRxFIFO                 @ -- Begin function SPI_ClearRxFIFO
	.globl	SPI_ClearRxFIFO
	.p2align	1
	.type	SPI_ClearRxFIFO,%function
	.code	16                              @ @SPI_ClearRxFIFO
	.thumb_func
SPI_ClearRxFIFO:
.Lfunc_begin3:
	.loc	5 173 0 is_stmt 1               @ ../../Library/StdDriver/src/spi.c:173:0
	.fnstart
	.cfi_startproc
@ %bb.0:
	.pad	#4
	sub	sp, #4
	.cfi_def_cfa_offset 4
	str	r0, [sp]
.Ltmp63:
	.loc	5 174 5 prologue_end            @ ../../Library/StdDriver/src/spi.c:174:5
	ldr	r1, [sp]
	.loc	5 174 18 is_stmt 0              @ ../../Library/StdDriver/src/spi.c:174:18
	ldr	r0, [r1, #16]
	movs	r2, #1
	lsls	r2, r2, #8
	orrs	r0, r2
	str	r0, [r1, #16]
	.loc	5 175 1 is_stmt 1               @ ../../Library/StdDriver/src/spi.c:175:1
	add	sp, #4
	bx	lr
.Ltmp64:
.Lfunc_end3:
	.size	SPI_ClearRxFIFO, .Lfunc_end3-SPI_ClearRxFIFO
	.cfi_endproc
	.cantunwind
	.fnend
                                        @ -- End function
	.section	.text.SPI_ClearTxFIFO,"ax",%progbits
	.hidden	SPI_ClearTxFIFO                 @ -- Begin function SPI_ClearTxFIFO
	.globl	SPI_ClearTxFIFO
	.p2align	1
	.type	SPI_ClearTxFIFO,%function
	.code	16                              @ @SPI_ClearTxFIFO
	.thumb_func
SPI_ClearTxFIFO:
.Lfunc_begin4:
	.loc	5 185 0                         @ ../../Library/StdDriver/src/spi.c:185:0
	.fnstart
	.cfi_startproc
@ %bb.0:
	.pad	#4
	sub	sp, #4
	.cfi_def_cfa_offset 4
	str	r0, [sp]
.Ltmp65:
	.loc	5 186 5 prologue_end            @ ../../Library/StdDriver/src/spi.c:186:5
	ldr	r1, [sp]
	.loc	5 186 18 is_stmt 0              @ ../../Library/StdDriver/src/spi.c:186:18
	ldr	r0, [r1, #16]
	movs	r2, #1
	lsls	r2, r2, #9
	orrs	r0, r2
	str	r0, [r1, #16]
	.loc	5 187 1 is_stmt 1               @ ../../Library/StdDriver/src/spi.c:187:1
	add	sp, #4
	bx	lr
.Ltmp66:
.Lfunc_end4:
	.size	SPI_ClearTxFIFO, .Lfunc_end4-SPI_ClearTxFIFO
	.cfi_endproc
	.cantunwind
	.fnend
                                        @ -- End function
	.section	.text.SPI_DisableAutoSS,"ax",%progbits
	.hidden	SPI_DisableAutoSS               @ -- Begin function SPI_DisableAutoSS
	.globl	SPI_DisableAutoSS
	.p2align	1
	.type	SPI_DisableAutoSS,%function
	.code	16                              @ @SPI_DisableAutoSS
	.thumb_func
SPI_DisableAutoSS:
.Lfunc_begin5:
	.loc	5 196 0                         @ ../../Library/StdDriver/src/spi.c:196:0
	.fnstart
	.cfi_startproc
@ %bb.0:
	.pad	#4
	sub	sp, #4
	.cfi_def_cfa_offset 4
	str	r0, [sp]
.Ltmp67:
	.loc	5 197 5 prologue_end            @ ../../Library/StdDriver/src/spi.c:197:5
	ldr	r1, [sp]
	.loc	5 197 16 is_stmt 0              @ ../../Library/StdDriver/src/spi.c:197:16
	ldr	r0, [r1, #8]
	movs	r2, #9
	bics	r0, r2
	str	r0, [r1, #8]
	.loc	5 198 1 is_stmt 1               @ ../../Library/StdDriver/src/spi.c:198:1
	add	sp, #4
	bx	lr
.Ltmp68:
.Lfunc_end5:
	.size	SPI_DisableAutoSS, .Lfunc_end5-SPI_DisableAutoSS
	.cfi_endproc
	.cantunwind
	.fnend
                                        @ -- End function
	.section	.text.SPI_EnableAutoSS,"ax",%progbits
	.hidden	SPI_EnableAutoSS                @ -- Begin function SPI_EnableAutoSS
	.globl	SPI_EnableAutoSS
	.p2align	1
	.type	SPI_EnableAutoSS,%function
	.code	16                              @ @SPI_EnableAutoSS
	.thumb_func
SPI_EnableAutoSS:
.Lfunc_begin6:
	.loc	5 210 0                         @ ../../Library/StdDriver/src/spi.c:210:0
	.fnstart
	.cfi_startproc
@ %bb.0:
	.pad	#12
	sub	sp, #12
	.cfi_def_cfa_offset 12
	str	r0, [sp, #8]
	str	r1, [sp, #4]
	str	r2, [sp]
.Ltmp69:
	.loc	5 211 19 prologue_end           @ ../../Library/StdDriver/src/spi.c:211:19
	ldr	r0, [sp, #8]
	.loc	5 211 24 is_stmt 0              @ ../../Library/StdDriver/src/spi.c:211:24
	ldr	r1, [r0, #8]
	movs	r0, #5
	.loc	5 211 30                        @ ../../Library/StdDriver/src/spi.c:211:30
	bics	r1, r0
	.loc	5 211 106                       @ ../../Library/StdDriver/src/spi.c:211:106
	ldr	r0, [sp, #4]
	.loc	5 211 121                       @ ../../Library/StdDriver/src/spi.c:211:121
	ldr	r2, [sp]
	.loc	5 211 119                       @ ../../Library/StdDriver/src/spi.c:211:119
	orrs	r0, r2
	.loc	5 211 136                       @ ../../Library/StdDriver/src/spi.c:211:136
	orrs	r0, r1
	movs	r1, #8
	.loc	5 211 103                       @ ../../Library/StdDriver/src/spi.c:211:103
	orrs	r0, r1
	.loc	5 211 5                         @ ../../Library/StdDriver/src/spi.c:211:5
	ldr	r1, [sp, #8]
	.loc	5 211 16                        @ ../../Library/StdDriver/src/spi.c:211:16
	str	r0, [r1, #8]
	.loc	5 212 1 is_stmt 1               @ ../../Library/StdDriver/src/spi.c:212:1
	add	sp, #12
	bx	lr
.Ltmp70:
.Lfunc_end6:
	.size	SPI_EnableAutoSS, .Lfunc_end6-SPI_EnableAutoSS
	.cfi_endproc
	.cantunwind
	.fnend
                                        @ -- End function
	.section	.text.SPI_SetBusClock,"ax",%progbits
	.hidden	SPI_SetBusClock                 @ -- Begin function SPI_SetBusClock
	.globl	SPI_SetBusClock
	.p2align	2
	.type	SPI_SetBusClock,%function
	.code	16                              @ @SPI_SetBusClock
	.thumb_func
SPI_SetBusClock:
.Lfunc_begin7:
	.loc	5 227 0                         @ ../../Library/StdDriver/src/spi.c:227:0
	.fnstart
	.cfi_startproc
@ %bb.0:
	.save	{r7, lr}
	push	{r7, lr}
	.cfi_def_cfa_offset 8
	.cfi_offset lr, -4
	.cfi_offset r7, -8
	.pad	#32
	sub	sp, #32
	.cfi_def_cfa_offset 40
	str	r0, [sp, #24]
	str	r1, [sp, #20]
.Ltmp71:
	.loc	5 232 8 prologue_end            @ ../../Library/StdDriver/src/spi.c:232:8
	ldr	r0, [sp, #24]
	ldr	r1, __arm_cp.7_0
.Ltmp72:
	.loc	5 232 8 is_stmt 0               @ ../../Library/StdDriver/src/spi.c:232:8
	cmp	r0, r1
	beq	.LBB7_2
	b	.LBB7_1
.LBB7_1:
	.loc	5 0 8                           @ ../../Library/StdDriver/src/spi.c:0:8
	movs	r0, #0
.Ltmp73:
	.loc	5 232 21                        @ ../../Library/StdDriver/src/spi.c:232:21
	str	r0, [sp, #28]
	b	.LBB7_26
.Ltmp74:
.LBB7_2:
	.loc	5 235 19 is_stmt 1              @ ../../Library/StdDriver/src/spi.c:235:19
	bl	CLK_GetHCLKFreq
	.loc	5 235 17 is_stmt 0              @ ../../Library/StdDriver/src/spi.c:235:17
	str	r0, [sp, #12]
.Ltmp75:
	.loc	5 237 8 is_stmt 1               @ ../../Library/StdDriver/src/spi.c:237:8
	ldr	r0, [sp, #20]
	.loc	5 237 23 is_stmt 0              @ ../../Library/StdDriver/src/spi.c:237:23
	ldr	r1, [sp, #12]
.Ltmp76:
	.loc	5 237 8                         @ ../../Library/StdDriver/src/spi.c:237:8
	cmp	r0, r1
	blo	.LBB7_6
	b	.LBB7_3
.LBB7_3:
.Ltmp77:
	.loc	5 240 12 is_stmt 1              @ ../../Library/StdDriver/src/spi.c:240:12
	ldr	r0, [sp, #24]
	ldr	r1, __arm_cp.7_0
.Ltmp78:
	.loc	5 240 12 is_stmt 0              @ ../../Library/StdDriver/src/spi.c:240:12
	cmp	r0, r1
	bne	.LBB7_5
	b	.LBB7_4
.LBB7_4:
	.loc	5 0 12                          @ ../../Library/StdDriver/src/spi.c:0:12
	ldr	r1, __arm_cp.7_1
.Ltmp79:
	.loc	5 241 34 is_stmt 1              @ ../../Library/StdDriver/src/spi.c:241:34
	ldr	r0, [r1]
	movs	r2, #32
	.loc	5 241 42 is_stmt 0              @ ../../Library/StdDriver/src/spi.c:241:42
	orrs	r0, r2
	movs	r2, #16
	.loc	5 241 72                        @ ../../Library/StdDriver/src/spi.c:241:72
	bics	r0, r2
	.loc	5 241 26                        @ ../../Library/StdDriver/src/spi.c:241:26
	str	r0, [r1]
	.loc	5 241 13                        @ ../../Library/StdDriver/src/spi.c:241:13
	b	.LBB7_5
.Ltmp80:
.LBB7_5:
	.loc	5 242 5 is_stmt 1               @ ../../Library/StdDriver/src/spi.c:242:5
	b	.LBB7_6
.Ltmp81:
.LBB7_6:
	.loc	5 245 8                         @ ../../Library/StdDriver/src/spi.c:245:8
	ldr	r0, [sp, #24]
	ldr	r1, __arm_cp.7_0
.Ltmp82:
	.loc	5 245 8 is_stmt 0               @ ../../Library/StdDriver/src/spi.c:245:8
	cmp	r0, r1
	bne	.LBB7_17
	b	.LBB7_7
.LBB7_7:
	.loc	5 0 8                           @ ../../Library/StdDriver/src/spi.c:0:8
	ldr	r0, __arm_cp.7_1
.Ltmp83:
	.loc	5 247 18 is_stmt 1              @ ../../Library/StdDriver/src/spi.c:247:18
	ldr	r0, [r0]
.Ltmp84:
	.loc	5 247 12 is_stmt 0              @ ../../Library/StdDriver/src/spi.c:247:12
	lsls	r0, r0, #26
	lsrs	r0, r0, #30
	cmp	r0, #0
	bne	.LBB7_9
	b	.LBB7_8
.LBB7_8:
	.loc	5 0 12                          @ ../../Library/StdDriver/src/spi.c:0:12
	ldr	r0, __arm_cp.7_4
.Ltmp85:
	.loc	5 248 23 is_stmt 1              @ ../../Library/StdDriver/src/spi.c:248:23
	str	r0, [sp, #16]
	.loc	5 248 13 is_stmt 0              @ ../../Library/StdDriver/src/spi.c:248:13
	b	.LBB7_16
.LBB7_9:
	.loc	5 0 13                          @ ../../Library/StdDriver/src/spi.c:0:13
	ldr	r0, __arm_cp.7_1
.Ltmp86:
	.loc	5 249 23 is_stmt 1              @ ../../Library/StdDriver/src/spi.c:249:23
	ldr	r0, [r0]
	movs	r1, #48
	.loc	5 249 31 is_stmt 0              @ ../../Library/StdDriver/src/spi.c:249:31
	ands	r0, r1
.Ltmp87:
	.loc	5 249 17                        @ ../../Library/StdDriver/src/spi.c:249:17
	cmp	r0, #16
	bne	.LBB7_11
	b	.LBB7_10
.LBB7_10:
.Ltmp88:
	.loc	5 250 25 is_stmt 1              @ ../../Library/StdDriver/src/spi.c:250:25
	bl	CLK_GetPLLClockFreq
	.loc	5 250 23 is_stmt 0              @ ../../Library/StdDriver/src/spi.c:250:23
	str	r0, [sp, #16]
	.loc	5 250 13                        @ ../../Library/StdDriver/src/spi.c:250:13
	b	.LBB7_15
.LBB7_11:
	.loc	5 0 13                          @ ../../Library/StdDriver/src/spi.c:0:13
	ldr	r0, __arm_cp.7_1
.Ltmp89:
	.loc	5 251 23 is_stmt 1              @ ../../Library/StdDriver/src/spi.c:251:23
	ldr	r0, [r0]
	movs	r1, #48
	.loc	5 251 31 is_stmt 0              @ ../../Library/StdDriver/src/spi.c:251:31
	ands	r0, r1
.Ltmp90:
	.loc	5 251 17                        @ ../../Library/StdDriver/src/spi.c:251:17
	cmp	r0, #32
	bne	.LBB7_13
	b	.LBB7_12
.LBB7_12:
.Ltmp91:
	.loc	5 252 25 is_stmt 1              @ ../../Library/StdDriver/src/spi.c:252:25
	bl	CLK_GetHCLKFreq
	ldr	r1, __arm_cp.7_3
	.loc	5 252 52 is_stmt 0              @ ../../Library/StdDriver/src/spi.c:252:52
	ldr	r1, [r1]
	movs	r2, #7
	.loc	5 252 60                        @ ../../Library/StdDriver/src/spi.c:252:60
	ands	r1, r2
	.loc	5 252 86                        @ ../../Library/StdDriver/src/spi.c:252:86
	adds	r1, r1, #1
	.loc	5 252 43                        @ ../../Library/StdDriver/src/spi.c:252:43
	bl	__aeabi_uidiv
	.loc	5 252 23                        @ ../../Library/StdDriver/src/spi.c:252:23
	str	r0, [sp, #16]
	.loc	5 252 13                        @ ../../Library/StdDriver/src/spi.c:252:13
	b	.LBB7_14
.LBB7_13:
	.loc	5 0 13                          @ ../../Library/StdDriver/src/spi.c:0:13
	ldr	r0, __arm_cp.7_2
	.loc	5 254 23 is_stmt 1              @ ../../Library/StdDriver/src/spi.c:254:23
	str	r0, [sp, #16]
	b	.LBB7_14
.Ltmp92:
.LBB7_14:
	.loc	5 0 23 is_stmt 0                @ ../../Library/StdDriver/src/spi.c:0:23
	b	.LBB7_15
.LBB7_15:
	b	.LBB7_16
.LBB7_16:
	.loc	5 255 5 is_stmt 1               @ ../../Library/StdDriver/src/spi.c:255:5
	b	.LBB7_17
.Ltmp93:
.LBB7_17:
	.loc	5 257 8                         @ ../../Library/StdDriver/src/spi.c:257:8
	ldr	r0, [sp, #20]
	.loc	5 257 23 is_stmt 0              @ ../../Library/StdDriver/src/spi.c:257:23
	ldr	r1, [sp, #12]
.Ltmp94:
	.loc	5 257 8                         @ ../../Library/StdDriver/src/spi.c:257:8
	cmp	r0, r1
	blo	.LBB7_19
	b	.LBB7_18
.LBB7_18:
.Ltmp95:
	.loc	5 260 9 is_stmt 1               @ ../../Library/StdDriver/src/spi.c:260:9
	ldr	r1, [sp, #24]
	movs	r0, #0
	.loc	5 260 21 is_stmt 0              @ ../../Library/StdDriver/src/spi.c:260:21
	str	r0, [r1, #4]
	.loc	5 262 16 is_stmt 1              @ ../../Library/StdDriver/src/spi.c:262:16
	ldr	r0, [sp, #16]
	.loc	5 262 9 is_stmt 0               @ ../../Library/StdDriver/src/spi.c:262:9
	str	r0, [sp, #28]
	b	.LBB7_26
.Ltmp96:
.LBB7_19:
	.loc	5 264 13 is_stmt 1              @ ../../Library/StdDriver/src/spi.c:264:13
	ldr	r0, [sp, #20]
	.loc	5 264 28 is_stmt 0              @ ../../Library/StdDriver/src/spi.c:264:28
	ldr	r1, [sp, #16]
.Ltmp97:
	.loc	5 264 13                        @ ../../Library/StdDriver/src/spi.c:264:13
	cmp	r0, r1
	blo	.LBB7_21
	b	.LBB7_20
.LBB7_20:
.Ltmp98:
	.loc	5 267 9 is_stmt 1               @ ../../Library/StdDriver/src/spi.c:267:9
	ldr	r1, [sp, #24]
	movs	r0, #0
	.loc	5 267 21 is_stmt 0              @ ../../Library/StdDriver/src/spi.c:267:21
	str	r0, [r1, #4]
	.loc	5 269 16 is_stmt 1              @ ../../Library/StdDriver/src/spi.c:269:16
	ldr	r0, [sp, #16]
	.loc	5 269 9 is_stmt 0               @ ../../Library/StdDriver/src/spi.c:269:9
	str	r0, [sp, #28]
	b	.LBB7_26
.Ltmp99:
.LBB7_21:
	.loc	5 271 13 is_stmt 1              @ ../../Library/StdDriver/src/spi.c:271:13
	ldr	r0, [sp, #20]
.Ltmp100:
	.loc	5 271 13 is_stmt 0              @ ../../Library/StdDriver/src/spi.c:271:13
	cmp	r0, #0
	bne	.LBB7_23
	b	.LBB7_22
.LBB7_22:
.Ltmp101:
	.loc	5 274 9 is_stmt 1               @ ../../Library/StdDriver/src/spi.c:274:9
	ldr	r1, [sp, #24]
	.loc	5 274 21 is_stmt 0              @ ../../Library/StdDriver/src/spi.c:274:21
	ldr	r0, [r1, #4]
	ldr	r2, __arm_cp.7_6
	orrs	r0, r2
	str	r0, [r1, #4]
	.loc	5 276 17 is_stmt 1              @ ../../Library/StdDriver/src/spi.c:276:17
	ldr	r0, [sp, #16]
	.loc	5 276 27 is_stmt 0              @ ../../Library/StdDriver/src/spi.c:276:27
	lsrs	r0, r0, #8
	.loc	5 276 9                         @ ../../Library/StdDriver/src/spi.c:276:9
	str	r0, [sp, #28]
	b	.LBB7_26
.Ltmp102:
.LBB7_23:
	.loc	5 280 21 is_stmt 1              @ ../../Library/StdDriver/src/spi.c:280:21
	ldr	r1, [sp, #16]
	movs	r0, #10
	.loc	5 280 31 is_stmt 0              @ ../../Library/StdDriver/src/spi.c:280:31
	str	r0, [sp, #4]                    @ 4-byte Spill
	muls	r0, r1, r0
	.loc	5 280 39                        @ ../../Library/StdDriver/src/spi.c:280:39
	ldr	r1, [sp, #20]
	.loc	5 280 37                        @ ../../Library/StdDriver/src/spi.c:280:37
	bl	__aeabi_uidiv
	ldr	r1, [sp, #4]                    @ 4-byte Reload
	.loc	5 280 51                        @ ../../Library/StdDriver/src/spi.c:280:51
	adds	r0, r0, #5
	.loc	5 280 56                        @ ../../Library/StdDriver/src/spi.c:280:56
	bl	__aeabi_uidiv
	.loc	5 280 62                        @ ../../Library/StdDriver/src/spi.c:280:62
	subs	r0, r0, #1
	.loc	5 280 16                        @ ../../Library/StdDriver/src/spi.c:280:16
	str	r0, [sp, #8]
.Ltmp103:
	.loc	5 281 12 is_stmt 1              @ ../../Library/StdDriver/src/spi.c:281:12
	ldr	r0, [sp, #8]
.Ltmp104:
	.loc	5 281 12 is_stmt 0              @ ../../Library/StdDriver/src/spi.c:281:12
	lsrs	r0, r0, #8
	cmp	r0, #0
	beq	.LBB7_25
	b	.LBB7_24
.LBB7_24:
	.loc	5 0 12                          @ ../../Library/StdDriver/src/spi.c:0:12
	movs	r0, #255
.Ltmp105:
	.loc	5 283 20 is_stmt 1              @ ../../Library/StdDriver/src/spi.c:283:20
	str	r0, [sp, #8]
	.loc	5 284 13                        @ ../../Library/StdDriver/src/spi.c:284:13
	ldr	r1, [sp, #24]
	.loc	5 284 25 is_stmt 0              @ ../../Library/StdDriver/src/spi.c:284:25
	ldr	r0, [r1, #4]
	ldr	r2, __arm_cp.7_6
	orrs	r0, r2
	str	r0, [r1, #4]
	.loc	5 286 21 is_stmt 1              @ ../../Library/StdDriver/src/spi.c:286:21
	ldr	r0, [sp, #16]
	.loc	5 286 31 is_stmt 0              @ ../../Library/StdDriver/src/spi.c:286:31
	lsrs	r0, r0, #8
	.loc	5 286 13                        @ ../../Library/StdDriver/src/spi.c:286:13
	str	r0, [sp, #28]
	b	.LBB7_26
.Ltmp106:
.LBB7_25:
	.loc	5 290 28 is_stmt 1              @ ../../Library/StdDriver/src/spi.c:290:28
	ldr	r0, [sp, #24]
	.loc	5 290 33 is_stmt 0              @ ../../Library/StdDriver/src/spi.c:290:33
	ldr	r0, [r0, #4]
	ldr	r1, __arm_cp.7_5
	.loc	5 290 40                        @ ../../Library/StdDriver/src/spi.c:290:40
	ands	r0, r1
	.loc	5 290 72                        @ ../../Library/StdDriver/src/spi.c:290:72
	ldr	r1, [sp, #8]
	.loc	5 290 69                        @ ../../Library/StdDriver/src/spi.c:290:69
	orrs	r0, r1
	.loc	5 290 13                        @ ../../Library/StdDriver/src/spi.c:290:13
	ldr	r1, [sp, #24]
	.loc	5 290 25                        @ ../../Library/StdDriver/src/spi.c:290:25
	str	r0, [r1, #4]
	.loc	5 292 21 is_stmt 1              @ ../../Library/StdDriver/src/spi.c:292:21
	ldr	r0, [sp, #16]
	.loc	5 292 34 is_stmt 0              @ ../../Library/StdDriver/src/spi.c:292:34
	ldr	r1, [sp, #8]
	.loc	5 292 41                        @ ../../Library/StdDriver/src/spi.c:292:41
	adds	r1, r1, #1
	.loc	5 292 31                        @ ../../Library/StdDriver/src/spi.c:292:31
	bl	__aeabi_uidiv
	.loc	5 292 13                        @ ../../Library/StdDriver/src/spi.c:292:13
	str	r0, [sp, #28]
	b	.LBB7_26
.Ltmp107:
.LBB7_26:
	.loc	5 295 1 is_stmt 1               @ ../../Library/StdDriver/src/spi.c:295:1
	ldr	r0, [sp, #28]
	add	sp, #32
	pop	{r7, pc}
.Ltmp108:
	.p2align	2
@ %bb.27:
	.loc	5 0 1 is_stmt 0                 @ ../../Library/StdDriver/src/spi.c:0:1
__arm_cp.7_0:
	.long	1074139136                      @ 0x40061000
.Lcpi_end14:
	.size	__arm_cp.7_0, .Lcpi_end14-__arm_cp.7_0
__arm_cp.7_1:
	.long	1073742360                      @ 0x40000218
.Lcpi_end15:
	.size	__arm_cp.7_1, .Lcpi_end15-__arm_cp.7_1
__arm_cp.7_2:
	.long	48000000                        @ 0x2dc6c00
.Lcpi_end16:
	.size	__arm_cp.7_2, .Lcpi_end16-__arm_cp.7_2
__arm_cp.7_3:
	.long	1073742388                      @ 0x40000234
.Lcpi_end17:
	.size	__arm_cp.7_3, .Lcpi_end17-__arm_cp.7_3
__arm_cp.7_4:
	.long	32000000                        @ 0x1e84800
.Lcpi_end18:
	.size	__arm_cp.7_4, .Lcpi_end18-__arm_cp.7_4
__arm_cp.7_5:
	.long	4294966784                      @ 0xfffffe00
.Lcpi_end19:
	.size	__arm_cp.7_5, .Lcpi_end19-__arm_cp.7_5
__arm_cp.7_6:
	.long	511                             @ 0x1ff
.Lcpi_end20:
	.size	__arm_cp.7_6, .Lcpi_end20-__arm_cp.7_6
.Lfunc_end7:
	.size	SPI_SetBusClock, .Lfunc_end7-SPI_SetBusClock
	.cfi_endproc
	.cantunwind
	.fnend
                                        @ -- End function
	.section	.text.SPI_SetFIFO,"ax",%progbits
	.hidden	SPI_SetFIFO                     @ -- Begin function SPI_SetFIFO
	.globl	SPI_SetFIFO
	.p2align	1
	.type	SPI_SetFIFO,%function
	.code	16                              @ @SPI_SetFIFO
	.thumb_func
SPI_SetFIFO:
.Lfunc_begin8:
	.loc	5 306 0 is_stmt 1               @ ../../Library/StdDriver/src/spi.c:306:0
	.fnstart
	.cfi_startproc
@ %bb.0:
	.pad	#12
	sub	sp, #12
	.cfi_def_cfa_offset 12
	str	r0, [sp, #8]
	str	r1, [sp, #4]
	str	r2, [sp]
.Ltmp109:
	.loc	5 307 21 prologue_end           @ ../../Library/StdDriver/src/spi.c:307:21
	ldr	r0, [sp, #8]
	.loc	5 307 26 is_stmt 0              @ ../../Library/StdDriver/src/spi.c:307:26
	ldr	r0, [r0, #16]
	movs	r1, #119
	lsls	r1, r1, #24
	.loc	5 307 34                        @ ../../Library/StdDriver/src/spi.c:307:34
	bics	r0, r1
	.loc	5 308 21 is_stmt 1              @ ../../Library/StdDriver/src/spi.c:308:21
	ldr	r1, [sp, #4]
	.loc	5 308 36 is_stmt 0              @ ../../Library/StdDriver/src/spi.c:308:36
	lsls	r1, r1, #28
	.loc	5 307 84 is_stmt 1              @ ../../Library/StdDriver/src/spi.c:307:84
	orrs	r0, r1
	.loc	5 309 21                        @ ../../Library/StdDriver/src/spi.c:309:21
	ldr	r1, [sp]
	.loc	5 309 36 is_stmt 0              @ ../../Library/StdDriver/src/spi.c:309:36
	lsls	r1, r1, #24
	.loc	5 308 61 is_stmt 1              @ ../../Library/StdDriver/src/spi.c:308:61
	orrs	r0, r1
	.loc	5 307 5                         @ ../../Library/StdDriver/src/spi.c:307:5
	ldr	r1, [sp, #8]
	.loc	5 307 18 is_stmt 0              @ ../../Library/StdDriver/src/spi.c:307:18
	str	r0, [r1, #16]
	.loc	5 310 1 is_stmt 1               @ ../../Library/StdDriver/src/spi.c:310:1
	add	sp, #12
	bx	lr
.Ltmp110:
.Lfunc_end8:
	.size	SPI_SetFIFO, .Lfunc_end8-SPI_SetFIFO
	.cfi_endproc
	.cantunwind
	.fnend
                                        @ -- End function
	.section	.text.SPI_GetBusClock,"ax",%progbits
	.hidden	SPI_GetBusClock                 @ -- Begin function SPI_GetBusClock
	.globl	SPI_GetBusClock
	.p2align	2
	.type	SPI_GetBusClock,%function
	.code	16                              @ @SPI_GetBusClock
	.thumb_func
SPI_GetBusClock:
.Lfunc_begin9:
	.loc	5 319 0                         @ ../../Library/StdDriver/src/spi.c:319:0
	.fnstart
	.cfi_startproc
@ %bb.0:
	.save	{r7, lr}
	push	{r7, lr}
	.cfi_def_cfa_offset 8
	.cfi_offset lr, -4
	.cfi_offset r7, -8
	.pad	#24
	sub	sp, #24
	.cfi_def_cfa_offset 32
	str	r0, [sp, #16]
.Ltmp111:
	.loc	5 324 8 prologue_end            @ ../../Library/StdDriver/src/spi.c:324:8
	ldr	r0, [sp, #16]
	ldr	r1, __arm_cp.9_0
.Ltmp112:
	.loc	5 324 8 is_stmt 0               @ ../../Library/StdDriver/src/spi.c:324:8
	cmp	r0, r1
	beq	.LBB9_2
	b	.LBB9_1
.LBB9_1:
	.loc	5 0 8                           @ ../../Library/StdDriver/src/spi.c:0:8
	movs	r0, #0
.Ltmp113:
	.loc	5 324 21                        @ ../../Library/StdDriver/src/spi.c:324:21
	str	r0, [sp, #20]
	b	.LBB9_14
.Ltmp114:
.LBB9_2:
	.loc	5 327 15 is_stmt 1              @ ../../Library/StdDriver/src/spi.c:327:15
	ldr	r0, [sp, #16]
	.loc	5 327 20 is_stmt 0              @ ../../Library/StdDriver/src/spi.c:327:20
	ldr	r0, [r0, #4]
	ldr	r1, __arm_cp.9_1
	.loc	5 327 27                        @ ../../Library/StdDriver/src/spi.c:327:27
	ands	r0, r1
	.loc	5 327 12                        @ ../../Library/StdDriver/src/spi.c:327:12
	str	r0, [sp, #12]
	.loc	5 330 19 is_stmt 1              @ ../../Library/StdDriver/src/spi.c:330:19
	bl	CLK_GetHCLKFreq
	.loc	5 330 17 is_stmt 0              @ ../../Library/StdDriver/src/spi.c:330:17
	str	r0, [sp, #4]
.Ltmp115:
	.loc	5 333 8 is_stmt 1               @ ../../Library/StdDriver/src/spi.c:333:8
	ldr	r0, [sp, #16]
	ldr	r1, __arm_cp.9_0
.Ltmp116:
	.loc	5 333 8 is_stmt 0               @ ../../Library/StdDriver/src/spi.c:333:8
	cmp	r0, r1
	bne	.LBB9_13
	b	.LBB9_3
.LBB9_3:
	.loc	5 0 8                           @ ../../Library/StdDriver/src/spi.c:0:8
	ldr	r0, __arm_cp.9_2
.Ltmp117:
	.loc	5 335 18 is_stmt 1              @ ../../Library/StdDriver/src/spi.c:335:18
	ldr	r0, [r0]
.Ltmp118:
	.loc	5 335 12 is_stmt 0              @ ../../Library/StdDriver/src/spi.c:335:12
	lsls	r0, r0, #26
	lsrs	r0, r0, #30
	cmp	r0, #0
	bne	.LBB9_5
	b	.LBB9_4
.LBB9_4:
	.loc	5 0 12                          @ ../../Library/StdDriver/src/spi.c:0:12
	ldr	r0, __arm_cp.9_5
.Ltmp119:
	.loc	5 336 23 is_stmt 1              @ ../../Library/StdDriver/src/spi.c:336:23
	str	r0, [sp, #8]
	.loc	5 336 13 is_stmt 0              @ ../../Library/StdDriver/src/spi.c:336:13
	b	.LBB9_12
.LBB9_5:
	.loc	5 0 13                          @ ../../Library/StdDriver/src/spi.c:0:13
	ldr	r0, __arm_cp.9_2
.Ltmp120:
	.loc	5 337 23 is_stmt 1              @ ../../Library/StdDriver/src/spi.c:337:23
	ldr	r0, [r0]
	movs	r1, #48
	.loc	5 337 31 is_stmt 0              @ ../../Library/StdDriver/src/spi.c:337:31
	ands	r0, r1
.Ltmp121:
	.loc	5 337 17                        @ ../../Library/StdDriver/src/spi.c:337:17
	cmp	r0, #16
	bne	.LBB9_7
	b	.LBB9_6
.LBB9_6:
.Ltmp122:
	.loc	5 338 25 is_stmt 1              @ ../../Library/StdDriver/src/spi.c:338:25
	bl	CLK_GetPLLClockFreq
	.loc	5 338 23 is_stmt 0              @ ../../Library/StdDriver/src/spi.c:338:23
	str	r0, [sp, #8]
	.loc	5 338 13                        @ ../../Library/StdDriver/src/spi.c:338:13
	b	.LBB9_11
.LBB9_7:
	.loc	5 0 13                          @ ../../Library/StdDriver/src/spi.c:0:13
	ldr	r0, __arm_cp.9_2
.Ltmp123:
	.loc	5 339 23 is_stmt 1              @ ../../Library/StdDriver/src/spi.c:339:23
	ldr	r0, [r0]
	movs	r1, #48
	.loc	5 339 31 is_stmt 0              @ ../../Library/StdDriver/src/spi.c:339:31
	ands	r0, r1
.Ltmp124:
	.loc	5 339 17                        @ ../../Library/StdDriver/src/spi.c:339:17
	cmp	r0, #32
	bne	.LBB9_9
	b	.LBB9_8
.LBB9_8:
.Ltmp125:
	.loc	5 340 25 is_stmt 1              @ ../../Library/StdDriver/src/spi.c:340:25
	ldr	r0, [sp, #4]
	ldr	r1, __arm_cp.9_4
	.loc	5 340 46 is_stmt 0              @ ../../Library/StdDriver/src/spi.c:340:46
	ldr	r1, [r1]
	movs	r2, #7
	.loc	5 340 54                        @ ../../Library/StdDriver/src/spi.c:340:54
	ands	r1, r2
	.loc	5 340 80                        @ ../../Library/StdDriver/src/spi.c:340:80
	adds	r1, r1, #1
	.loc	5 340 37                        @ ../../Library/StdDriver/src/spi.c:340:37
	bl	__aeabi_uidiv
	.loc	5 340 23                        @ ../../Library/StdDriver/src/spi.c:340:23
	str	r0, [sp, #8]
	.loc	5 340 13                        @ ../../Library/StdDriver/src/spi.c:340:13
	b	.LBB9_10
.LBB9_9:
	.loc	5 0 13                          @ ../../Library/StdDriver/src/spi.c:0:13
	ldr	r0, __arm_cp.9_3
	.loc	5 342 23 is_stmt 1              @ ../../Library/StdDriver/src/spi.c:342:23
	str	r0, [sp, #8]
	b	.LBB9_10
.Ltmp126:
.LBB9_10:
	.loc	5 0 23 is_stmt 0                @ ../../Library/StdDriver/src/spi.c:0:23
	b	.LBB9_11
.LBB9_11:
	b	.LBB9_12
.LBB9_12:
	.loc	5 343 5 is_stmt 1               @ ../../Library/StdDriver/src/spi.c:343:5
	b	.LBB9_13
.Ltmp127:
.LBB9_13:
	.loc	5 346 13                        @ ../../Library/StdDriver/src/spi.c:346:13
	ldr	r0, [sp, #8]
	.loc	5 346 26 is_stmt 0              @ ../../Library/StdDriver/src/spi.c:346:26
	ldr	r1, [sp, #12]
	.loc	5 346 33                        @ ../../Library/StdDriver/src/spi.c:346:33
	adds	r1, r1, #1
	.loc	5 346 23                        @ ../../Library/StdDriver/src/spi.c:346:23
	bl	__aeabi_uidiv
	.loc	5 346 5                         @ ../../Library/StdDriver/src/spi.c:346:5
	str	r0, [sp, #20]
	b	.LBB9_14
.LBB9_14:
	.loc	5 347 1 is_stmt 1               @ ../../Library/StdDriver/src/spi.c:347:1
	ldr	r0, [sp, #20]
	add	sp, #24
	pop	{r7, pc}
.Ltmp128:
	.p2align	2
@ %bb.15:
	.loc	5 0 1 is_stmt 0                 @ ../../Library/StdDriver/src/spi.c:0:1
__arm_cp.9_0:
	.long	1074139136                      @ 0x40061000
.Lcpi_end21:
	.size	__arm_cp.9_0, .Lcpi_end21-__arm_cp.9_0
__arm_cp.9_1:
	.long	511                             @ 0x1ff
.Lcpi_end22:
	.size	__arm_cp.9_1, .Lcpi_end22-__arm_cp.9_1
__arm_cp.9_2:
	.long	1073742360                      @ 0x40000218
.Lcpi_end23:
	.size	__arm_cp.9_2, .Lcpi_end23-__arm_cp.9_2
__arm_cp.9_3:
	.long	48000000                        @ 0x2dc6c00
.Lcpi_end24:
	.size	__arm_cp.9_3, .Lcpi_end24-__arm_cp.9_3
__arm_cp.9_4:
	.long	1073742388                      @ 0x40000234
.Lcpi_end25:
	.size	__arm_cp.9_4, .Lcpi_end25-__arm_cp.9_4
__arm_cp.9_5:
	.long	32000000                        @ 0x1e84800
.Lcpi_end26:
	.size	__arm_cp.9_5, .Lcpi_end26-__arm_cp.9_5
.Lfunc_end9:
	.size	SPI_GetBusClock, .Lfunc_end9-SPI_GetBusClock
	.cfi_endproc
	.cantunwind
	.fnend
                                        @ -- End function
	.section	.text.SPI_EnableInt,"ax",%progbits
	.hidden	SPI_EnableInt                   @ -- Begin function SPI_EnableInt
	.globl	SPI_EnableInt
	.p2align	1
	.type	SPI_EnableInt,%function
	.code	16                              @ @SPI_EnableInt
	.thumb_func
SPI_EnableInt:
.Lfunc_begin10:
	.loc	5 370 0 is_stmt 1               @ ../../Library/StdDriver/src/spi.c:370:0
	.fnstart
	.cfi_startproc
@ %bb.0:
	.pad	#8
	sub	sp, #8
	.cfi_def_cfa_offset 8
	str	r0, [sp, #4]
	str	r1, [sp]
	mov	r0, sp
.Ltmp129:
	.loc	5 372 8 prologue_end            @ ../../Library/StdDriver/src/spi.c:372:8
	ldrb	r0, [r0]
	lsls	r0, r0, #31
	cmp	r0, #0
	beq	.LBB10_2
	b	.LBB10_1
.LBB10_1:
.Ltmp130:
	.loc	5 373 9                         @ ../../Library/StdDriver/src/spi.c:373:9
	ldr	r1, [sp, #4]
	.loc	5 373 18 is_stmt 0              @ ../../Library/StdDriver/src/spi.c:373:18
	ldr	r0, [r1]
	movs	r2, #1
	lsls	r2, r2, #17
	orrs	r0, r2
	str	r0, [r1]
	.loc	5 373 9                         @ ../../Library/StdDriver/src/spi.c:373:9
	b	.LBB10_2
.Ltmp131:
.LBB10_2:
	.loc	5 0 9                           @ ../../Library/StdDriver/src/spi.c:0:9
	mov	r0, sp
	.loc	5 376 8 is_stmt 1               @ ../../Library/StdDriver/src/spi.c:376:8
	ldrb	r0, [r0]
	lsls	r0, r0, #30
	cmp	r0, #0
	bpl	.LBB10_4
	b	.LBB10_3
.LBB10_3:
.Ltmp132:
	.loc	5 377 9                         @ ../../Library/StdDriver/src/spi.c:377:9
	ldr	r1, [sp, #4]
	.loc	5 377 20 is_stmt 0              @ ../../Library/StdDriver/src/spi.c:377:20
	ldr	r0, [r1, #8]
	movs	r2, #1
	lsls	r2, r2, #12
	orrs	r0, r2
	str	r0, [r1, #8]
	.loc	5 377 9                         @ ../../Library/StdDriver/src/spi.c:377:9
	b	.LBB10_4
.Ltmp133:
.LBB10_4:
	.loc	5 0 9                           @ ../../Library/StdDriver/src/spi.c:0:9
	mov	r0, sp
	.loc	5 380 8 is_stmt 1               @ ../../Library/StdDriver/src/spi.c:380:8
	ldrb	r0, [r0]
	lsls	r0, r0, #29
	cmp	r0, #0
	bpl	.LBB10_6
	b	.LBB10_5
.LBB10_5:
.Ltmp134:
	.loc	5 381 9                         @ ../../Library/StdDriver/src/spi.c:381:9
	ldr	r1, [sp, #4]
	.loc	5 381 20 is_stmt 0              @ ../../Library/StdDriver/src/spi.c:381:20
	ldr	r0, [r1, #8]
	movs	r2, #1
	lsls	r2, r2, #13
	orrs	r0, r2
	str	r0, [r1, #8]
	.loc	5 381 9                         @ ../../Library/StdDriver/src/spi.c:381:9
	b	.LBB10_6
.Ltmp135:
.LBB10_6:
	.loc	5 0 9                           @ ../../Library/StdDriver/src/spi.c:0:9
	mov	r0, sp
	.loc	5 384 8 is_stmt 1               @ ../../Library/StdDriver/src/spi.c:384:8
	ldrb	r0, [r0]
	lsls	r0, r0, #28
	cmp	r0, #0
	bpl	.LBB10_8
	b	.LBB10_7
.LBB10_7:
.Ltmp136:
	.loc	5 385 9                         @ ../../Library/StdDriver/src/spi.c:385:9
	ldr	r1, [sp, #4]
	.loc	5 385 20 is_stmt 0              @ ../../Library/StdDriver/src/spi.c:385:20
	ldr	r0, [r1, #8]
	movs	r2, #1
	lsls	r2, r2, #9
	orrs	r0, r2
	str	r0, [r1, #8]
	.loc	5 385 9                         @ ../../Library/StdDriver/src/spi.c:385:9
	b	.LBB10_8
.Ltmp137:
.LBB10_8:
	.loc	5 0 9                           @ ../../Library/StdDriver/src/spi.c:0:9
	mov	r0, sp
	.loc	5 388 8 is_stmt 1               @ ../../Library/StdDriver/src/spi.c:388:8
	ldrb	r0, [r0]
	lsls	r0, r0, #27
	cmp	r0, #0
	bpl	.LBB10_10
	b	.LBB10_9
.LBB10_9:
.Ltmp138:
	.loc	5 389 9                         @ ../../Library/StdDriver/src/spi.c:389:9
	ldr	r1, [sp, #4]
	.loc	5 389 20 is_stmt 0              @ ../../Library/StdDriver/src/spi.c:389:20
	ldr	r0, [r1, #8]
	movs	r2, #1
	lsls	r2, r2, #8
	orrs	r0, r2
	str	r0, [r1, #8]
	.loc	5 389 9                         @ ../../Library/StdDriver/src/spi.c:389:9
	b	.LBB10_10
.Ltmp139:
.LBB10_10:
	.loc	5 0 9                           @ ../../Library/StdDriver/src/spi.c:0:9
	mov	r0, sp
	.loc	5 392 8 is_stmt 1               @ ../../Library/StdDriver/src/spi.c:392:8
	ldrb	r0, [r0]
	lsls	r0, r0, #25
	cmp	r0, #0
	bpl	.LBB10_12
	b	.LBB10_11
.LBB10_11:
.Ltmp140:
	.loc	5 393 9                         @ ../../Library/StdDriver/src/spi.c:393:9
	ldr	r1, [sp, #4]
	.loc	5 393 22 is_stmt 0              @ ../../Library/StdDriver/src/spi.c:393:22
	ldr	r0, [r1, #16]
	movs	r2, #128
	orrs	r0, r2
	str	r0, [r1, #16]
	.loc	5 393 9                         @ ../../Library/StdDriver/src/spi.c:393:9
	b	.LBB10_12
.Ltmp141:
.LBB10_12:
	.loc	5 0 9                           @ ../../Library/StdDriver/src/spi.c:0:9
	mov	r0, sp
	.loc	5 396 8 is_stmt 1               @ ../../Library/StdDriver/src/spi.c:396:8
	ldrb	r0, [r0]
	lsls	r0, r0, #24
	cmp	r0, #0
	bpl	.LBB10_14
	b	.LBB10_13
.LBB10_13:
.Ltmp142:
	.loc	5 397 9                         @ ../../Library/StdDriver/src/spi.c:397:9
	ldr	r1, [sp, #4]
	.loc	5 397 22 is_stmt 0              @ ../../Library/StdDriver/src/spi.c:397:22
	ldr	r0, [r1, #16]
	movs	r2, #8
	orrs	r0, r2
	str	r0, [r1, #16]
	.loc	5 397 9                         @ ../../Library/StdDriver/src/spi.c:397:9
	b	.LBB10_14
.Ltmp143:
.LBB10_14:
	.loc	5 0 9                           @ ../../Library/StdDriver/src/spi.c:0:9
	mov	r0, sp
	.loc	5 400 8 is_stmt 1               @ ../../Library/StdDriver/src/spi.c:400:8
	ldrb	r0, [r0, #1]
	lsls	r0, r0, #31
	cmp	r0, #0
	beq	.LBB10_16
	b	.LBB10_15
.LBB10_15:
.Ltmp144:
	.loc	5 401 9                         @ ../../Library/StdDriver/src/spi.c:401:9
	ldr	r1, [sp, #4]
	.loc	5 401 22 is_stmt 0              @ ../../Library/StdDriver/src/spi.c:401:22
	ldr	r0, [r1, #16]
	movs	r2, #4
	orrs	r0, r2
	str	r0, [r1, #16]
	.loc	5 401 9                         @ ../../Library/StdDriver/src/spi.c:401:9
	b	.LBB10_16
.Ltmp145:
.LBB10_16:
	.loc	5 0 9                           @ ../../Library/StdDriver/src/spi.c:0:9
	mov	r0, sp
	.loc	5 404 8 is_stmt 1               @ ../../Library/StdDriver/src/spi.c:404:8
	ldrb	r0, [r0, #1]
	lsls	r0, r0, #30
	cmp	r0, #0
	bpl	.LBB10_18
	b	.LBB10_17
.LBB10_17:
.Ltmp146:
	.loc	5 405 9                         @ ../../Library/StdDriver/src/spi.c:405:9
	ldr	r1, [sp, #4]
	.loc	5 405 22 is_stmt 0              @ ../../Library/StdDriver/src/spi.c:405:22
	ldr	r0, [r1, #16]
	movs	r2, #32
	orrs	r0, r2
	str	r0, [r1, #16]
	.loc	5 405 9                         @ ../../Library/StdDriver/src/spi.c:405:9
	b	.LBB10_18
.Ltmp147:
.LBB10_18:
	.loc	5 0 9                           @ ../../Library/StdDriver/src/spi.c:0:9
	mov	r0, sp
	.loc	5 408 8 is_stmt 1               @ ../../Library/StdDriver/src/spi.c:408:8
	ldrb	r0, [r0, #1]
	lsls	r0, r0, #29
	cmp	r0, #0
	bpl	.LBB10_20
	b	.LBB10_19
.LBB10_19:
.Ltmp148:
	.loc	5 409 9                         @ ../../Library/StdDriver/src/spi.c:409:9
	ldr	r1, [sp, #4]
	.loc	5 409 22 is_stmt 0              @ ../../Library/StdDriver/src/spi.c:409:22
	ldr	r0, [r1, #16]
	movs	r2, #16
	orrs	r0, r2
	str	r0, [r1, #16]
	.loc	5 409 9                         @ ../../Library/StdDriver/src/spi.c:409:9
	b	.LBB10_20
.Ltmp149:
.LBB10_20:
	.loc	5 410 1 is_stmt 1               @ ../../Library/StdDriver/src/spi.c:410:1
	add	sp, #8
	bx	lr
.Ltmp150:
.Lfunc_end10:
	.size	SPI_EnableInt, .Lfunc_end10-SPI_EnableInt
	.cfi_endproc
	.cantunwind
	.fnend
                                        @ -- End function
	.section	.text.SPI_DisableInt,"ax",%progbits
	.hidden	SPI_DisableInt                  @ -- Begin function SPI_DisableInt
	.globl	SPI_DisableInt
	.p2align	1
	.type	SPI_DisableInt,%function
	.code	16                              @ @SPI_DisableInt
	.thumb_func
SPI_DisableInt:
.Lfunc_begin11:
	.loc	5 433 0                         @ ../../Library/StdDriver/src/spi.c:433:0
	.fnstart
	.cfi_startproc
@ %bb.0:
	.pad	#8
	sub	sp, #8
	.cfi_def_cfa_offset 8
	str	r0, [sp, #4]
	str	r1, [sp]
	mov	r0, sp
.Ltmp151:
	.loc	5 435 8 prologue_end            @ ../../Library/StdDriver/src/spi.c:435:8
	ldrb	r0, [r0]
	lsls	r0, r0, #31
	cmp	r0, #0
	beq	.LBB11_2
	b	.LBB11_1
.LBB11_1:
.Ltmp152:
	.loc	5 436 9                         @ ../../Library/StdDriver/src/spi.c:436:9
	ldr	r1, [sp, #4]
	.loc	5 436 18 is_stmt 0              @ ../../Library/StdDriver/src/spi.c:436:18
	ldr	r0, [r1]
	movs	r2, #1
	lsls	r2, r2, #17
	bics	r0, r2
	str	r0, [r1]
	.loc	5 436 9                         @ ../../Library/StdDriver/src/spi.c:436:9
	b	.LBB11_2
.Ltmp153:
.LBB11_2:
	.loc	5 0 9                           @ ../../Library/StdDriver/src/spi.c:0:9
	mov	r0, sp
	.loc	5 439 8 is_stmt 1               @ ../../Library/StdDriver/src/spi.c:439:8
	ldrb	r0, [r0]
	lsls	r0, r0, #30
	cmp	r0, #0
	bpl	.LBB11_4
	b	.LBB11_3
.LBB11_3:
.Ltmp154:
	.loc	5 440 9                         @ ../../Library/StdDriver/src/spi.c:440:9
	ldr	r1, [sp, #4]
	.loc	5 440 20 is_stmt 0              @ ../../Library/StdDriver/src/spi.c:440:20
	ldr	r0, [r1, #8]
	movs	r2, #1
	lsls	r2, r2, #12
	bics	r0, r2
	str	r0, [r1, #8]
	.loc	5 440 9                         @ ../../Library/StdDriver/src/spi.c:440:9
	b	.LBB11_4
.Ltmp155:
.LBB11_4:
	.loc	5 0 9                           @ ../../Library/StdDriver/src/spi.c:0:9
	mov	r0, sp
	.loc	5 443 8 is_stmt 1               @ ../../Library/StdDriver/src/spi.c:443:8
	ldrb	r0, [r0]
	lsls	r0, r0, #29
	cmp	r0, #0
	bpl	.LBB11_6
	b	.LBB11_5
.LBB11_5:
.Ltmp156:
	.loc	5 444 9                         @ ../../Library/StdDriver/src/spi.c:444:9
	ldr	r1, [sp, #4]
	.loc	5 444 20 is_stmt 0              @ ../../Library/StdDriver/src/spi.c:444:20
	ldr	r0, [r1, #8]
	movs	r2, #1
	lsls	r2, r2, #13
	bics	r0, r2
	str	r0, [r1, #8]
	.loc	5 444 9                         @ ../../Library/StdDriver/src/spi.c:444:9
	b	.LBB11_6
.Ltmp157:
.LBB11_6:
	.loc	5 0 9                           @ ../../Library/StdDriver/src/spi.c:0:9
	mov	r0, sp
	.loc	5 447 8 is_stmt 1               @ ../../Library/StdDriver/src/spi.c:447:8
	ldrb	r0, [r0]
	lsls	r0, r0, #28
	cmp	r0, #0
	bpl	.LBB11_8
	b	.LBB11_7
.LBB11_7:
.Ltmp158:
	.loc	5 448 9                         @ ../../Library/StdDriver/src/spi.c:448:9
	ldr	r1, [sp, #4]
	.loc	5 448 20 is_stmt 0              @ ../../Library/StdDriver/src/spi.c:448:20
	ldr	r0, [r1, #8]
	movs	r2, #1
	lsls	r2, r2, #9
	bics	r0, r2
	str	r0, [r1, #8]
	.loc	5 448 9                         @ ../../Library/StdDriver/src/spi.c:448:9
	b	.LBB11_8
.Ltmp159:
.LBB11_8:
	.loc	5 0 9                           @ ../../Library/StdDriver/src/spi.c:0:9
	mov	r0, sp
	.loc	5 451 8 is_stmt 1               @ ../../Library/StdDriver/src/spi.c:451:8
	ldrb	r0, [r0]
	lsls	r0, r0, #27
	cmp	r0, #0
	bpl	.LBB11_10
	b	.LBB11_9
.LBB11_9:
.Ltmp160:
	.loc	5 452 9                         @ ../../Library/StdDriver/src/spi.c:452:9
	ldr	r1, [sp, #4]
	.loc	5 452 20 is_stmt 0              @ ../../Library/StdDriver/src/spi.c:452:20
	ldr	r0, [r1, #8]
	movs	r2, #1
	lsls	r2, r2, #8
	bics	r0, r2
	str	r0, [r1, #8]
	.loc	5 452 9                         @ ../../Library/StdDriver/src/spi.c:452:9
	b	.LBB11_10
.Ltmp161:
.LBB11_10:
	.loc	5 0 9                           @ ../../Library/StdDriver/src/spi.c:0:9
	mov	r0, sp
	.loc	5 455 8 is_stmt 1               @ ../../Library/StdDriver/src/spi.c:455:8
	ldrb	r0, [r0]
	lsls	r0, r0, #25
	cmp	r0, #0
	bpl	.LBB11_12
	b	.LBB11_11
.LBB11_11:
.Ltmp162:
	.loc	5 456 9                         @ ../../Library/StdDriver/src/spi.c:456:9
	ldr	r1, [sp, #4]
	.loc	5 456 22 is_stmt 0              @ ../../Library/StdDriver/src/spi.c:456:22
	ldr	r0, [r1, #16]
	movs	r2, #128
	bics	r0, r2
	str	r0, [r1, #16]
	.loc	5 456 9                         @ ../../Library/StdDriver/src/spi.c:456:9
	b	.LBB11_12
.Ltmp163:
.LBB11_12:
	.loc	5 0 9                           @ ../../Library/StdDriver/src/spi.c:0:9
	mov	r0, sp
	.loc	5 459 8 is_stmt 1               @ ../../Library/StdDriver/src/spi.c:459:8
	ldrb	r0, [r0]
	lsls	r0, r0, #24
	cmp	r0, #0
	bpl	.LBB11_14
	b	.LBB11_13
.LBB11_13:
.Ltmp164:
	.loc	5 460 9                         @ ../../Library/StdDriver/src/spi.c:460:9
	ldr	r1, [sp, #4]
	.loc	5 460 22 is_stmt 0              @ ../../Library/StdDriver/src/spi.c:460:22
	ldr	r0, [r1, #16]
	movs	r2, #8
	bics	r0, r2
	str	r0, [r1, #16]
	.loc	5 460 9                         @ ../../Library/StdDriver/src/spi.c:460:9
	b	.LBB11_14
.Ltmp165:
.LBB11_14:
	.loc	5 0 9                           @ ../../Library/StdDriver/src/spi.c:0:9
	mov	r0, sp
	.loc	5 463 8 is_stmt 1               @ ../../Library/StdDriver/src/spi.c:463:8
	ldrb	r0, [r0, #1]
	lsls	r0, r0, #31
	cmp	r0, #0
	beq	.LBB11_16
	b	.LBB11_15
.LBB11_15:
.Ltmp166:
	.loc	5 464 9                         @ ../../Library/StdDriver/src/spi.c:464:9
	ldr	r1, [sp, #4]
	.loc	5 464 22 is_stmt 0              @ ../../Library/StdDriver/src/spi.c:464:22
	ldr	r0, [r1, #16]
	movs	r2, #4
	bics	r0, r2
	str	r0, [r1, #16]
	.loc	5 464 9                         @ ../../Library/StdDriver/src/spi.c:464:9
	b	.LBB11_16
.Ltmp167:
.LBB11_16:
	.loc	5 0 9                           @ ../../Library/StdDriver/src/spi.c:0:9
	mov	r0, sp
	.loc	5 467 8 is_stmt 1               @ ../../Library/StdDriver/src/spi.c:467:8
	ldrb	r0, [r0, #1]
	lsls	r0, r0, #30
	cmp	r0, #0
	bpl	.LBB11_18
	b	.LBB11_17
.LBB11_17:
.Ltmp168:
	.loc	5 468 9                         @ ../../Library/StdDriver/src/spi.c:468:9
	ldr	r1, [sp, #4]
	.loc	5 468 22 is_stmt 0              @ ../../Library/StdDriver/src/spi.c:468:22
	ldr	r0, [r1, #16]
	movs	r2, #32
	bics	r0, r2
	str	r0, [r1, #16]
	.loc	5 468 9                         @ ../../Library/StdDriver/src/spi.c:468:9
	b	.LBB11_18
.Ltmp169:
.LBB11_18:
	.loc	5 0 9                           @ ../../Library/StdDriver/src/spi.c:0:9
	mov	r0, sp
	.loc	5 471 8 is_stmt 1               @ ../../Library/StdDriver/src/spi.c:471:8
	ldrb	r0, [r0, #1]
	lsls	r0, r0, #29
	cmp	r0, #0
	bpl	.LBB11_20
	b	.LBB11_19
.LBB11_19:
.Ltmp170:
	.loc	5 472 9                         @ ../../Library/StdDriver/src/spi.c:472:9
	ldr	r1, [sp, #4]
	.loc	5 472 22 is_stmt 0              @ ../../Library/StdDriver/src/spi.c:472:22
	ldr	r0, [r1, #16]
	movs	r2, #16
	bics	r0, r2
	str	r0, [r1, #16]
	.loc	5 472 9                         @ ../../Library/StdDriver/src/spi.c:472:9
	b	.LBB11_20
.Ltmp171:
.LBB11_20:
	.loc	5 473 1 is_stmt 1               @ ../../Library/StdDriver/src/spi.c:473:1
	add	sp, #8
	bx	lr
.Ltmp172:
.Lfunc_end11:
	.size	SPI_DisableInt, .Lfunc_end11-SPI_DisableInt
	.cfi_endproc
	.cantunwind
	.fnend
                                        @ -- End function
	.section	.text.SPI_GetIntFlag,"ax",%progbits
	.hidden	SPI_GetIntFlag                  @ -- Begin function SPI_GetIntFlag
	.globl	SPI_GetIntFlag
	.p2align	1
	.type	SPI_GetIntFlag,%function
	.code	16                              @ @SPI_GetIntFlag
	.thumb_func
SPI_GetIntFlag:
.Lfunc_begin12:
	.loc	5 496 0                         @ ../../Library/StdDriver/src/spi.c:496:0
	.fnstart
	.cfi_startproc
@ %bb.0:
	.pad	#12
	sub	sp, #12
	.cfi_def_cfa_offset 12
	str	r0, [sp, #8]
	str	r1, [sp, #4]
	movs	r0, #0
.Ltmp173:
	.loc	5 497 14 prologue_end           @ ../../Library/StdDriver/src/spi.c:497:14
	str	r0, [sp]
	add	r0, sp, #4
.Ltmp174:
	.loc	5 500 38                        @ ../../Library/StdDriver/src/spi.c:500:38
	ldrb	r0, [r0]
	lsls	r0, r0, #31
	cmp	r0, #0
	beq	.LBB12_3
	b	.LBB12_1
.LBB12_1:
	.loc	5 500 42 is_stmt 0              @ ../../Library/StdDriver/src/spi.c:500:42
	ldr	r0, [sp, #8]
	.loc	5 500 47                        @ ../../Library/StdDriver/src/spi.c:500:47
	ldr	r0, [r0, #20]
.Ltmp175:
	.loc	5 500 8                         @ ../../Library/StdDriver/src/spi.c:500:8
	lsls	r0, r0, #30
	cmp	r0, #0
	bpl	.LBB12_3
	b	.LBB12_2
.LBB12_2:
.Ltmp176:
	.loc	5 501 20 is_stmt 1              @ ../../Library/StdDriver/src/spi.c:501:20
	ldr	r0, [sp]
	movs	r1, #1
	orrs	r0, r1
	str	r0, [sp]
	.loc	5 501 9 is_stmt 0               @ ../../Library/StdDriver/src/spi.c:501:9
	b	.LBB12_3
.Ltmp177:
.LBB12_3:
	.loc	5 0 9                           @ ../../Library/StdDriver/src/spi.c:0:9
	add	r0, sp, #4
.Ltmp178:
	.loc	5 504 39 is_stmt 1              @ ../../Library/StdDriver/src/spi.c:504:39
	ldrb	r0, [r0]
	lsls	r0, r0, #30
	cmp	r0, #0
	bpl	.LBB12_6
	b	.LBB12_4
.LBB12_4:
	.loc	5 504 43 is_stmt 0              @ ../../Library/StdDriver/src/spi.c:504:43
	ldr	r0, [sp, #8]
	.loc	5 504 48                        @ ../../Library/StdDriver/src/spi.c:504:48
	ldr	r0, [r0, #20]
.Ltmp179:
	.loc	5 504 8                         @ ../../Library/StdDriver/src/spi.c:504:8
	lsls	r0, r0, #29
	cmp	r0, #0
	bpl	.LBB12_6
	b	.LBB12_5
.LBB12_5:
.Ltmp180:
	.loc	5 505 20 is_stmt 1              @ ../../Library/StdDriver/src/spi.c:505:20
	ldr	r0, [sp]
	movs	r1, #2
	orrs	r0, r1
	str	r0, [sp]
	.loc	5 505 9 is_stmt 0               @ ../../Library/StdDriver/src/spi.c:505:9
	b	.LBB12_6
.Ltmp181:
.LBB12_6:
	.loc	5 0 9                           @ ../../Library/StdDriver/src/spi.c:0:9
	add	r0, sp, #4
.Ltmp182:
	.loc	5 508 41 is_stmt 1              @ ../../Library/StdDriver/src/spi.c:508:41
	ldrb	r0, [r0]
	lsls	r0, r0, #29
	cmp	r0, #0
	bpl	.LBB12_9
	b	.LBB12_7
.LBB12_7:
	.loc	5 508 45 is_stmt 0              @ ../../Library/StdDriver/src/spi.c:508:45
	ldr	r0, [sp, #8]
	.loc	5 508 50                        @ ../../Library/StdDriver/src/spi.c:508:50
	ldr	r0, [r0, #20]
.Ltmp183:
	.loc	5 508 8                         @ ../../Library/StdDriver/src/spi.c:508:8
	lsls	r0, r0, #28
	cmp	r0, #0
	bpl	.LBB12_9
	b	.LBB12_8
.LBB12_8:
.Ltmp184:
	.loc	5 509 20 is_stmt 1              @ ../../Library/StdDriver/src/spi.c:509:20
	ldr	r0, [sp]
	movs	r1, #4
	orrs	r0, r1
	str	r0, [sp]
	.loc	5 509 9 is_stmt 0               @ ../../Library/StdDriver/src/spi.c:509:9
	b	.LBB12_9
.Ltmp185:
.LBB12_9:
	.loc	5 0 9                           @ ../../Library/StdDriver/src/spi.c:0:9
	add	r0, sp, #4
.Ltmp186:
	.loc	5 512 39 is_stmt 1              @ ../../Library/StdDriver/src/spi.c:512:39
	ldrb	r0, [r0]
	lsls	r0, r0, #28
	cmp	r0, #0
	bpl	.LBB12_12
	b	.LBB12_10
.LBB12_10:
	.loc	5 512 43 is_stmt 0              @ ../../Library/StdDriver/src/spi.c:512:43
	ldr	r0, [sp, #8]
	.loc	5 512 48                        @ ../../Library/StdDriver/src/spi.c:512:48
	ldr	r0, [r0, #20]
.Ltmp187:
	.loc	5 512 8                         @ ../../Library/StdDriver/src/spi.c:512:8
	lsls	r0, r0, #24
	cmp	r0, #0
	bpl	.LBB12_12
	b	.LBB12_11
.LBB12_11:
.Ltmp188:
	.loc	5 513 20 is_stmt 1              @ ../../Library/StdDriver/src/spi.c:513:20
	ldr	r0, [sp]
	movs	r1, #8
	orrs	r0, r1
	str	r0, [sp]
	.loc	5 513 9 is_stmt 0               @ ../../Library/StdDriver/src/spi.c:513:9
	b	.LBB12_12
.Ltmp189:
.LBB12_12:
	.loc	5 0 9                           @ ../../Library/StdDriver/src/spi.c:0:9
	add	r0, sp, #4
.Ltmp190:
	.loc	5 516 39 is_stmt 1              @ ../../Library/StdDriver/src/spi.c:516:39
	ldrb	r0, [r0]
	lsls	r0, r0, #27
	cmp	r0, #0
	bpl	.LBB12_15
	b	.LBB12_13
.LBB12_13:
	.loc	5 516 43 is_stmt 0              @ ../../Library/StdDriver/src/spi.c:516:43
	ldr	r0, [sp, #8]
	.loc	5 516 48                        @ ../../Library/StdDriver/src/spi.c:516:48
	ldr	r0, [r0, #20]
.Ltmp191:
	.loc	5 516 8                         @ ../../Library/StdDriver/src/spi.c:516:8
	lsls	r0, r0, #25
	cmp	r0, #0
	bpl	.LBB12_15
	b	.LBB12_14
.LBB12_14:
.Ltmp192:
	.loc	5 517 20 is_stmt 1              @ ../../Library/StdDriver/src/spi.c:517:20
	ldr	r0, [sp]
	movs	r1, #16
	orrs	r0, r1
	str	r0, [sp]
	.loc	5 517 9 is_stmt 0               @ ../../Library/StdDriver/src/spi.c:517:9
	b	.LBB12_15
.Ltmp193:
.LBB12_15:
	.loc	5 0 9                           @ ../../Library/StdDriver/src/spi.c:0:9
	add	r0, sp, #4
.Ltmp194:
	.loc	5 520 38 is_stmt 1              @ ../../Library/StdDriver/src/spi.c:520:38
	ldrb	r0, [r0]
	lsls	r0, r0, #25
	cmp	r0, #0
	bpl	.LBB12_18
	b	.LBB12_16
.LBB12_16:
	.loc	5 520 42 is_stmt 0              @ ../../Library/StdDriver/src/spi.c:520:42
	ldr	r0, [sp, #8]
	.loc	5 520 47                        @ ../../Library/StdDriver/src/spi.c:520:47
	ldr	r0, [r0, #20]
.Ltmp195:
	.loc	5 520 8                         @ ../../Library/StdDriver/src/spi.c:520:8
	lsls	r0, r0, #12
	cmp	r0, #0
	bpl	.LBB12_18
	b	.LBB12_17
.LBB12_17:
.Ltmp196:
	.loc	5 521 20 is_stmt 1              @ ../../Library/StdDriver/src/spi.c:521:20
	ldr	r0, [sp]
	movs	r1, #64
	orrs	r0, r1
	str	r0, [sp]
	.loc	5 521 9 is_stmt 0               @ ../../Library/StdDriver/src/spi.c:521:9
	b	.LBB12_18
.Ltmp197:
.LBB12_18:
	.loc	5 0 9                           @ ../../Library/StdDriver/src/spi.c:0:9
	add	r0, sp, #4
.Ltmp198:
	.loc	5 524 43 is_stmt 1              @ ../../Library/StdDriver/src/spi.c:524:43
	ldrb	r0, [r0]
	lsls	r0, r0, #24
	cmp	r0, #0
	bpl	.LBB12_21
	b	.LBB12_19
.LBB12_19:
	.loc	5 524 47 is_stmt 0              @ ../../Library/StdDriver/src/spi.c:524:47
	ldr	r0, [sp, #8]
	.loc	5 524 52                        @ ../../Library/StdDriver/src/spi.c:524:52
	ldr	r0, [r0, #20]
.Ltmp199:
	.loc	5 524 8                         @ ../../Library/StdDriver/src/spi.c:524:8
	lsls	r0, r0, #13
	cmp	r0, #0
	bpl	.LBB12_21
	b	.LBB12_20
.LBB12_20:
.Ltmp200:
	.loc	5 525 20 is_stmt 1              @ ../../Library/StdDriver/src/spi.c:525:20
	ldr	r0, [sp]
	movs	r1, #128
	orrs	r0, r1
	str	r0, [sp]
	.loc	5 525 9 is_stmt 0               @ ../../Library/StdDriver/src/spi.c:525:9
	b	.LBB12_21
.Ltmp201:
.LBB12_21:
	.loc	5 0 9                           @ ../../Library/StdDriver/src/spi.c:0:9
	add	r0, sp, #4
.Ltmp202:
	.loc	5 528 43 is_stmt 1              @ ../../Library/StdDriver/src/spi.c:528:43
	ldrb	r0, [r0, #1]
	lsls	r0, r0, #31
	cmp	r0, #0
	beq	.LBB12_24
	b	.LBB12_22
.LBB12_22:
	.loc	5 528 47 is_stmt 0              @ ../../Library/StdDriver/src/spi.c:528:47
	ldr	r0, [sp, #8]
	.loc	5 528 52                        @ ../../Library/StdDriver/src/spi.c:528:52
	ldr	r0, [r0, #20]
.Ltmp203:
	.loc	5 528 8                         @ ../../Library/StdDriver/src/spi.c:528:8
	lsls	r0, r0, #21
	cmp	r0, #0
	bpl	.LBB12_24
	b	.LBB12_23
.LBB12_23:
.Ltmp204:
	.loc	5 529 20 is_stmt 1              @ ../../Library/StdDriver/src/spi.c:529:20
	ldr	r0, [sp]
	movs	r1, #1
	lsls	r1, r1, #8
	orrs	r0, r1
	str	r0, [sp]
	.loc	5 529 9 is_stmt 0               @ ../../Library/StdDriver/src/spi.c:529:9
	b	.LBB12_24
.Ltmp205:
.LBB12_24:
	.loc	5 0 9                           @ ../../Library/StdDriver/src/spi.c:0:9
	add	r0, sp, #4
.Ltmp206:
	.loc	5 532 43 is_stmt 1              @ ../../Library/StdDriver/src/spi.c:532:43
	ldrb	r0, [r0, #1]
	lsls	r0, r0, #30
	cmp	r0, #0
	bpl	.LBB12_27
	b	.LBB12_25
.LBB12_25:
	.loc	5 532 47 is_stmt 0              @ ../../Library/StdDriver/src/spi.c:532:47
	ldr	r0, [sp, #8]
	.loc	5 532 52                        @ ../../Library/StdDriver/src/spi.c:532:52
	ldr	r0, [r0, #20]
.Ltmp207:
	.loc	5 532 8                         @ ../../Library/StdDriver/src/spi.c:532:8
	lsls	r0, r0, #20
	cmp	r0, #0
	bpl	.LBB12_27
	b	.LBB12_26
.LBB12_26:
.Ltmp208:
	.loc	5 533 20 is_stmt 1              @ ../../Library/StdDriver/src/spi.c:533:20
	ldr	r0, [sp]
	movs	r1, #1
	lsls	r1, r1, #9
	orrs	r0, r1
	str	r0, [sp]
	.loc	5 533 9 is_stmt 0               @ ../../Library/StdDriver/src/spi.c:533:9
	b	.LBB12_27
.Ltmp209:
.LBB12_27:
	.loc	5 0 9                           @ ../../Library/StdDriver/src/spi.c:0:9
	add	r0, sp, #4
.Ltmp210:
	.loc	5 536 43 is_stmt 1              @ ../../Library/StdDriver/src/spi.c:536:43
	ldrb	r0, [r0, #1]
	lsls	r0, r0, #29
	cmp	r0, #0
	bpl	.LBB12_30
	b	.LBB12_28
.LBB12_28:
	.loc	5 536 47 is_stmt 0              @ ../../Library/StdDriver/src/spi.c:536:47
	ldr	r0, [sp, #8]
	.loc	5 536 52                        @ ../../Library/StdDriver/src/spi.c:536:52
	ldr	r0, [r0, #20]
.Ltmp211:
	.loc	5 536 8                         @ ../../Library/StdDriver/src/spi.c:536:8
	lsls	r0, r0, #19
	cmp	r0, #0
	bpl	.LBB12_30
	b	.LBB12_29
.LBB12_29:
.Ltmp212:
	.loc	5 537 20 is_stmt 1              @ ../../Library/StdDriver/src/spi.c:537:20
	ldr	r0, [sp]
	movs	r1, #1
	lsls	r1, r1, #10
	orrs	r0, r1
	str	r0, [sp]
	.loc	5 537 9 is_stmt 0               @ ../../Library/StdDriver/src/spi.c:537:9
	b	.LBB12_30
.Ltmp213:
.LBB12_30:
	.loc	5 539 12 is_stmt 1              @ ../../Library/StdDriver/src/spi.c:539:12
	ldr	r0, [sp]
	.loc	5 539 5 is_stmt 0               @ ../../Library/StdDriver/src/spi.c:539:5
	add	sp, #12
	bx	lr
.Ltmp214:
.Lfunc_end12:
	.size	SPI_GetIntFlag, .Lfunc_end12-SPI_GetIntFlag
	.cfi_endproc
	.cantunwind
	.fnend
                                        @ -- End function
	.section	.text.SPI_ClearIntFlag,"ax",%progbits
	.hidden	SPI_ClearIntFlag                @ -- Begin function SPI_ClearIntFlag
	.globl	SPI_ClearIntFlag
	.p2align	1
	.type	SPI_ClearIntFlag,%function
	.code	16                              @ @SPI_ClearIntFlag
	.thumb_func
SPI_ClearIntFlag:
.Lfunc_begin13:
	.loc	5 561 0 is_stmt 1               @ ../../Library/StdDriver/src/spi.c:561:0
	.fnstart
	.cfi_startproc
@ %bb.0:
	.pad	#8
	sub	sp, #8
	.cfi_def_cfa_offset 8
	str	r0, [sp, #4]
	str	r1, [sp]
	mov	r0, sp
.Ltmp215:
	.loc	5 562 8 prologue_end            @ ../../Library/StdDriver/src/spi.c:562:8
	ldrb	r0, [r0]
	lsls	r0, r0, #31
	cmp	r0, #0
	beq	.LBB13_2
	b	.LBB13_1
.LBB13_1:
.Ltmp216:
	.loc	5 563 9                         @ ../../Library/StdDriver/src/spi.c:563:9
	ldr	r1, [sp, #4]
	movs	r0, #2
	.loc	5 563 21 is_stmt 0              @ ../../Library/StdDriver/src/spi.c:563:21
	str	r0, [r1, #20]
	.loc	5 563 9                         @ ../../Library/StdDriver/src/spi.c:563:9
	b	.LBB13_2
.Ltmp217:
.LBB13_2:
	.loc	5 0 9                           @ ../../Library/StdDriver/src/spi.c:0:9
	mov	r0, sp
	.loc	5 565 8 is_stmt 1               @ ../../Library/StdDriver/src/spi.c:565:8
	ldrb	r0, [r0]
	lsls	r0, r0, #30
	cmp	r0, #0
	bpl	.LBB13_4
	b	.LBB13_3
.LBB13_3:
.Ltmp218:
	.loc	5 566 9                         @ ../../Library/StdDriver/src/spi.c:566:9
	ldr	r1, [sp, #4]
	movs	r0, #4
	.loc	5 566 21 is_stmt 0              @ ../../Library/StdDriver/src/spi.c:566:21
	str	r0, [r1, #20]
	.loc	5 566 9                         @ ../../Library/StdDriver/src/spi.c:566:9
	b	.LBB13_4
.Ltmp219:
.LBB13_4:
	.loc	5 0 9                           @ ../../Library/StdDriver/src/spi.c:0:9
	mov	r0, sp
	.loc	5 568 8 is_stmt 1               @ ../../Library/StdDriver/src/spi.c:568:8
	ldrb	r0, [r0]
	lsls	r0, r0, #29
	cmp	r0, #0
	bpl	.LBB13_6
	b	.LBB13_5
.LBB13_5:
.Ltmp220:
	.loc	5 569 9                         @ ../../Library/StdDriver/src/spi.c:569:9
	ldr	r1, [sp, #4]
	movs	r0, #8
	.loc	5 569 21 is_stmt 0              @ ../../Library/StdDriver/src/spi.c:569:21
	str	r0, [r1, #20]
	.loc	5 569 9                         @ ../../Library/StdDriver/src/spi.c:569:9
	b	.LBB13_6
.Ltmp221:
.LBB13_6:
	.loc	5 0 9                           @ ../../Library/StdDriver/src/spi.c:0:9
	mov	r0, sp
	.loc	5 571 8 is_stmt 1               @ ../../Library/StdDriver/src/spi.c:571:8
	ldrb	r0, [r0]
	lsls	r0, r0, #28
	cmp	r0, #0
	bpl	.LBB13_8
	b	.LBB13_7
.LBB13_7:
.Ltmp222:
	.loc	5 572 9                         @ ../../Library/StdDriver/src/spi.c:572:9
	ldr	r1, [sp, #4]
	movs	r0, #128
	.loc	5 572 21 is_stmt 0              @ ../../Library/StdDriver/src/spi.c:572:21
	str	r0, [r1, #20]
	.loc	5 572 9                         @ ../../Library/StdDriver/src/spi.c:572:9
	b	.LBB13_8
.Ltmp223:
.LBB13_8:
	.loc	5 0 9                           @ ../../Library/StdDriver/src/spi.c:0:9
	mov	r0, sp
	.loc	5 574 8 is_stmt 1               @ ../../Library/StdDriver/src/spi.c:574:8
	ldrb	r0, [r0]
	lsls	r0, r0, #27
	cmp	r0, #0
	bpl	.LBB13_10
	b	.LBB13_9
.LBB13_9:
.Ltmp224:
	.loc	5 575 9                         @ ../../Library/StdDriver/src/spi.c:575:9
	ldr	r1, [sp, #4]
	movs	r0, #64
	.loc	5 575 21 is_stmt 0              @ ../../Library/StdDriver/src/spi.c:575:21
	str	r0, [r1, #20]
	.loc	5 575 9                         @ ../../Library/StdDriver/src/spi.c:575:9
	b	.LBB13_10
.Ltmp225:
.LBB13_10:
	.loc	5 0 9                           @ ../../Library/StdDriver/src/spi.c:0:9
	mov	r0, sp
	.loc	5 577 8 is_stmt 1               @ ../../Library/StdDriver/src/spi.c:577:8
	ldrb	r0, [r0]
	lsls	r0, r0, #25
	cmp	r0, #0
	bpl	.LBB13_12
	b	.LBB13_11
.LBB13_11:
.Ltmp226:
	.loc	5 578 9                         @ ../../Library/StdDriver/src/spi.c:578:9
	ldr	r1, [sp, #4]
	movs	r0, #1
	lsls	r0, r0, #19
	.loc	5 578 21 is_stmt 0              @ ../../Library/StdDriver/src/spi.c:578:21
	str	r0, [r1, #20]
	.loc	5 578 9                         @ ../../Library/StdDriver/src/spi.c:578:9
	b	.LBB13_12
.Ltmp227:
.LBB13_12:
	.loc	5 0 9                           @ ../../Library/StdDriver/src/spi.c:0:9
	mov	r0, sp
	.loc	5 580 8 is_stmt 1               @ ../../Library/StdDriver/src/spi.c:580:8
	ldrb	r0, [r0, #1]
	lsls	r0, r0, #30
	cmp	r0, #0
	bpl	.LBB13_14
	b	.LBB13_13
.LBB13_13:
.Ltmp228:
	.loc	5 581 9                         @ ../../Library/StdDriver/src/spi.c:581:9
	ldr	r1, [sp, #4]
	movs	r0, #1
	lsls	r0, r0, #11
	.loc	5 581 21 is_stmt 0              @ ../../Library/StdDriver/src/spi.c:581:21
	str	r0, [r1, #20]
	.loc	5 581 9                         @ ../../Library/StdDriver/src/spi.c:581:9
	b	.LBB13_14
.Ltmp229:
.LBB13_14:
	.loc	5 0 9                           @ ../../Library/StdDriver/src/spi.c:0:9
	mov	r0, sp
	.loc	5 583 8 is_stmt 1               @ ../../Library/StdDriver/src/spi.c:583:8
	ldrb	r0, [r0, #1]
	lsls	r0, r0, #29
	cmp	r0, #0
	bpl	.LBB13_16
	b	.LBB13_15
.LBB13_15:
.Ltmp230:
	.loc	5 584 9                         @ ../../Library/StdDriver/src/spi.c:584:9
	ldr	r1, [sp, #4]
	movs	r0, #1
	lsls	r0, r0, #12
	.loc	5 584 21 is_stmt 0              @ ../../Library/StdDriver/src/spi.c:584:21
	str	r0, [r1, #20]
	.loc	5 584 9                         @ ../../Library/StdDriver/src/spi.c:584:9
	b	.LBB13_16
.Ltmp231:
.LBB13_16:
	.loc	5 585 1 is_stmt 1               @ ../../Library/StdDriver/src/spi.c:585:1
	add	sp, #8
	bx	lr
.Ltmp232:
.Lfunc_end13:
	.size	SPI_ClearIntFlag, .Lfunc_end13-SPI_ClearIntFlag
	.cfi_endproc
	.cantunwind
	.fnend
                                        @ -- End function
	.section	.text.SPI_GetStatus,"ax",%progbits
	.hidden	SPI_GetStatus                   @ -- Begin function SPI_GetStatus
	.globl	SPI_GetStatus
	.p2align	1
	.type	SPI_GetStatus,%function
	.code	16                              @ @SPI_GetStatus
	.thumb_func
SPI_GetStatus:
.Lfunc_begin14:
	.loc	5 606 0                         @ ../../Library/StdDriver/src/spi.c:606:0
	.fnstart
	.cfi_startproc
@ %bb.0:
	.pad	#12
	sub	sp, #12
	.cfi_def_cfa_offset 12
	str	r0, [sp, #8]
	str	r1, [sp, #4]
	movs	r0, #0
.Ltmp233:
	.loc	5 607 14 prologue_end           @ ../../Library/StdDriver/src/spi.c:607:14
	str	r0, [sp]
	add	r0, sp, #4
.Ltmp234:
	.loc	5 610 34                        @ ../../Library/StdDriver/src/spi.c:610:34
	ldrb	r0, [r0]
	lsls	r0, r0, #31
	cmp	r0, #0
	beq	.LBB14_3
	b	.LBB14_1
.LBB14_1:
	.loc	5 610 38 is_stmt 0              @ ../../Library/StdDriver/src/spi.c:610:38
	ldr	r0, [sp, #8]
	.loc	5 610 43                        @ ../../Library/StdDriver/src/spi.c:610:43
	ldr	r0, [r0, #20]
.Ltmp235:
	.loc	5 610 8                         @ ../../Library/StdDriver/src/spi.c:610:8
	lsls	r0, r0, #31
	cmp	r0, #0
	beq	.LBB14_3
	b	.LBB14_2
.LBB14_2:
.Ltmp236:
	.loc	5 611 17 is_stmt 1              @ ../../Library/StdDriver/src/spi.c:611:17
	ldr	r0, [sp]
	movs	r1, #1
	orrs	r0, r1
	str	r0, [sp]
	.loc	5 611 9 is_stmt 0               @ ../../Library/StdDriver/src/spi.c:611:9
	b	.LBB14_3
.Ltmp237:
.LBB14_3:
	.loc	5 0 9                           @ ../../Library/StdDriver/src/spi.c:0:9
	add	r0, sp, #4
.Ltmp238:
	.loc	5 614 38 is_stmt 1              @ ../../Library/StdDriver/src/spi.c:614:38
	ldrb	r0, [r0]
	lsls	r0, r0, #30
	cmp	r0, #0
	bpl	.LBB14_6
	b	.LBB14_4
.LBB14_4:
	.loc	5 614 42 is_stmt 0              @ ../../Library/StdDriver/src/spi.c:614:42
	ldr	r0, [sp, #8]
	.loc	5 614 47                        @ ../../Library/StdDriver/src/spi.c:614:47
	ldr	r0, [r0, #20]
.Ltmp239:
	.loc	5 614 8                         @ ../../Library/StdDriver/src/spi.c:614:8
	lsls	r0, r0, #23
	cmp	r0, #0
	bpl	.LBB14_6
	b	.LBB14_5
.LBB14_5:
.Ltmp240:
	.loc	5 615 17 is_stmt 1              @ ../../Library/StdDriver/src/spi.c:615:17
	ldr	r0, [sp]
	movs	r1, #2
	orrs	r0, r1
	str	r0, [sp]
	.loc	5 615 9 is_stmt 0               @ ../../Library/StdDriver/src/spi.c:615:9
	b	.LBB14_6
.Ltmp241:
.LBB14_6:
	.loc	5 0 9                           @ ../../Library/StdDriver/src/spi.c:0:9
	add	r0, sp, #4
.Ltmp242:
	.loc	5 618 37 is_stmt 1              @ ../../Library/StdDriver/src/spi.c:618:37
	ldrb	r0, [r0]
	lsls	r0, r0, #29
	cmp	r0, #0
	bpl	.LBB14_9
	b	.LBB14_7
.LBB14_7:
	.loc	5 618 41 is_stmt 0              @ ../../Library/StdDriver/src/spi.c:618:41
	ldr	r0, [sp, #8]
	.loc	5 618 46                        @ ../../Library/StdDriver/src/spi.c:618:46
	ldr	r0, [r0, #20]
.Ltmp243:
	.loc	5 618 8                         @ ../../Library/StdDriver/src/spi.c:618:8
	lsls	r0, r0, #22
	cmp	r0, #0
	bpl	.LBB14_9
	b	.LBB14_8
.LBB14_8:
.Ltmp244:
	.loc	5 619 17 is_stmt 1              @ ../../Library/StdDriver/src/spi.c:619:17
	ldr	r0, [sp]
	movs	r1, #4
	orrs	r0, r1
	str	r0, [sp]
	.loc	5 619 9 is_stmt 0               @ ../../Library/StdDriver/src/spi.c:619:9
	b	.LBB14_9
.Ltmp245:
.LBB14_9:
	.loc	5 0 9                           @ ../../Library/StdDriver/src/spi.c:0:9
	add	r0, sp, #4
.Ltmp246:
	.loc	5 622 38 is_stmt 1              @ ../../Library/StdDriver/src/spi.c:622:38
	ldrb	r0, [r0]
	lsls	r0, r0, #28
	cmp	r0, #0
	bpl	.LBB14_12
	b	.LBB14_10
.LBB14_10:
	.loc	5 622 42 is_stmt 0              @ ../../Library/StdDriver/src/spi.c:622:42
	ldr	r0, [sp, #8]
	.loc	5 622 47                        @ ../../Library/StdDriver/src/spi.c:622:47
	ldr	r0, [r0, #20]
.Ltmp247:
	.loc	5 622 8                         @ ../../Library/StdDriver/src/spi.c:622:8
	lsls	r0, r0, #15
	cmp	r0, #0
	bpl	.LBB14_12
	b	.LBB14_11
.LBB14_11:
.Ltmp248:
	.loc	5 623 17 is_stmt 1              @ ../../Library/StdDriver/src/spi.c:623:17
	ldr	r0, [sp]
	movs	r1, #8
	orrs	r0, r1
	str	r0, [sp]
	.loc	5 623 9 is_stmt 0               @ ../../Library/StdDriver/src/spi.c:623:9
	b	.LBB14_12
.Ltmp249:
.LBB14_12:
	.loc	5 0 9                           @ ../../Library/StdDriver/src/spi.c:0:9
	add	r0, sp, #4
.Ltmp250:
	.loc	5 626 37 is_stmt 1              @ ../../Library/StdDriver/src/spi.c:626:37
	ldrb	r0, [r0]
	lsls	r0, r0, #27
	cmp	r0, #0
	bpl	.LBB14_15
	b	.LBB14_13
.LBB14_13:
	.loc	5 626 41 is_stmt 0              @ ../../Library/StdDriver/src/spi.c:626:41
	ldr	r0, [sp, #8]
	.loc	5 626 46                        @ ../../Library/StdDriver/src/spi.c:626:46
	ldr	r0, [r0, #20]
.Ltmp251:
	.loc	5 626 8                         @ ../../Library/StdDriver/src/spi.c:626:8
	lsls	r0, r0, #14
	cmp	r0, #0
	bpl	.LBB14_15
	b	.LBB14_14
.LBB14_14:
.Ltmp252:
	.loc	5 627 17 is_stmt 1              @ ../../Library/StdDriver/src/spi.c:627:17
	ldr	r0, [sp]
	movs	r1, #16
	orrs	r0, r1
	str	r0, [sp]
	.loc	5 627 9 is_stmt 0               @ ../../Library/StdDriver/src/spi.c:627:9
	b	.LBB14_15
.Ltmp253:
.LBB14_15:
	.loc	5 0 9                           @ ../../Library/StdDriver/src/spi.c:0:9
	add	r0, sp, #4
.Ltmp254:
	.loc	5 630 40 is_stmt 1              @ ../../Library/StdDriver/src/spi.c:630:40
	ldrb	r0, [r0]
	lsls	r0, r0, #26
	cmp	r0, #0
	bpl	.LBB14_18
	b	.LBB14_16
.LBB14_16:
	.loc	5 630 44 is_stmt 0              @ ../../Library/StdDriver/src/spi.c:630:44
	ldr	r0, [sp, #8]
	.loc	5 630 49                        @ ../../Library/StdDriver/src/spi.c:630:49
	ldr	r0, [r0, #20]
.Ltmp255:
	.loc	5 630 8                         @ ../../Library/StdDriver/src/spi.c:630:8
	lsls	r0, r0, #8
	cmp	r0, #0
	bpl	.LBB14_18
	b	.LBB14_17
.LBB14_17:
.Ltmp256:
	.loc	5 631 17 is_stmt 1              @ ../../Library/StdDriver/src/spi.c:631:17
	ldr	r0, [sp]
	movs	r1, #32
	orrs	r0, r1
	str	r0, [sp]
	.loc	5 631 9 is_stmt 0               @ ../../Library/StdDriver/src/spi.c:631:9
	b	.LBB14_18
.Ltmp257:
.LBB14_18:
	.loc	5 0 9                           @ ../../Library/StdDriver/src/spi.c:0:9
	add	r0, sp, #4
.Ltmp258:
	.loc	5 634 39 is_stmt 1              @ ../../Library/StdDriver/src/spi.c:634:39
	ldrb	r0, [r0]
	lsls	r0, r0, #25
	cmp	r0, #0
	bpl	.LBB14_21
	b	.LBB14_19
.LBB14_19:
	.loc	5 634 43 is_stmt 0              @ ../../Library/StdDriver/src/spi.c:634:43
	ldr	r0, [sp, #8]
	.loc	5 634 48                        @ ../../Library/StdDriver/src/spi.c:634:48
	ldr	r0, [r0, #20]
.Ltmp259:
	.loc	5 634 8                         @ ../../Library/StdDriver/src/spi.c:634:8
	lsls	r0, r0, #16
	cmp	r0, #0
	bpl	.LBB14_21
	b	.LBB14_20
.LBB14_20:
.Ltmp260:
	.loc	5 635 17 is_stmt 1              @ ../../Library/StdDriver/src/spi.c:635:17
	ldr	r0, [sp]
	movs	r1, #64
	orrs	r0, r1
	str	r0, [sp]
	.loc	5 635 9 is_stmt 0               @ ../../Library/StdDriver/src/spi.c:635:9
	b	.LBB14_21
.Ltmp261:
.LBB14_21:
	.loc	5 0 9                           @ ../../Library/StdDriver/src/spi.c:0:9
	add	r0, sp, #4
.Ltmp262:
	.loc	5 638 40 is_stmt 1              @ ../../Library/StdDriver/src/spi.c:638:40
	ldrb	r0, [r0]
	lsls	r0, r0, #24
	cmp	r0, #0
	bpl	.LBB14_24
	b	.LBB14_22
.LBB14_22:
	.loc	5 638 44 is_stmt 0              @ ../../Library/StdDriver/src/spi.c:638:44
	ldr	r0, [sp, #8]
	.loc	5 638 49                        @ ../../Library/StdDriver/src/spi.c:638:49
	ldr	r0, [r0, #20]
.Ltmp263:
	.loc	5 638 8                         @ ../../Library/StdDriver/src/spi.c:638:8
	lsls	r0, r0, #27
	cmp	r0, #0
	bpl	.LBB14_24
	b	.LBB14_23
.LBB14_23:
.Ltmp264:
	.loc	5 639 17 is_stmt 1              @ ../../Library/StdDriver/src/spi.c:639:17
	ldr	r0, [sp]
	movs	r1, #128
	orrs	r0, r1
	str	r0, [sp]
	.loc	5 639 9 is_stmt 0               @ ../../Library/StdDriver/src/spi.c:639:9
	b	.LBB14_24
.Ltmp265:
.LBB14_24:
	.loc	5 641 12 is_stmt 1              @ ../../Library/StdDriver/src/spi.c:641:12
	ldr	r0, [sp]
	.loc	5 641 5 is_stmt 0               @ ../../Library/StdDriver/src/spi.c:641:5
	add	sp, #12
	bx	lr
.Ltmp266:
.Lfunc_end14:
	.size	SPI_GetStatus, .Lfunc_end14-SPI_GetStatus
	.cfi_endproc
	.cantunwind
	.fnend
                                        @ -- End function
	.section	.text.SPII2S_Open,"ax",%progbits
	.hidden	SPII2S_Open                     @ -- Begin function SPII2S_Open
	.globl	SPII2S_Open
	.p2align	2
	.type	SPII2S_Open,%function
	.code	16                              @ @SPII2S_Open
	.thumb_func
SPII2S_Open:
.Lfunc_begin15:
	.loc	5 705 0 is_stmt 1               @ ../../Library/StdDriver/src/spi.c:705:0
	.fnstart
	.cfi_startproc
@ %bb.0:
	.save	{r4, lr}
	push	{r4, lr}
	.cfi_def_cfa_offset 8
	.cfi_offset lr, -4
	.cfi_offset r4, -8
	.pad	#40
	sub	sp, #40
	.cfi_def_cfa_offset 48
	ldr	r4, [sp, #52]
	ldr	r4, [sp, #48]
	str	r0, [sp, #32]
	str	r1, [sp, #28]
	str	r2, [sp, #24]
	str	r3, [sp, #20]
.Ltmp267:
	.loc	5 711 8 prologue_end            @ ../../Library/StdDriver/src/spi.c:711:8
	ldr	r0, [sp, #32]
	ldr	r1, __arm_cp.15_0
.Ltmp268:
	.loc	5 711 8 is_stmt 0               @ ../../Library/StdDriver/src/spi.c:711:8
	cmp	r0, r1
	beq	.LBB15_2
	b	.LBB15_1
.LBB15_1:
	.loc	5 0 8                           @ ../../Library/StdDriver/src/spi.c:0:8
	movs	r0, #0
.Ltmp269:
	.loc	5 711 21                        @ ../../Library/StdDriver/src/spi.c:711:21
	str	r0, [sp, #36]
	b	.LBB15_7
.Ltmp270:
.LBB15_2:
	.loc	5 714 8 is_stmt 1               @ ../../Library/StdDriver/src/spi.c:714:8
	ldr	r0, [sp, #32]
	ldr	r1, __arm_cp.15_0
.Ltmp271:
	.loc	5 714 8 is_stmt 0               @ ../../Library/StdDriver/src/spi.c:714:8
	cmp	r0, r1
	bne	.LBB15_4
	b	.LBB15_3
.LBB15_3:
	.loc	5 0 8                           @ ../../Library/StdDriver/src/spi.c:0:8
	ldr	r1, __arm_cp.15_1
.Ltmp272:
	.loc	5 716 21 is_stmt 1              @ ../../Library/StdDriver/src/spi.c:716:21
	ldr	r0, [r1]
	movs	r2, #1
	lsls	r2, r2, #13
	orrs	r0, r2
	str	r0, [r1]
	.loc	5 717 21                        @ ../../Library/StdDriver/src/spi.c:717:21
	ldr	r0, [r1]
	bics	r0, r2
	str	r0, [r1]
	.loc	5 718 5                         @ ../../Library/StdDriver/src/spi.c:718:5
	b	.LBB15_4
.Ltmp273:
.LBB15_4:
	.loc	5 721 19                        @ ../../Library/StdDriver/src/spi.c:721:19
	ldr	r0, [sp, #28]
	.loc	5 721 36 is_stmt 0              @ ../../Library/StdDriver/src/spi.c:721:36
	ldr	r1, [sp, #20]
	.loc	5 721 34                        @ ../../Library/StdDriver/src/spi.c:721:34
	orrs	r0, r1
	.loc	5 721 51                        @ ../../Library/StdDriver/src/spi.c:721:51
	ldr	r1, [sp, #48]
	.loc	5 721 49                        @ ../../Library/StdDriver/src/spi.c:721:49
	orrs	r0, r1
	.loc	5 721 65                        @ ../../Library/StdDriver/src/spi.c:721:65
	ldr	r1, [sp, #52]
	.loc	5 721 63                        @ ../../Library/StdDriver/src/spi.c:721:63
	orrs	r0, r1
	.loc	5 721 5                         @ ../../Library/StdDriver/src/spi.c:721:5
	ldr	r1, [sp, #32]
	.loc	5 721 17                        @ ../../Library/StdDriver/src/spi.c:721:17
	str	r0, [r1, #96]
	.loc	5 723 5 is_stmt 1               @ ../../Library/StdDriver/src/spi.c:723:5
	ldr	r1, [sp, #32]
	movs	r0, #33
	lsls	r0, r0, #24
	.loc	5 723 18 is_stmt 0              @ ../../Library/StdDriver/src/spi.c:723:18
	str	r0, [r1, #16]
.Ltmp274:
	.loc	5 725 8 is_stmt 1               @ ../../Library/StdDriver/src/spi.c:725:8
	ldr	r0, [sp, #28]
.Ltmp275:
	.loc	5 725 8 is_stmt 0               @ ../../Library/StdDriver/src/spi.c:725:8
	cmp	r0, #0
	bne	.LBB15_6
	b	.LBB15_5
.LBB15_5:
.Ltmp276:
	.loc	5 728 47 is_stmt 1              @ ../../Library/StdDriver/src/spi.c:728:47
	ldr	r0, [sp, #32]
	.loc	5 728 21 is_stmt 0              @ ../../Library/StdDriver/src/spi.c:728:21
	bl	SPII2S_GetSourceClockFreq
	.loc	5 728 19                        @ ../../Library/StdDriver/src/spi.c:728:19
	str	r0, [sp, #8]
	.loc	5 731 22 is_stmt 1              @ ../../Library/StdDriver/src/spi.c:731:22
	ldr	r1, [sp, #24]
	.loc	5 731 40 is_stmt 0              @ ../../Library/StdDriver/src/spi.c:731:40
	ldr	r0, [sp, #20]
	.loc	5 731 53                        @ ../../Library/StdDriver/src/spi.c:731:53
	lsrs	r0, r0, #4
	.loc	5 731 80                        @ ../../Library/StdDriver/src/spi.c:731:80
	adds	r0, r0, #1
	.loc	5 731 36                        @ ../../Library/StdDriver/src/spi.c:731:36
	muls	r0, r1, r0
	.loc	5 731 85                        @ ../../Library/StdDriver/src/spi.c:731:85
	lsls	r0, r0, #4
	.loc	5 731 20                        @ ../../Library/StdDriver/src/spi.c:731:20
	str	r0, [sp, #12]
	.loc	5 732 24 is_stmt 1              @ ../../Library/StdDriver/src/spi.c:732:24
	ldr	r0, [sp, #8]
	.loc	5 732 36 is_stmt 0              @ ../../Library/StdDriver/src/spi.c:732:36
	ldr	r1, [sp, #12]
	.loc	5 732 34                        @ ../../Library/StdDriver/src/spi.c:732:34
	bl	__aeabi_uidiv
	.loc	5 732 48                        @ ../../Library/StdDriver/src/spi.c:732:48
	lsrs	r0, r0, #1
	.loc	5 732 54                        @ ../../Library/StdDriver/src/spi.c:732:54
	subs	r0, r0, #1
	.loc	5 732 20                        @ ../../Library/StdDriver/src/spi.c:732:20
	str	r0, [sp, #16]
	.loc	5 734 24 is_stmt 1              @ ../../Library/StdDriver/src/spi.c:734:24
	ldr	r0, [sp, #32]
	.loc	5 734 29 is_stmt 0              @ ../../Library/StdDriver/src/spi.c:734:29
	ldr	r0, [r0, #100]
	ldr	r1, __arm_cp.15_2
	.loc	5 734 36                        @ ../../Library/StdDriver/src/spi.c:734:36
	ands	r0, r1
	.loc	5 734 66                        @ ../../Library/StdDriver/src/spi.c:734:66
	ldr	r1, [sp, #16]
	.loc	5 734 77                        @ ../../Library/StdDriver/src/spi.c:734:77
	lsls	r1, r1, #8
	.loc	5 734 63                        @ ../../Library/StdDriver/src/spi.c:734:63
	orrs	r0, r1
	.loc	5 734 9                         @ ../../Library/StdDriver/src/spi.c:734:9
	ldr	r1, [sp, #32]
	.loc	5 734 21                        @ ../../Library/StdDriver/src/spi.c:734:21
	str	r0, [r1, #100]
	.loc	5 737 22 is_stmt 1              @ ../../Library/StdDriver/src/spi.c:737:22
	ldr	r0, [sp, #8]
	.loc	5 737 36 is_stmt 0              @ ../../Library/StdDriver/src/spi.c:737:36
	ldr	r1, [sp, #16]
	.loc	5 737 47                        @ ../../Library/StdDriver/src/spi.c:737:47
	lsls	r1, r1, #1
	.loc	5 737 52                        @ ../../Library/StdDriver/src/spi.c:737:52
	adds	r1, r1, #2
	.loc	5 737 32                        @ ../../Library/StdDriver/src/spi.c:737:32
	bl	__aeabi_uidiv
	.loc	5 737 20                        @ ../../Library/StdDriver/src/spi.c:737:20
	str	r0, [sp, #12]
	.loc	5 739 25 is_stmt 1              @ ../../Library/StdDriver/src/spi.c:739:25
	ldr	r0, [sp, #12]
	.loc	5 739 41 is_stmt 0              @ ../../Library/StdDriver/src/spi.c:739:41
	ldr	r1, [sp, #20]
	movs	r2, #15
	.loc	5 739 54                        @ ../../Library/StdDriver/src/spi.c:739:54
	bics	r1, r2
	.loc	5 739 86                        @ ../../Library/StdDriver/src/spi.c:739:86
	adds	r1, #16
	.loc	5 739 36                        @ ../../Library/StdDriver/src/spi.c:739:36
	bl	__aeabi_uidiv
	.loc	5 739 23                        @ ../../Library/StdDriver/src/spi.c:739:23
	str	r0, [sp, #24]
	.loc	5 742 9 is_stmt 1               @ ../../Library/StdDriver/src/spi.c:742:9
	ldr	r1, [sp, #32]
	.loc	5 742 21 is_stmt 0              @ ../../Library/StdDriver/src/spi.c:742:21
	ldr	r0, [r1, #96]
	movs	r2, #7
	orrs	r0, r2
	str	r0, [r1, #96]
	.loc	5 745 16 is_stmt 1              @ ../../Library/StdDriver/src/spi.c:745:16
	ldr	r0, [sp, #24]
	.loc	5 745 9 is_stmt 0               @ ../../Library/StdDriver/src/spi.c:745:9
	str	r0, [sp, #36]
	b	.LBB15_7
.Ltmp277:
.LBB15_6:
	.loc	5 750 9 is_stmt 1               @ ../../Library/StdDriver/src/spi.c:750:9
	ldr	r1, [sp, #32]
	.loc	5 750 21 is_stmt 0              @ ../../Library/StdDriver/src/spi.c:750:21
	ldr	r0, [r1, #100]
	ldr	r2, __arm_cp.15_2
	ands	r0, r2
	str	r0, [r1, #100]
	.loc	5 752 23 is_stmt 1              @ ../../Library/StdDriver/src/spi.c:752:23
	bl	CLK_GetHCLKFreq
	.loc	5 752 21 is_stmt 0              @ ../../Library/StdDriver/src/spi.c:752:21
	str	r0, [sp, #4]
	ldr	r1, __arm_cp.15_3
	.loc	5 755 30 is_stmt 1              @ ../../Library/StdDriver/src/spi.c:755:30
	ldr	r0, [r1]
	movs	r2, #32
	.loc	5 755 38 is_stmt 0              @ ../../Library/StdDriver/src/spi.c:755:38
	orrs	r0, r2
	movs	r2, #16
	.loc	5 755 68                        @ ../../Library/StdDriver/src/spi.c:755:68
	bics	r0, r2
	.loc	5 755 22                        @ ../../Library/StdDriver/src/spi.c:755:22
	str	r0, [r1]
	.loc	5 757 9 is_stmt 1               @ ../../Library/StdDriver/src/spi.c:757:9
	ldr	r1, [sp, #32]
	.loc	5 757 21 is_stmt 0              @ ../../Library/StdDriver/src/spi.c:757:21
	ldr	r0, [r1, #96]
	movs	r2, #7
	orrs	r0, r2
	str	r0, [r1, #96]
	.loc	5 759 17 is_stmt 1              @ ../../Library/StdDriver/src/spi.c:759:17
	ldr	r0, [sp, #4]
	ldr	r1, __arm_cp.15_4
	.loc	5 759 38 is_stmt 0              @ ../../Library/StdDriver/src/spi.c:759:38
	ldr	r1, [r1]
	.loc	5 759 46                        @ ../../Library/StdDriver/src/spi.c:759:46
	ands	r1, r2
	.loc	5 759 72                        @ ../../Library/StdDriver/src/spi.c:759:72
	adds	r1, r1, #1
	.loc	5 759 29                        @ ../../Library/StdDriver/src/spi.c:759:29
	bl	__aeabi_uidiv
	.loc	5 759 9                         @ ../../Library/StdDriver/src/spi.c:759:9
	str	r0, [sp, #36]
	b	.LBB15_7
.Ltmp278:
.LBB15_7:
	.loc	5 761 1 is_stmt 1               @ ../../Library/StdDriver/src/spi.c:761:1
	ldr	r0, [sp, #36]
	add	sp, #40
	pop	{r4, pc}
.Ltmp279:
	.p2align	2
@ %bb.8:
	.loc	5 0 1 is_stmt 0                 @ ../../Library/StdDriver/src/spi.c:0:1
__arm_cp.15_0:
	.long	1074139136                      @ 0x40061000
.Lcpi_end27:
	.size	__arm_cp.15_0, .Lcpi_end27-__arm_cp.15_0
__arm_cp.15_1:
	.long	1073741836                      @ 0x4000000c
.Lcpi_end28:
	.size	__arm_cp.15_1, .Lcpi_end28-__arm_cp.15_1
__arm_cp.15_2:
	.long	4294705407                      @ 0xfffc00ff
.Lcpi_end29:
	.size	__arm_cp.15_2, .Lcpi_end29-__arm_cp.15_2
__arm_cp.15_3:
	.long	1073742360                      @ 0x40000218
.Lcpi_end30:
	.size	__arm_cp.15_3, .Lcpi_end30-__arm_cp.15_3
__arm_cp.15_4:
	.long	1073742388                      @ 0x40000234
.Lcpi_end31:
	.size	__arm_cp.15_4, .Lcpi_end31-__arm_cp.15_4
.Lfunc_end15:
	.size	SPII2S_Open, .Lfunc_end15-SPII2S_Open
	.cfi_endproc
	.cantunwind
	.fnend
                                        @ -- End function
	.section	.text.SPII2S_GetSourceClockFreq,"ax",%progbits
	.p2align	2                               @ -- Begin function SPII2S_GetSourceClockFreq
	.type	SPII2S_GetSourceClockFreq,%function
	.code	16                              @ @SPII2S_GetSourceClockFreq
	.thumb_func
SPII2S_GetSourceClockFreq:
.Lfunc_begin16:
	.loc	5 652 0 is_stmt 1               @ ../../Library/StdDriver/src/spi.c:652:0
	.fnstart
	.cfi_startproc
@ %bb.0:
	.save	{r7, lr}
	push	{r7, lr}
	.cfi_def_cfa_offset 8
	.cfi_offset lr, -4
	.cfi_offset r7, -8
	.pad	#16
	sub	sp, #16
	.cfi_def_cfa_offset 24
	str	r0, [sp, #8]
.Ltmp280:
	.loc	5 656 8 prologue_end            @ ../../Library/StdDriver/src/spi.c:656:8
	ldr	r0, [sp, #8]
	ldr	r1, __arm_cp.16_0
.Ltmp281:
	.loc	5 656 8 is_stmt 0               @ ../../Library/StdDriver/src/spi.c:656:8
	cmp	r0, r1
	beq	.LBB16_2
	b	.LBB16_1
.LBB16_1:
	.loc	5 0 8                           @ ../../Library/StdDriver/src/spi.c:0:8
	movs	r0, #0
.Ltmp282:
	.loc	5 656 21                        @ ../../Library/StdDriver/src/spi.c:656:21
	str	r0, [sp, #12]
	b	.LBB16_14
.Ltmp283:
.LBB16_2:
	.loc	5 658 8 is_stmt 1               @ ../../Library/StdDriver/src/spi.c:658:8
	ldr	r0, [sp, #8]
	ldr	r1, __arm_cp.16_0
.Ltmp284:
	.loc	5 658 8 is_stmt 0               @ ../../Library/StdDriver/src/spi.c:658:8
	cmp	r0, r1
	bne	.LBB16_13
	b	.LBB16_3
.LBB16_3:
	.loc	5 0 8                           @ ../../Library/StdDriver/src/spi.c:0:8
	ldr	r0, __arm_cp.16_1
.Ltmp285:
	.loc	5 660 18 is_stmt 1              @ ../../Library/StdDriver/src/spi.c:660:18
	ldr	r0, [r0]
.Ltmp286:
	.loc	5 660 12 is_stmt 0              @ ../../Library/StdDriver/src/spi.c:660:12
	lsls	r0, r0, #26
	lsrs	r0, r0, #30
	cmp	r0, #0
	bne	.LBB16_5
	b	.LBB16_4
.LBB16_4:
	.loc	5 0 12                          @ ../../Library/StdDriver/src/spi.c:0:12
	ldr	r0, __arm_cp.16_4
.Ltmp287:
	.loc	5 661 21 is_stmt 1              @ ../../Library/StdDriver/src/spi.c:661:21
	str	r0, [sp, #4]
	.loc	5 661 13 is_stmt 0              @ ../../Library/StdDriver/src/spi.c:661:13
	b	.LBB16_12
.LBB16_5:
	.loc	5 0 13                          @ ../../Library/StdDriver/src/spi.c:0:13
	ldr	r0, __arm_cp.16_1
.Ltmp288:
	.loc	5 662 23 is_stmt 1              @ ../../Library/StdDriver/src/spi.c:662:23
	ldr	r0, [r0]
	movs	r1, #48
	.loc	5 662 31 is_stmt 0              @ ../../Library/StdDriver/src/spi.c:662:31
	ands	r0, r1
.Ltmp289:
	.loc	5 662 17                        @ ../../Library/StdDriver/src/spi.c:662:17
	cmp	r0, #16
	bne	.LBB16_7
	b	.LBB16_6
.LBB16_6:
.Ltmp290:
	.loc	5 663 23 is_stmt 1              @ ../../Library/StdDriver/src/spi.c:663:23
	bl	CLK_GetPLLClockFreq
	.loc	5 663 21 is_stmt 0              @ ../../Library/StdDriver/src/spi.c:663:21
	str	r0, [sp, #4]
	.loc	5 663 13                        @ ../../Library/StdDriver/src/spi.c:663:13
	b	.LBB16_11
.LBB16_7:
	.loc	5 0 13                          @ ../../Library/StdDriver/src/spi.c:0:13
	ldr	r0, __arm_cp.16_1
.Ltmp291:
	.loc	5 664 23 is_stmt 1              @ ../../Library/StdDriver/src/spi.c:664:23
	ldr	r0, [r0]
	movs	r1, #48
	.loc	5 664 31 is_stmt 0              @ ../../Library/StdDriver/src/spi.c:664:31
	ands	r0, r1
.Ltmp292:
	.loc	5 664 17                        @ ../../Library/StdDriver/src/spi.c:664:17
	cmp	r0, #32
	bne	.LBB16_9
	b	.LBB16_8
.LBB16_8:
.Ltmp293:
	.loc	5 667 27 is_stmt 1              @ ../../Library/StdDriver/src/spi.c:667:27
	bl	CLK_GetHCLKFreq
	.loc	5 667 25 is_stmt 0              @ ../../Library/StdDriver/src/spi.c:667:25
	str	r0, [sp]
	.loc	5 669 23 is_stmt 1              @ ../../Library/StdDriver/src/spi.c:669:23
	ldr	r0, [sp]
	ldr	r1, __arm_cp.16_3
	.loc	5 669 44 is_stmt 0              @ ../../Library/StdDriver/src/spi.c:669:44
	ldr	r1, [r1]
	movs	r2, #7
	.loc	5 669 52                        @ ../../Library/StdDriver/src/spi.c:669:52
	ands	r1, r2
	.loc	5 669 78                        @ ../../Library/StdDriver/src/spi.c:669:78
	adds	r1, r1, #1
	.loc	5 669 35                        @ ../../Library/StdDriver/src/spi.c:669:35
	bl	__aeabi_uidiv
	.loc	5 669 21                        @ ../../Library/StdDriver/src/spi.c:669:21
	str	r0, [sp, #4]
	.loc	5 670 9 is_stmt 1               @ ../../Library/StdDriver/src/spi.c:670:9
	b	.LBB16_10
.Ltmp294:
.LBB16_9:
	.loc	5 0 9 is_stmt 0                 @ ../../Library/StdDriver/src/spi.c:0:9
	ldr	r0, __arm_cp.16_2
	.loc	5 672 21 is_stmt 1              @ ../../Library/StdDriver/src/spi.c:672:21
	str	r0, [sp, #4]
	b	.LBB16_10
.Ltmp295:
.LBB16_10:
	.loc	5 0 21 is_stmt 0                @ ../../Library/StdDriver/src/spi.c:0:21
	b	.LBB16_11
.LBB16_11:
	b	.LBB16_12
.LBB16_12:
	.loc	5 673 5 is_stmt 1               @ ../../Library/StdDriver/src/spi.c:673:5
	b	.LBB16_13
.Ltmp296:
.LBB16_13:
	.loc	5 675 12                        @ ../../Library/StdDriver/src/spi.c:675:12
	ldr	r0, [sp, #4]
	.loc	5 675 5 is_stmt 0               @ ../../Library/StdDriver/src/spi.c:675:5
	str	r0, [sp, #12]
	b	.LBB16_14
.LBB16_14:
	.loc	5 676 1 is_stmt 1               @ ../../Library/StdDriver/src/spi.c:676:1
	ldr	r0, [sp, #12]
	add	sp, #16
	pop	{r7, pc}
.Ltmp297:
	.p2align	2
@ %bb.15:
	.loc	5 0 1 is_stmt 0                 @ ../../Library/StdDriver/src/spi.c:0:1
__arm_cp.16_0:
	.long	1074139136                      @ 0x40061000
.Lcpi_end32:
	.size	__arm_cp.16_0, .Lcpi_end32-__arm_cp.16_0
__arm_cp.16_1:
	.long	1073742360                      @ 0x40000218
.Lcpi_end33:
	.size	__arm_cp.16_1, .Lcpi_end33-__arm_cp.16_1
__arm_cp.16_2:
	.long	48000000                        @ 0x2dc6c00
.Lcpi_end34:
	.size	__arm_cp.16_2, .Lcpi_end34-__arm_cp.16_2
__arm_cp.16_3:
	.long	1073742388                      @ 0x40000234
.Lcpi_end35:
	.size	__arm_cp.16_3, .Lcpi_end35-__arm_cp.16_3
__arm_cp.16_4:
	.long	32000000                        @ 0x1e84800
.Lcpi_end36:
	.size	__arm_cp.16_4, .Lcpi_end36-__arm_cp.16_4
.Lfunc_end16:
	.size	SPII2S_GetSourceClockFreq, .Lfunc_end16-SPII2S_GetSourceClockFreq
	.cfi_endproc
	.cantunwind
	.fnend
                                        @ -- End function
	.section	.text.SPII2S_Close,"ax",%progbits
	.hidden	SPII2S_Close                    @ -- Begin function SPII2S_Close
	.globl	SPII2S_Close
	.p2align	1
	.type	SPII2S_Close,%function
	.code	16                              @ @SPII2S_Close
	.thumb_func
SPII2S_Close:
.Lfunc_begin17:
	.loc	5 770 0 is_stmt 1               @ ../../Library/StdDriver/src/spi.c:770:0
	.fnstart
	.cfi_startproc
@ %bb.0:
	.pad	#4
	sub	sp, #4
	.cfi_def_cfa_offset 4
	str	r0, [sp]
.Ltmp298:
	.loc	5 771 5 prologue_end            @ ../../Library/StdDriver/src/spi.c:771:5
	ldr	r1, [sp]
	.loc	5 771 17 is_stmt 0              @ ../../Library/StdDriver/src/spi.c:771:17
	ldr	r0, [r1, #96]
	movs	r2, #1
	bics	r0, r2
	str	r0, [r1, #96]
	.loc	5 772 1 is_stmt 1               @ ../../Library/StdDriver/src/spi.c:772:1
	add	sp, #4
	bx	lr
.Ltmp299:
.Lfunc_end17:
	.size	SPII2S_Close, .Lfunc_end17-SPII2S_Close
	.cfi_endproc
	.cantunwind
	.fnend
                                        @ -- End function
	.section	.text.SPII2S_EnableInt,"ax",%progbits
	.hidden	SPII2S_EnableInt                @ -- Begin function SPII2S_EnableInt
	.globl	SPII2S_EnableInt
	.p2align	1
	.type	SPII2S_EnableInt,%function
	.code	16                              @ @SPII2S_EnableInt
	.thumb_func
SPII2S_EnableInt:
.Lfunc_begin18:
	.loc	5 790 0                         @ ../../Library/StdDriver/src/spi.c:790:0
	.fnstart
	.cfi_startproc
@ %bb.0:
	.pad	#8
	sub	sp, #8
	.cfi_def_cfa_offset 8
	str	r0, [sp, #4]
	str	r1, [sp]
	mov	r0, sp
.Ltmp300:
	.loc	5 792 8 prologue_end            @ ../../Library/StdDriver/src/spi.c:792:8
	ldrb	r0, [r0]
	lsls	r0, r0, #31
	cmp	r0, #0
	beq	.LBB18_2
	b	.LBB18_1
.LBB18_1:
.Ltmp301:
	.loc	5 793 9                         @ ../../Library/StdDriver/src/spi.c:793:9
	ldr	r1, [sp, #4]
	.loc	5 793 22 is_stmt 0              @ ../../Library/StdDriver/src/spi.c:793:22
	ldr	r0, [r1, #16]
	movs	r2, #8
	orrs	r0, r2
	str	r0, [r1, #16]
	.loc	5 793 9                         @ ../../Library/StdDriver/src/spi.c:793:9
	b	.LBB18_2
.Ltmp302:
.LBB18_2:
	.loc	5 0 9                           @ ../../Library/StdDriver/src/spi.c:0:9
	mov	r0, sp
	.loc	5 796 8 is_stmt 1               @ ../../Library/StdDriver/src/spi.c:796:8
	ldrb	r0, [r0]
	lsls	r0, r0, #30
	cmp	r0, #0
	bpl	.LBB18_4
	b	.LBB18_3
.LBB18_3:
.Ltmp303:
	.loc	5 797 9                         @ ../../Library/StdDriver/src/spi.c:797:9
	ldr	r1, [sp, #4]
	.loc	5 797 22 is_stmt 0              @ ../../Library/StdDriver/src/spi.c:797:22
	ldr	r0, [r1, #16]
	movs	r2, #4
	orrs	r0, r2
	str	r0, [r1, #16]
	.loc	5 797 9                         @ ../../Library/StdDriver/src/spi.c:797:9
	b	.LBB18_4
.Ltmp304:
.LBB18_4:
	.loc	5 0 9                           @ ../../Library/StdDriver/src/spi.c:0:9
	mov	r0, sp
	.loc	5 800 8 is_stmt 1               @ ../../Library/StdDriver/src/spi.c:800:8
	ldrb	r0, [r0]
	lsls	r0, r0, #29
	cmp	r0, #0
	bpl	.LBB18_6
	b	.LBB18_5
.LBB18_5:
.Ltmp305:
	.loc	5 801 9                         @ ../../Library/StdDriver/src/spi.c:801:9
	ldr	r1, [sp, #4]
	.loc	5 801 22 is_stmt 0              @ ../../Library/StdDriver/src/spi.c:801:22
	ldr	r0, [r1, #16]
	movs	r2, #32
	orrs	r0, r2
	str	r0, [r1, #16]
	.loc	5 801 9                         @ ../../Library/StdDriver/src/spi.c:801:9
	b	.LBB18_6
.Ltmp306:
.LBB18_6:
	.loc	5 0 9                           @ ../../Library/StdDriver/src/spi.c:0:9
	mov	r0, sp
	.loc	5 804 8 is_stmt 1               @ ../../Library/StdDriver/src/spi.c:804:8
	ldrb	r0, [r0]
	lsls	r0, r0, #28
	cmp	r0, #0
	bpl	.LBB18_8
	b	.LBB18_7
.LBB18_7:
.Ltmp307:
	.loc	5 805 9                         @ ../../Library/StdDriver/src/spi.c:805:9
	ldr	r1, [sp, #4]
	.loc	5 805 22 is_stmt 0              @ ../../Library/StdDriver/src/spi.c:805:22
	ldr	r0, [r1, #16]
	movs	r2, #16
	orrs	r0, r2
	str	r0, [r1, #16]
	.loc	5 805 9                         @ ../../Library/StdDriver/src/spi.c:805:9
	b	.LBB18_8
.Ltmp308:
.LBB18_8:
	.loc	5 0 9                           @ ../../Library/StdDriver/src/spi.c:0:9
	mov	r0, sp
	.loc	5 808 8 is_stmt 1               @ ../../Library/StdDriver/src/spi.c:808:8
	ldrb	r0, [r0]
	lsls	r0, r0, #27
	cmp	r0, #0
	bpl	.LBB18_10
	b	.LBB18_9
.LBB18_9:
.Ltmp309:
	.loc	5 809 9                         @ ../../Library/StdDriver/src/spi.c:809:9
	ldr	r1, [sp, #4]
	.loc	5 809 22 is_stmt 0              @ ../../Library/StdDriver/src/spi.c:809:22
	ldr	r0, [r1, #16]
	movs	r2, #128
	orrs	r0, r2
	str	r0, [r1, #16]
	.loc	5 809 9                         @ ../../Library/StdDriver/src/spi.c:809:9
	b	.LBB18_10
.Ltmp310:
.LBB18_10:
	.loc	5 0 9                           @ ../../Library/StdDriver/src/spi.c:0:9
	mov	r0, sp
	.loc	5 812 8 is_stmt 1               @ ../../Library/StdDriver/src/spi.c:812:8
	ldrb	r0, [r0]
	lsls	r0, r0, #26
	cmp	r0, #0
	bpl	.LBB18_12
	b	.LBB18_11
.LBB18_11:
.Ltmp311:
	.loc	5 813 9                         @ ../../Library/StdDriver/src/spi.c:813:9
	ldr	r1, [sp, #4]
	.loc	5 813 21 is_stmt 0              @ ../../Library/StdDriver/src/spi.c:813:21
	ldr	r0, [r1, #96]
	movs	r2, #1
	lsls	r2, r2, #24
	orrs	r0, r2
	str	r0, [r1, #96]
	.loc	5 813 9                         @ ../../Library/StdDriver/src/spi.c:813:9
	b	.LBB18_12
.Ltmp312:
.LBB18_12:
	.loc	5 0 9                           @ ../../Library/StdDriver/src/spi.c:0:9
	mov	r0, sp
	.loc	5 816 8 is_stmt 1               @ ../../Library/StdDriver/src/spi.c:816:8
	ldrb	r0, [r0]
	lsls	r0, r0, #25
	cmp	r0, #0
	bpl	.LBB18_14
	b	.LBB18_13
.LBB18_13:
.Ltmp313:
	.loc	5 817 9                         @ ../../Library/StdDriver/src/spi.c:817:9
	ldr	r1, [sp, #4]
	.loc	5 817 21 is_stmt 0              @ ../../Library/StdDriver/src/spi.c:817:21
	ldr	r0, [r1, #96]
	movs	r2, #1
	lsls	r2, r2, #25
	orrs	r0, r2
	str	r0, [r1, #96]
	.loc	5 817 9                         @ ../../Library/StdDriver/src/spi.c:817:9
	b	.LBB18_14
.Ltmp314:
.LBB18_14:
	.loc	5 818 1 is_stmt 1               @ ../../Library/StdDriver/src/spi.c:818:1
	add	sp, #8
	bx	lr
.Ltmp315:
.Lfunc_end18:
	.size	SPII2S_EnableInt, .Lfunc_end18-SPII2S_EnableInt
	.cfi_endproc
	.cantunwind
	.fnend
                                        @ -- End function
	.section	.text.SPII2S_DisableInt,"ax",%progbits
	.hidden	SPII2S_DisableInt               @ -- Begin function SPII2S_DisableInt
	.globl	SPII2S_DisableInt
	.p2align	1
	.type	SPII2S_DisableInt,%function
	.code	16                              @ @SPII2S_DisableInt
	.thumb_func
SPII2S_DisableInt:
.Lfunc_begin19:
	.loc	5 836 0                         @ ../../Library/StdDriver/src/spi.c:836:0
	.fnstart
	.cfi_startproc
@ %bb.0:
	.pad	#8
	sub	sp, #8
	.cfi_def_cfa_offset 8
	str	r0, [sp, #4]
	str	r1, [sp]
	mov	r0, sp
.Ltmp316:
	.loc	5 838 8 prologue_end            @ ../../Library/StdDriver/src/spi.c:838:8
	ldrb	r0, [r0]
	lsls	r0, r0, #31
	cmp	r0, #0
	beq	.LBB19_2
	b	.LBB19_1
.LBB19_1:
.Ltmp317:
	.loc	5 839 9                         @ ../../Library/StdDriver/src/spi.c:839:9
	ldr	r1, [sp, #4]
	.loc	5 839 22 is_stmt 0              @ ../../Library/StdDriver/src/spi.c:839:22
	ldr	r0, [r1, #16]
	movs	r2, #8
	bics	r0, r2
	str	r0, [r1, #16]
	.loc	5 839 9                         @ ../../Library/StdDriver/src/spi.c:839:9
	b	.LBB19_2
.Ltmp318:
.LBB19_2:
	.loc	5 0 9                           @ ../../Library/StdDriver/src/spi.c:0:9
	mov	r0, sp
	.loc	5 842 8 is_stmt 1               @ ../../Library/StdDriver/src/spi.c:842:8
	ldrb	r0, [r0]
	lsls	r0, r0, #30
	cmp	r0, #0
	bpl	.LBB19_4
	b	.LBB19_3
.LBB19_3:
.Ltmp319:
	.loc	5 843 9                         @ ../../Library/StdDriver/src/spi.c:843:9
	ldr	r1, [sp, #4]
	.loc	5 843 22 is_stmt 0              @ ../../Library/StdDriver/src/spi.c:843:22
	ldr	r0, [r1, #16]
	movs	r2, #4
	bics	r0, r2
	str	r0, [r1, #16]
	.loc	5 843 9                         @ ../../Library/StdDriver/src/spi.c:843:9
	b	.LBB19_4
.Ltmp320:
.LBB19_4:
	.loc	5 0 9                           @ ../../Library/StdDriver/src/spi.c:0:9
	mov	r0, sp
	.loc	5 846 8 is_stmt 1               @ ../../Library/StdDriver/src/spi.c:846:8
	ldrb	r0, [r0]
	lsls	r0, r0, #29
	cmp	r0, #0
	bpl	.LBB19_6
	b	.LBB19_5
.LBB19_5:
.Ltmp321:
	.loc	5 847 9                         @ ../../Library/StdDriver/src/spi.c:847:9
	ldr	r1, [sp, #4]
	.loc	5 847 22 is_stmt 0              @ ../../Library/StdDriver/src/spi.c:847:22
	ldr	r0, [r1, #16]
	movs	r2, #32
	bics	r0, r2
	str	r0, [r1, #16]
	.loc	5 847 9                         @ ../../Library/StdDriver/src/spi.c:847:9
	b	.LBB19_6
.Ltmp322:
.LBB19_6:
	.loc	5 0 9                           @ ../../Library/StdDriver/src/spi.c:0:9
	mov	r0, sp
	.loc	5 850 8 is_stmt 1               @ ../../Library/StdDriver/src/spi.c:850:8
	ldrb	r0, [r0]
	lsls	r0, r0, #28
	cmp	r0, #0
	bpl	.LBB19_8
	b	.LBB19_7
.LBB19_7:
.Ltmp323:
	.loc	5 851 9                         @ ../../Library/StdDriver/src/spi.c:851:9
	ldr	r1, [sp, #4]
	.loc	5 851 22 is_stmt 0              @ ../../Library/StdDriver/src/spi.c:851:22
	ldr	r0, [r1, #16]
	movs	r2, #16
	bics	r0, r2
	str	r0, [r1, #16]
	.loc	5 851 9                         @ ../../Library/StdDriver/src/spi.c:851:9
	b	.LBB19_8
.Ltmp324:
.LBB19_8:
	.loc	5 0 9                           @ ../../Library/StdDriver/src/spi.c:0:9
	mov	r0, sp
	.loc	5 854 8 is_stmt 1               @ ../../Library/StdDriver/src/spi.c:854:8
	ldrb	r0, [r0]
	lsls	r0, r0, #27
	cmp	r0, #0
	bpl	.LBB19_10
	b	.LBB19_9
.LBB19_9:
.Ltmp325:
	.loc	5 855 9                         @ ../../Library/StdDriver/src/spi.c:855:9
	ldr	r1, [sp, #4]
	.loc	5 855 22 is_stmt 0              @ ../../Library/StdDriver/src/spi.c:855:22
	ldr	r0, [r1, #16]
	movs	r2, #128
	bics	r0, r2
	str	r0, [r1, #16]
	.loc	5 855 9                         @ ../../Library/StdDriver/src/spi.c:855:9
	b	.LBB19_10
.Ltmp326:
.LBB19_10:
	.loc	5 0 9                           @ ../../Library/StdDriver/src/spi.c:0:9
	mov	r0, sp
	.loc	5 858 8 is_stmt 1               @ ../../Library/StdDriver/src/spi.c:858:8
	ldrb	r0, [r0]
	lsls	r0, r0, #26
	cmp	r0, #0
	bpl	.LBB19_12
	b	.LBB19_11
.LBB19_11:
.Ltmp327:
	.loc	5 859 9                         @ ../../Library/StdDriver/src/spi.c:859:9
	ldr	r1, [sp, #4]
	.loc	5 859 21 is_stmt 0              @ ../../Library/StdDriver/src/spi.c:859:21
	ldr	r0, [r1, #96]
	movs	r2, #1
	lsls	r2, r2, #24
	bics	r0, r2
	str	r0, [r1, #96]
	.loc	5 859 9                         @ ../../Library/StdDriver/src/spi.c:859:9
	b	.LBB19_12
.Ltmp328:
.LBB19_12:
	.loc	5 0 9                           @ ../../Library/StdDriver/src/spi.c:0:9
	mov	r0, sp
	.loc	5 862 8 is_stmt 1               @ ../../Library/StdDriver/src/spi.c:862:8
	ldrb	r0, [r0]
	lsls	r0, r0, #25
	cmp	r0, #0
	bpl	.LBB19_14
	b	.LBB19_13
.LBB19_13:
.Ltmp329:
	.loc	5 863 9                         @ ../../Library/StdDriver/src/spi.c:863:9
	ldr	r1, [sp, #4]
	.loc	5 863 21 is_stmt 0              @ ../../Library/StdDriver/src/spi.c:863:21
	ldr	r0, [r1, #96]
	movs	r2, #1
	lsls	r2, r2, #25
	bics	r0, r2
	str	r0, [r1, #96]
	.loc	5 863 9                         @ ../../Library/StdDriver/src/spi.c:863:9
	b	.LBB19_14
.Ltmp330:
.LBB19_14:
	.loc	5 864 1 is_stmt 1               @ ../../Library/StdDriver/src/spi.c:864:1
	add	sp, #8
	bx	lr
.Ltmp331:
.Lfunc_end19:
	.size	SPII2S_DisableInt, .Lfunc_end19-SPII2S_DisableInt
	.cfi_endproc
	.cantunwind
	.fnend
                                        @ -- End function
	.section	.text.SPII2S_EnableMCLK,"ax",%progbits
	.hidden	SPII2S_EnableMCLK               @ -- Begin function SPII2S_EnableMCLK
	.globl	SPII2S_EnableMCLK
	.p2align	1
	.type	SPII2S_EnableMCLK,%function
	.code	16                              @ @SPII2S_EnableMCLK
	.thumb_func
SPII2S_EnableMCLK:
.Lfunc_begin20:
	.loc	5 875 0                         @ ../../Library/StdDriver/src/spi.c:875:0
	.fnstart
	.cfi_startproc
@ %bb.0:
	.save	{r7, lr}
	push	{r7, lr}
	.cfi_def_cfa_offset 8
	.cfi_offset lr, -4
	.cfi_offset r7, -8
	.pad	#24
	sub	sp, #24
	.cfi_def_cfa_offset 32
	str	r0, [sp, #16]
	str	r1, [sp, #12]
.Ltmp332:
	.loc	5 879 43 prologue_end           @ ../../Library/StdDriver/src/spi.c:879:43
	ldr	r0, [sp, #16]
	.loc	5 879 17 is_stmt 0              @ ../../Library/StdDriver/src/spi.c:879:17
	bl	SPII2S_GetSourceClockFreq
	.loc	5 879 15                        @ ../../Library/StdDriver/src/spi.c:879:15
	str	r0, [sp, #4]
.Ltmp333:
	.loc	5 880 8 is_stmt 1               @ ../../Library/StdDriver/src/spi.c:880:8
	ldr	r0, [sp, #12]
	.loc	5 880 23 is_stmt 0              @ ../../Library/StdDriver/src/spi.c:880:23
	ldr	r1, [sp, #4]
.Ltmp334:
	.loc	5 880 8                         @ ../../Library/StdDriver/src/spi.c:880:8
	cmp	r0, r1
	bne	.LBB20_2
	b	.LBB20_1
.LBB20_1:
	.loc	5 0 8                           @ ../../Library/StdDriver/src/spi.c:0:8
	movs	r0, #0
.Ltmp335:
	.loc	5 881 20 is_stmt 1              @ ../../Library/StdDriver/src/spi.c:881:20
	str	r0, [sp, #8]
	.loc	5 881 9 is_stmt 0               @ ../../Library/StdDriver/src/spi.c:881:9
	b	.LBB20_5
.LBB20_2:
.Ltmp336:
	.loc	5 884 23 is_stmt 1              @ ../../Library/StdDriver/src/spi.c:884:23
	ldr	r0, [sp, #4]
	.loc	5 884 35 is_stmt 0              @ ../../Library/StdDriver/src/spi.c:884:35
	ldr	r1, [sp, #12]
	.loc	5 884 33                        @ ../../Library/StdDriver/src/spi.c:884:33
	bl	__aeabi_uidiv
	.loc	5 884 48                        @ ../../Library/StdDriver/src/spi.c:884:48
	lsrs	r0, r0, #1
	.loc	5 884 20                        @ ../../Library/StdDriver/src/spi.c:884:20
	str	r0, [sp, #8]
.Ltmp337:
	.loc	5 886 12 is_stmt 1              @ ../../Library/StdDriver/src/spi.c:886:12
	ldr	r0, [sp, #8]
.Ltmp338:
	.loc	5 886 12 is_stmt 0              @ ../../Library/StdDriver/src/spi.c:886:12
	lsrs	r0, r0, #8
	cmp	r0, #0
	beq	.LBB20_4
	b	.LBB20_3
.LBB20_3:
	.loc	5 0 12                          @ ../../Library/StdDriver/src/spi.c:0:12
	movs	r0, #255
.Ltmp339:
	.loc	5 887 24 is_stmt 1              @ ../../Library/StdDriver/src/spi.c:887:24
	str	r0, [sp, #8]
	.loc	5 887 13 is_stmt 0              @ ../../Library/StdDriver/src/spi.c:887:13
	b	.LBB20_4
.Ltmp340:
.LBB20_4:
	.loc	5 0 13                          @ ../../Library/StdDriver/src/spi.c:0:13
	b	.LBB20_5
.LBB20_5:
	.loc	5 891 20 is_stmt 1              @ ../../Library/StdDriver/src/spi.c:891:20
	ldr	r0, [sp, #16]
	.loc	5 891 25 is_stmt 0              @ ../../Library/StdDriver/src/spi.c:891:25
	ldr	r0, [r0, #100]
	movs	r1, #127
	.loc	5 891 32                        @ ../../Library/StdDriver/src/spi.c:891:32
	bics	r0, r1
	.loc	5 891 62                        @ ../../Library/StdDriver/src/spi.c:891:62
	ldr	r1, [sp, #8]
	.loc	5 891 59                        @ ../../Library/StdDriver/src/spi.c:891:59
	orrs	r0, r1
	.loc	5 891 5                         @ ../../Library/StdDriver/src/spi.c:891:5
	ldr	r1, [sp, #16]
	.loc	5 891 17                        @ ../../Library/StdDriver/src/spi.c:891:17
	str	r0, [r1, #100]
	.loc	5 894 5 is_stmt 1               @ ../../Library/StdDriver/src/spi.c:894:5
	ldr	r1, [sp, #16]
	.loc	5 894 17 is_stmt 0              @ ../../Library/StdDriver/src/spi.c:894:17
	ldr	r0, [r1, #96]
	movs	r2, #1
	lsls	r2, r2, #15
	orrs	r0, r2
	str	r0, [r1, #96]
.Ltmp341:
	.loc	5 896 8 is_stmt 1               @ ../../Library/StdDriver/src/spi.c:896:8
	ldr	r0, [sp, #8]
.Ltmp342:
	.loc	5 896 8 is_stmt 0               @ ../../Library/StdDriver/src/spi.c:896:8
	cmp	r0, #0
	bne	.LBB20_7
	b	.LBB20_6
.LBB20_6:
.Ltmp343:
	.loc	5 897 16 is_stmt 1              @ ../../Library/StdDriver/src/spi.c:897:16
	ldr	r0, [sp, #4]
	.loc	5 897 9 is_stmt 0               @ ../../Library/StdDriver/src/spi.c:897:9
	str	r0, [sp, #20]
	b	.LBB20_8
.LBB20_7:
	.loc	5 899 18 is_stmt 1              @ ../../Library/StdDriver/src/spi.c:899:18
	ldr	r0, [sp, #4]
	.loc	5 899 28 is_stmt 0              @ ../../Library/StdDriver/src/spi.c:899:28
	lsrs	r0, r0, #1
	.loc	5 899 36                        @ ../../Library/StdDriver/src/spi.c:899:36
	ldr	r1, [sp, #8]
	.loc	5 899 34                        @ ../../Library/StdDriver/src/spi.c:899:34
	bl	__aeabi_uidiv
	.loc	5 899 9                         @ ../../Library/StdDriver/src/spi.c:899:9
	str	r0, [sp, #20]
	b	.LBB20_8
.Ltmp344:
.LBB20_8:
	.loc	5 900 1 is_stmt 1               @ ../../Library/StdDriver/src/spi.c:900:1
	ldr	r0, [sp, #20]
	add	sp, #24
	pop	{r7, pc}
.Ltmp345:
.Lfunc_end20:
	.size	SPII2S_EnableMCLK, .Lfunc_end20-SPII2S_EnableMCLK
	.cfi_endproc
	.cantunwind
	.fnend
                                        @ -- End function
	.section	.text.SPII2S_DisableMCLK,"ax",%progbits
	.hidden	SPII2S_DisableMCLK              @ -- Begin function SPII2S_DisableMCLK
	.globl	SPII2S_DisableMCLK
	.p2align	1
	.type	SPII2S_DisableMCLK,%function
	.code	16                              @ @SPII2S_DisableMCLK
	.thumb_func
SPII2S_DisableMCLK:
.Lfunc_begin21:
	.loc	5 909 0                         @ ../../Library/StdDriver/src/spi.c:909:0
	.fnstart
	.cfi_startproc
@ %bb.0:
	.pad	#4
	sub	sp, #4
	.cfi_def_cfa_offset 4
	str	r0, [sp]
.Ltmp346:
	.loc	5 910 5 prologue_end            @ ../../Library/StdDriver/src/spi.c:910:5
	ldr	r1, [sp]
	.loc	5 910 17 is_stmt 0              @ ../../Library/StdDriver/src/spi.c:910:17
	ldr	r0, [r1, #96]
	movs	r2, #1
	lsls	r2, r2, #15
	bics	r0, r2
	str	r0, [r1, #96]
	.loc	5 911 1 is_stmt 1               @ ../../Library/StdDriver/src/spi.c:911:1
	add	sp, #4
	bx	lr
.Ltmp347:
.Lfunc_end21:
	.size	SPII2S_DisableMCLK, .Lfunc_end21-SPII2S_DisableMCLK
	.cfi_endproc
	.cantunwind
	.fnend
                                        @ -- End function
	.section	.text.SPII2S_SetFIFO,"ax",%progbits
	.hidden	SPII2S_SetFIFO                  @ -- Begin function SPII2S_SetFIFO
	.globl	SPII2S_SetFIFO
	.p2align	1
	.type	SPII2S_SetFIFO,%function
	.code	16                              @ @SPII2S_SetFIFO
	.thumb_func
SPII2S_SetFIFO:
.Lfunc_begin22:
	.loc	5 922 0                         @ ../../Library/StdDriver/src/spi.c:922:0
	.fnstart
	.cfi_startproc
@ %bb.0:
	.pad	#12
	sub	sp, #12
	.cfi_def_cfa_offset 12
	str	r0, [sp, #8]
	str	r1, [sp, #4]
	str	r2, [sp]
.Ltmp348:
	.loc	5 923 21 prologue_end           @ ../../Library/StdDriver/src/spi.c:923:21
	ldr	r0, [sp, #8]
	.loc	5 923 26 is_stmt 0              @ ../../Library/StdDriver/src/spi.c:923:26
	ldr	r0, [r0, #16]
	movs	r1, #119
	lsls	r1, r1, #24
	.loc	5 923 34                        @ ../../Library/StdDriver/src/spi.c:923:34
	bics	r0, r1
	.loc	5 924 21 is_stmt 1              @ ../../Library/StdDriver/src/spi.c:924:21
	ldr	r1, [sp, #4]
	.loc	5 924 36 is_stmt 0              @ ../../Library/StdDriver/src/spi.c:924:36
	lsls	r1, r1, #28
	.loc	5 923 84 is_stmt 1              @ ../../Library/StdDriver/src/spi.c:923:84
	orrs	r0, r1
	.loc	5 925 21                        @ ../../Library/StdDriver/src/spi.c:925:21
	ldr	r1, [sp]
	.loc	5 925 36 is_stmt 0              @ ../../Library/StdDriver/src/spi.c:925:36
	lsls	r1, r1, #24
	.loc	5 924 61 is_stmt 1              @ ../../Library/StdDriver/src/spi.c:924:61
	orrs	r0, r1
	.loc	5 923 5                         @ ../../Library/StdDriver/src/spi.c:923:5
	ldr	r1, [sp, #8]
	.loc	5 923 18 is_stmt 0              @ ../../Library/StdDriver/src/spi.c:923:18
	str	r0, [r1, #16]
	.loc	5 926 1 is_stmt 1               @ ../../Library/StdDriver/src/spi.c:926:1
	add	sp, #12
	bx	lr
.Ltmp349:
.Lfunc_end22:
	.size	SPII2S_SetFIFO, .Lfunc_end22-SPII2S_SetFIFO
	.cfi_endproc
	.cantunwind
	.fnend
                                        @ -- End function
	.type	.L__const.CLK_GetPLLClockFreq.au8NoTbl,%object @ @__const.CLK_GetPLLClockFreq.au8NoTbl
	.section	.rodata.cst4,"aM",%progbits,4
.L__const.CLK_GetPLLClockFreq.au8NoTbl:
	.ascii	"\001\002\002\004"
	.size	.L__const.CLK_GetPLLClockFreq.au8NoTbl, 4

	.section	".note.GNU-stack","",%progbits
	.eabi_attribute	30, 6	@ Tag_ABI_optimization_goals
	.ARM_attribute	16, 1	@ Tag_AV_eba