	.text
	.syntax unified
	.eabi_attribute	67, "2.09"	@ Tag_conformance
	.cpu	cortex-m0
	.eabi_attribute	6, 12	@ Tag_CPU_arch
	.eabi_attribute	7, 77	@ Tag_CPU_arch_profile
	.eabi_attribute	8, 0	@ Tag_ARM_ISA_use
	.eabi_attribute	9, 1	@ Tag_THUMB_ISA_use
	.eabi_attribute	34, 0	@ Tag_CPU_unaligned_access
	.eabi_attribute	17, 1	@ Tag_ABI_PCS_GOT_use
	.eabi_attribute	20, 2	@ Tag_ABI_FP_denormal
	.eabi_attribute	21, 0	@ Tag_ABI_FP_exceptions
	.eabi_attribute	23, 1	@ Tag_ABI_FP_number_model
	.eabi_attribute	24, 1	@ Tag_ABI_align_needed
	.eabi_attribute	25, 1	@ Tag_ABI_align_preserved
	.eabi_attribute	38, 1	@ Tag_ABI_FP_16bit_format
	.eabi_attribute	18, 2	@ Tag_ABI_PCS_wchar_t
	.eabi_attribute	26, 1	@ Tag_ABI_enum_size
	.eabi_attribute	14, 0	@ Tag_ABI_PCS_R9_use
	.file	"SunPos.c"
	.section	.text.degToRad,"ax",%progbits
	.hidden	degToRad                        @ -- Begin function degToRad
	.globl	degToRad
	.p2align	2
	.type	degToRad,%function
	.code	16                              @ @degToRad
	.thumb_func
degToRad:
.Lfunc_begin0:
	.file	1 "D:\\Projects\\CCMSFloridaPhpr\\Application\\KEIL" "../Source/SunPos.c"
	.loc	1 9 0                           @ ../Source/SunPos.c:9:0
	.fnstart
	.cfi_sections .debug_frame
	.cfi_startproc
@ %bb.0:
	.save	{r7, lr}
	push	{r7, lr}
	.cfi_def_cfa_offset 8
	.cfi_offset lr, -4
	.cfi_offset r7, -8
	.pad	#8
	sub	sp, #8
	.cfi_def_cfa_offset 16
                                        @ kill: def $r2 killed $r1
                                        @ kill: def $r2 killed $r0
	str	r1, [sp, #4]
	str	r0, [sp]
.Ltmp0:
	.loc	1 10 18 prologue_end            @ ../Source/SunPos.c:10:18
	ldr	r0, [sp]
	ldr	r1, [sp, #4]
	ldr	r2, __arm_cp.0_0
	ldr	r3, __arm_cp.0_1
	.loc	1 10 16 is_stmt 0               @ ../Source/SunPos.c:10:16
	bl	__aeabi_dmul
	movs	r2, #0
	ldr	r3, __arm_cp.0_2
	.loc	1 10 27                         @ ../Source/SunPos.c:10:27
	bl	__aeabi_ddiv
	.loc	1 10 3                          @ ../Source/SunPos.c:10:3
	add	sp, #8
	pop	{r7, pc}
.Ltmp1:
	.p2align	2
@ %bb.1:
	.loc	1 0 3                           @ ../Source/SunPos.c:0:3
__arm_cp.0_0:
	.long	1413754136                      @ 0x54442d18
.Lcpi_end0:
	.size	__arm_cp.0_0, .Lcpi_end0-__arm_cp.0_0
__arm_cp.0_1:
	.long	1074340347                      @ 0x400921fb
.Lcpi_end1:
	.size	__arm_cp.0_1, .Lcpi_end1-__arm_cp.0_1
__arm_cp.0_2:
	.long	1080459264                      @ 0x40668000
.Lcpi_end2:
	.size	__arm_cp.0_2, .Lcpi_end2-__arm_cp.0_2
.Lfunc_end0:
	.size	degToRad, .Lfunc_end0-degToRad
	.cfi_endproc
	.cantunwind
	.fnend
                                        @ -- End function
	.section	.text.radToDeg,"ax",%progbits
	.hidden	radToDeg                        @ -- Begin function radToDeg
	.globl	radToDeg
	.p2align	2
	.type	radToDeg,%function
	.code	16                              @ @radToDeg
	.thumb_func
radToDeg:
.Lfunc_begin1:
	.loc	1 14 0 is_stmt 1                @ ../Source/SunPos.c:14:0
	.fnstart
	.cfi_startproc
@ %bb.0:
	.save	{r7, lr}
	push	{r7, lr}
	.cfi_def_cfa_offset 8
	.cfi_offset lr, -4
	.cfi_offset r7, -8
	.pad	#8
	sub	sp, #8
	.cfi_def_cfa_offset 16
                                        @ kill: def $r2 killed $r1
                                        @ kill: def $r2 killed $r0
	str	r1, [sp, #4]
	str	r0, [sp]
.Ltmp2:
	.loc	1 15 19 prologue_end            @ ../Source/SunPos.c:15:19
	ldr	r0, [sp]
	ldr	r1, [sp, #4]
	movs	r2, #0
	ldr	r3, __arm_cp.1_0
	.loc	1 15 17 is_stmt 0               @ ../Source/SunPos.c:15:17
	bl	__aeabi_dmul
	ldr	r2, __arm_cp.1_1
	ldr	r3, __arm_cp.1_2
	.loc	1 15 28                         @ ../Source/SunPos.c:15:28
	bl	__aeabi_ddiv
	.loc	1 15 3                          @ ../Source/SunPos.c:15:3
	add	sp, #8
	pop	{r7, pc}
.Ltmp3:
	.p2align	2
@ %bb.1:
	.loc	1 0 3                           @ ../Source/SunPos.c:0:3
__arm_cp.1_0:
	.long	1080459264                      @ 0x40668000
.Lcpi_end3:
	.size	__arm_cp.1_0, .Lcpi_end3-__arm_cp.1_0
__arm_cp.1_1:
	.long	1413754136                      @ 0x54442d18
.Lcpi_end4:
	.size	__arm_cp.1_1, .Lcpi_end4-__arm_cp.1_1
__arm_cp.1_2:
	.long	1074340347                      @ 0x400921fb
.Lcpi_end5:
	.size	__arm_cp.1_2, .Lcpi_end5-__arm_cp.1_2
.Lfunc_end1:
	.size	radToDeg, .Lfunc_end1-radToDeg
	.cfi_endproc
	.cantunwind
	.fnend
                                        @ -- End function
	.section	.text.calcMeanObliquityOfEcliptic,"ax",%progbits
	.hidden	calcMeanObliquityOfEcliptic     @ -- Begin function calcMeanObliquityOfEcliptic
	.globl	calcMeanObliquityOfEcliptic
	.p2align	2
	.type	calcMeanObliquityOfEcliptic,%function
	.code	16                              @ @calcMeanObliquityOfEcliptic
	.thumb_func
calcMeanObliquityOfEcliptic:
.Lfunc_begin2:
	.loc	1 19 0 is_stmt 1                @ ../Source/SunPos.c:19:0
	.fnstart
	.cfi_startproc
@ %bb.0:
	.save	{r7, lr}
	push	{r7, lr}
	.cfi_def_cfa_offset 8
	.cfi_offset lr, -4
	.cfi_offset r7, -8
	.pad	#40
	sub	sp, #40
	.cfi_def_cfa_offset 48
                                        @ kill: def $r2 killed $r1
                                        @ kill: def $r2 killed $r0
	str	r1, [sp, #36]
	str	r0, [sp, #32]
.Ltmp4:
	.loc	1 20 29 prologue_end            @ ../Source/SunPos.c:20:29
	ldr	r0, [sp, #32]
	str	r0, [sp]                        @ 4-byte Spill
	ldr	r1, [sp, #36]
	.loc	1 20 56 is_stmt 0               @ ../Source/SunPos.c:20:56
	str	r1, [sp, #4]                    @ 4-byte Spill
	ldr	r2, __arm_cp.2_0
	ldr	r3, __arm_cp.2_1
	bl	__aeabi_dmul
	ldr	r2, __arm_cp.2_2
	ldr	r3, __arm_cp.2_3
	.loc	1 20 53                         @ ../Source/SunPos.c:20:53
	bl	__aeabi_dadd
	mov	r2, r0
	ldr	r0, [sp]                        @ 4-byte Reload
	mov	r3, r1
	.loc	1 20 43                         @ ../Source/SunPos.c:20:43
	ldr	r1, [sp, #4]                    @ 4-byte Reload
	bl	__aeabi_dmul
	ldr	r2, __arm_cp.2_4
	ldr	r3, __arm_cp.2_5
	.loc	1 20 40                         @ ../Source/SunPos.c:20:40
	bl	__aeabi_dadd
	mov	r2, r0
	ldr	r0, [sp]                        @ 4-byte Reload
	mov	r3, r1
	.loc	1 20 30                         @ ../Source/SunPos.c:20:30
	ldr	r1, [sp, #4]                    @ 4-byte Reload
	bl	__aeabi_dmul
	ldr	r2, __arm_cp.2_6
	ldr	r3, __arm_cp.2_7
	.loc	1 20 27                         @ ../Source/SunPos.c:20:27
	bl	__aeabi_dadd
	.loc	1 20 10                         @ ../Source/SunPos.c:20:10
	str	r1, [sp, #28]
	str	r0, [sp, #24]
	.loc	1 21 31 is_stmt 1               @ ../Source/SunPos.c:21:31
	ldr	r0, [sp, #24]
	ldr	r1, [sp, #28]
	movs	r2, #0
	str	r2, [sp, #12]                   @ 4-byte Spill
	ldr	r3, __arm_cp.2_8
	.loc	1 21 38 is_stmt 0               @ ../Source/SunPos.c:21:38
	str	r3, [sp, #8]                    @ 4-byte Spill
	bl	__aeabi_ddiv
	ldr	r2, [sp, #12]                   @ 4-byte Reload
	ldr	r3, __arm_cp.2_9
	.loc	1 21 28                         @ ../Source/SunPos.c:21:28
	bl	__aeabi_dadd
	ldr	r3, [sp, #8]                    @ 4-byte Reload
	ldr	r2, [sp, #12]                   @ 4-byte Reload
	.loc	1 21 45                         @ ../Source/SunPos.c:21:45
	bl	__aeabi_ddiv
	ldr	r2, [sp, #12]                   @ 4-byte Reload
	ldr	r3, __arm_cp.2_10
	.loc	1 21 20                         @ ../Source/SunPos.c:21:20
	bl	__aeabi_dadd
	.loc	1 21 10                         @ ../Source/SunPos.c:21:10
	str	r1, [sp, #20]
	str	r0, [sp, #16]
	.loc	1 23 3 is_stmt 1                @ ../Source/SunPos.c:23:3
	ldr	r0, [sp, #16]
	ldr	r1, [sp, #20]
	add	sp, #40
	pop	{r7, pc}
.Ltmp5:
	.p2align	2
@ %bb.1:
	.loc	1 0 3 is_stmt 0                 @ ../Source/SunPos.c:0:3
__arm_cp.2_0:
	.long	3981056726                      @ 0xed4a1ad6
.Lcpi_end6:
	.size	__arm_cp.2_0, .Lcpi_end6-__arm_cp.2_0
__arm_cp.2_1:
	.long	1063105605                      @ 0x3f5db445
.Lcpi_end7:
	.size	__arm_cp.2_1, .Lcpi_end7-__arm_cp.2_1
__arm_cp.2_2:
	.long	1513202878                      @ 0x5a31a4be
.Lcpi_end8:
	.size	__arm_cp.2_2, .Lcpi_end8-__arm_cp.2_2
__arm_cp.2_3:
	.long	3208860999                      @ 0xbf435547
.Lcpi_end9:
	.size	__arm_cp.2_3, .Lcpi_end9-__arm_cp.2_3
__arm_cp.2_4:
	.long	3951369912                      @ 0xeb851eb8
.Lcpi_end10:
	.size	__arm_cp.2_4, .Lcpi_end10-__arm_cp.2_4
__arm_cp.2_5:
	.long	3225905233                      @ 0xc0476851
.Lcpi_end11:
	.size	__arm_cp.2_5, .Lcpi_end11-__arm_cp.2_5
__arm_cp.2_6:
	.long	549755814                       @ 0x20c49ba6
.Lcpi_end12:
	.size	__arm_cp.2_6, .Lcpi_end12-__arm_cp.2_6
__arm_cp.2_7:
	.long	1077244592                      @ 0x403572b0
.Lcpi_end13:
	.size	__arm_cp.2_7, .Lcpi_end13-__arm_cp.2_7
__arm_cp.2_8:
	.long	1078853632                      @ 0x404e0000
.Lcpi_end14:
	.size	__arm_cp.2_8, .Lcpi_end14-__arm_cp.2_8
__arm_cp.2_9:
	.long	1077542912                      @ 0x403a0000
.Lcpi_end15:
	.size	__arm_cp.2_9, .Lcpi_end15-__arm_cp.2_9
__arm_cp.2_10:
	.long	1077346304                      @ 0x40370000
.Lcpi_end16:
	.size	__arm_cp.2_10, .Lcpi_end16-__arm_cp.2_10
.Lfunc_end2:
	.size	calcMeanObliquityOfEcliptic, .Lfunc_end2-calcMeanObliquityOfEcliptic
	.cfi_endproc
	.cantunwind
	.fnend
                                        @ -- End function
	.section	.text.calcGeomMeanLongSun,"ax",%progbits
	.hidden	calcGeomMeanLongSun             @ -- Begin function calcGeomMeanLongSun
	.globl	calcGeomMeanLongSun
	.p2align	2
	.type	calcGeomMeanLongSun,%function
	.code	16                              @ @calcGeomMeanLongSun
	.thumb_func
calcGeomMeanLongSun:
.Lfunc_begin3:
	.loc	1 28 0 is_stmt 1                @ ../Source/SunPos.c:28:0
	.fnstart
	.cfi_startproc
@ %bb.0:
	.save	{r7, lr}
	push	{r7, lr}
	.cfi_def_cfa_offset 8
	.cfi_offset lr, -4
	.cfi_offset r7, -8
	.pad	#24
	sub	sp, #24
	.cfi_def_cfa_offset 32
                                        @ kill: def $r2 killed $r1
                                        @ kill: def $r2 killed $r0
	str	r1, [sp, #20]
	str	r0, [sp, #16]
.Ltmp6:
	.loc	1 31 26 prologue_end            @ ../Source/SunPos.c:31:26
	ldr	r0, [sp, #16]
	str	r0, [sp]                        @ 4-byte Spill
	ldr	r1, [sp, #20]
	.loc	1 31 55 is_stmt 0               @ ../Source/SunPos.c:31:55
	str	r1, [sp, #4]                    @ 4-byte Spill
	ldr	r2, __arm_cp.3_0
	ldr	r3, __arm_cp.3_1
	bl	__aeabi_dmul
	ldr	r2, __arm_cp.3_2
	ldr	r3, __arm_cp.3_3
	.loc	1 31 43                         @ ../Source/SunPos.c:31:43
	bl	__aeabi_dadd
	mov	r2, r0
	ldr	r0, [sp]                        @ 4-byte Reload
	mov	r3, r1
	.loc	1 31 28                         @ ../Source/SunPos.c:31:28
	ldr	r1, [sp, #4]                    @ 4-byte Reload
	bl	__aeabi_dmul
	ldr	r2, __arm_cp.3_4
	ldr	r3, __arm_cp.3_5
	.loc	1 31 24                         @ ../Source/SunPos.c:31:24
	bl	__aeabi_dadd
	.loc	1 31 10                         @ ../Source/SunPos.c:31:10
	str	r1, [sp, #12]
	str	r0, [sp, #8]
	.loc	1 32 3 is_stmt 1                @ ../Source/SunPos.c:32:3
	b	.LBB3_1
.LBB3_1:                                @ =>This Inner Loop Header: Depth=1
	.loc	1 32 16 is_stmt 0               @ ../Source/SunPos.c:32:16
	ldr	r0, [sp, #8]
	ldr	r1, [sp, #12]
	.loc	1 32 10                         @ ../Source/SunPos.c:32:10
	bl	__aeabi_d2iz
	movs	r1, #255
	adds	r1, #106
	.loc	1 32 3                          @ ../Source/SunPos.c:32:3
	cmp	r0, r1
	blt	.LBB3_3
	b	.LBB3_2
.LBB3_2:                                @   in Loop: Header=BB3_1 Depth=1
.Ltmp7:
	.loc	1 34 9 is_stmt 1                @ ../Source/SunPos.c:34:9
	ldr	r0, [sp, #8]
	ldr	r1, [sp, #12]
	movs	r2, #0
	ldr	r3, __arm_cp.3_7
	bl	__aeabi_dadd
	str	r1, [sp, #12]
	str	r0, [sp, #8]
.Ltmp8:
	.loc	1 32 3                          @ ../Source/SunPos.c:32:3
	b	.LBB3_1
.LBB3_3:
	.loc	1 37 3                          @ ../Source/SunPos.c:37:3
	b	.LBB3_4
.LBB3_4:                                @ =>This Inner Loop Header: Depth=1
	.loc	1 37 11 is_stmt 0               @ ../Source/SunPos.c:37:11
	ldr	r0, [sp, #8]
	ldr	r1, [sp, #12]
	movs	r3, #0
	.loc	1 37 13                         @ ../Source/SunPos.c:37:13
	mov	r2, r3
	bl	__aeabi_dcmpge
	.loc	1 37 3                          @ ../Source/SunPos.c:37:3
	cmp	r0, #0
	bne	.LBB3_6
	b	.LBB3_5
.LBB3_5:                                @   in Loop: Header=BB3_4 Depth=1
.Ltmp9:
	.loc	1 39 9 is_stmt 1                @ ../Source/SunPos.c:39:9
	ldr	r0, [sp, #8]
	ldr	r1, [sp, #12]
	movs	r2, #0
	ldr	r3, __arm_cp.3_6
	bl	__aeabi_dadd
	str	r1, [sp, #12]
	str	r0, [sp, #8]
.Ltmp10:
	.loc	1 37 3                          @ ../Source/SunPos.c:37:3
	b	.LBB3_4
.LBB3_6:
	.loc	1 44 3                          @ ../Source/SunPos.c:44:3
	ldr	r0, [sp, #8]
	ldr	r1, [sp, #12]
	add	sp, #24
	pop	{r7, pc}
.Ltmp11:
	.p2align	2
@ %bb.7:
	.loc	1 0 3 is_stmt 0                 @ ../Source/SunPos.c:0:3
__arm_cp.3_0:
	.long	361409472                       @ 0x158aabc0
.Lcpi_end17:
	.size	__arm_cp.3_0, .Lcpi_end17-__arm_cp.3_0
__arm_cp.3_1:
	.long	1060363994                      @ 0x3f33deda
.Lcpi_end18:
	.size	__arm_cp.3_1, .Lcpi_end18-__arm_cp.3_1
__arm_cp.3_2:
	.long	2725414447                      @ 0xa272862f
.Lcpi_end19:
	.size	__arm_cp.3_2, .Lcpi_end19-__arm_cp.3_2
__arm_cp.3_3:
	.long	1088525336                      @ 0x40e19418
.Lcpi_end20:
	.size	__arm_cp.3_3, .Lcpi_end20-__arm_cp.3_3
__arm_cp.3_4:
	.long	2663566918                      @ 0x9ec2ce46
.Lcpi_end21:
	.size	__arm_cp.3_4, .Lcpi_end21-__arm_cp.3_4
__arm_cp.3_5:
	.long	1081182070                      @ 0x40718776
.Lcpi_end22:
	.size	__arm_cp.3_5, .Lcpi_end22-__arm_cp.3_5
__arm_cp.3_6:
	.long	1081507840                      @ 0x40768000
.Lcpi_end23:
	.size	__arm_cp.3_6, .Lcpi_end23-__arm_cp.3_6
__arm_cp.3_7:
	.long	3228991488                      @ 0xc0768000
.Lcpi_end24:
	.size	__arm_cp.3_7, .Lcpi_end24-__arm_cp.3_7
.Lfunc_end3:
	.size	calcGeomMeanLongSun, .Lfunc_end3-calcGeomMeanLongSun
	.cfi_endproc
	.cantunwind
	.fnend
                                        @ -- End function
	.section	.text.calcObliquityCorrection,"ax",%progbits
	.hidden	calcObliquityCorrection         @ -- Begin function calcObliquityCorrection
	.globl	calcObliquityCorrection
	.p2align	2
	.type	calcObliquityCorrection,%function
	.code	16                              @ @calcObliquityCorrection
	.thumb_func
calcObliquityCorrection:
.Lfunc_begin4:
	.loc	1 48 0 is_stmt 1                @ ../Source/SunPos.c:48:0
	.fnstart
	.cfi_startproc
@ %bb.0:
	.save	{r7, lr}
	push	{r7, lr}
	.cfi_def_cfa_offset 8
	.cfi_offset lr, -4
	.cfi_offset r7, -8
	.pad	#40
	sub	sp, #40
	.cfi_def_cfa_offset 48
                                        @ kill: def $r2 killed $r1
                                        @ kill: def $r2 killed $r0
	str	r1, [sp, #36]
	str	r0, [sp, #32]
.Ltmp12:
	.loc	1 49 15 prologue_end            @ ../Source/SunPos.c:49:15
	ldr	r1, [sp, #36]
	ldr	r0, [sp, #32]
	bl	calcMeanObliquityOfEcliptic
	.loc	1 49 10 is_stmt 0               @ ../Source/SunPos.c:49:10
	str	r1, [sp, #28]
	str	r0, [sp, #24]
	.loc	1 52 38 is_stmt 1               @ ../Source/SunPos.c:52:38
	ldr	r0, [sp, #32]
	ldr	r1, [sp, #36]
	ldr	r2, __arm_cp.4_0
	ldr	r3, __arm_cp.4_1
	.loc	1 52 36 is_stmt 0               @ ../Source/SunPos.c:52:36
	bl	__aeabi_dmul
	ldr	r2, __arm_cp.4_2
	ldr	r3, __arm_cp.4_3
	.loc	1 52 25                         @ ../Source/SunPos.c:52:25
	bl	__aeabi_dadd
	.loc	1 52 10                         @ ../Source/SunPos.c:52:10
	str	r1, [sp, #20]
	str	r0, [sp, #16]
	.loc	1 53 14 is_stmt 1               @ ../Source/SunPos.c:53:14
	ldr	r0, [sp, #28]
	str	r0, [sp, #4]                    @ 4-byte Spill
	ldr	r0, [sp, #24]
	.loc	1 53 33 is_stmt 0               @ ../Source/SunPos.c:53:33
	str	r0, [sp]                        @ 4-byte Spill
	ldr	r1, [sp, #20]
	ldr	r0, [sp, #16]
	bl	degToRad
	.loc	1 53 29                         @ ../Source/SunPos.c:53:29
	bl	cos
	ldr	r2, __arm_cp.4_4
	ldr	r3, __arm_cp.4_5
	.loc	1 53 27                         @ ../Source/SunPos.c:53:27
	bl	__aeabi_dmul
	mov	r2, r0
	ldr	r0, [sp]                        @ 4-byte Reload
	mov	r3, r1
	.loc	1 53 17                         @ ../Source/SunPos.c:53:17
	ldr	r1, [sp, #4]                    @ 4-byte Reload
	bl	__aeabi_dadd
	.loc	1 53 10                         @ ../Source/SunPos.c:53:10
	str	r1, [sp, #12]
	str	r0, [sp, #8]
	.loc	1 54 3 is_stmt 1                @ ../Source/SunPos.c:54:3
	ldr	r0, [sp, #8]
	ldr	r1, [sp, #12]
	add	sp, #40
	pop	{r7, pc}
.Ltmp13:
	.p2align	2
@ %bb.1:
	.loc	1 0 3 is_stmt 0                 @ ../Source/SunPos.c:0:3
__arm_cp.4_0:
	.long	1133871366                      @ 0x43958106
.Lcpi_end25:
	.size	__arm_cp.4_0, .Lcpi_end25-__arm_cp.4_0
__arm_cp.4_1:
	.long	3231594635                      @ 0xc09e388b
.Lcpi_end26:
	.size	__arm_cp.4_1, .Lcpi_end26-__arm_cp.4_1
__arm_cp.4_2:
	.long	1546188227                      @ 0x5c28f5c3
.Lcpi_end27:
	.size	__arm_cp.4_2, .Lcpi_end27-__arm_cp.4_2
__arm_cp.4_3:
	.long	1079984783                      @ 0x405f428f
.Lcpi_end28:
	.size	__arm_cp.4_3, .Lcpi_end28-__arm_cp.4_3
__arm_cp.4_4:
	.long	2296604913                      @ 0x88e368f1
.Lcpi_end29:
	.size	__arm_cp.4_4, .Lcpi_end29-__arm_cp.4_4
__arm_cp.4_5:
	.long	1063581877                      @ 0x3f64f8b5
.Lcpi_end30:
	.size	__arm_cp.4_5, .Lcpi_end30-__arm_cp.4_5
.Lfunc_end4:
	.size	calcObliquityCorrection, .Lfunc_end4-calcObliquityCorrection
	.cfi_endproc
	.cantunwind
	.fnend
                                        @ -- End function
	.section	.text.calcEccentricityEarthOrbit,"ax",%progbits
	.hidden	calcEccentricityEarthOrbit      @ -- Begin function calcEccentricityEarthOrbit
	.globl	calcEccentricityEarthOrbit
	.p2align	2
	.type	calcEccentricityEarthOrbit,%function
	.code	16                              @ @calcEccentricityEarthOrbit
	.thumb_func
calcEccentricityEarthOrbit:
.Lfunc_begin5:
	.loc	1 58 0 is_stmt 1                @ ../Source/SunPos.c:58:0
	.fnstart
	.cfi_startproc
@ %bb.0:
	.save	{r7, lr}
	push	{r7, lr}
	.cfi_def_cfa_offset 8
	.cfi_offset lr, -4
	.cfi_offset r7, -8
	.pad	#24
	sub	sp, #24
	.cfi_def_cfa_offset 32
                                        @ kill: def $r2 killed $r1
                                        @ kill: def $r2 killed $r0
	str	r1, [sp, #20]
	str	r0, [sp, #16]
.Ltmp14:
	.loc	1 59 28 prologue_end            @ ../Source/SunPos.c:59:28
	ldr	r0, [sp, #16]
	str	r0, [sp]                        @ 4-byte Spill
	ldr	r1, [sp, #20]
	.loc	1 59 60 is_stmt 0               @ ../Source/SunPos.c:59:60
	str	r1, [sp, #4]                    @ 4-byte Spill
	ldr	r2, __arm_cp.5_0
	ldr	r3, __arm_cp.5_1
	bl	__aeabi_dmul
	ldr	r2, __arm_cp.5_2
	ldr	r3, __arm_cp.5_3
	.loc	1 59 45                         @ ../Source/SunPos.c:59:45
	bl	__aeabi_dadd
	mov	r2, r0
	ldr	r0, [sp]                        @ 4-byte Reload
	mov	r3, r1
	.loc	1 59 30                         @ ../Source/SunPos.c:59:30
	ldr	r1, [sp, #4]                    @ 4-byte Reload
	bl	__aeabi_dmul
	ldr	r2, __arm_cp.5_4
	ldr	r3, __arm_cp.5_5
	.loc	1 59 26                         @ ../Source/SunPos.c:59:26
	bl	__aeabi_dadd
	.loc	1 59 10                         @ ../Source/SunPos.c:59:10
	str	r1, [sp, #12]
	str	r0, [sp, #8]
	.loc	1 60 3 is_stmt 1                @ ../Source/SunPos.c:60:3
	ldr	r0, [sp, #8]
	ldr	r1, [sp, #12]
	add	sp, #24
	pop	{r7, pc}
.Ltmp15:
	.p2align	2
@ %bb.1:
	.loc	1 0 3 is_stmt 0                 @ ../Source/SunPos.c:0:3
__arm_cp.5_0:
	.long	4234467328                      @ 0xfc64d800
.Lcpi_end31:
	.size	__arm_cp.5_0, .Lcpi_end31-__arm_cp.5_0
__arm_cp.5_1:
	.long	3196125536                      @ 0xbe810160
.Lcpi_end32:
	.size	__arm_cp.5_1, .Lcpi_end32-__arm_cp.5_1
__arm_cp.5_2:
	.long	1382015747                      @ 0x525fe303
.Lcpi_end33:
	.size	__arm_cp.5_2, .Lcpi_end33-__arm_cp.5_2
__arm_cp.5_3:
	.long	3204844060                      @ 0xbf060a1c
.Lcpi_end34:
	.size	__arm_cp.5_3, .Lcpi_end34-__arm_cp.5_3
__arm_cp.5_4:
	.long	1918698368                      @ 0x725d0380
.Lcpi_end35:
	.size	__arm_cp.5_4, .Lcpi_end35-__arm_cp.5_4
__arm_cp.5_5:
	.long	1066474513                      @ 0x3f911c11
.Lcpi_end36:
	.size	__arm_cp.5_5, .Lcpi_end36-__arm_cp.5_5
.Lfunc_end5:
	.size	calcEccentricityEarthOrbit, .Lfunc_end5-calcEccentricityEarthOrbit
	.cfi_endproc
	.cantunwind
	.fnend
                                        @ -- End function
	.section	.text.calcGeomMeanAnomalySun,"ax",%progbits
	.hidden	calcGeomMeanAnomalySun          @ -- Begin function calcGeomMeanAnomalySun
	.globl	calcGeomMeanAnomalySun
	.p2align	2
	.type	calcGeomMeanAnomalySun,%function
	.code	16                              @ @calcGeomMeanAnomalySun
	.thumb_func
calcGeomMeanAnomalySun:
.Lfunc_begin6:
	.loc	1 64 0 is_stmt 1                @ ../Source/SunPos.c:64:0
	.fnstart
	.cfi_startproc
@ %bb.0:
	.save	{r7, lr}
	push	{r7, lr}
	.cfi_def_cfa_offset 8
	.cfi_offset lr, -4
	.cfi_offset r7, -8
	.pad	#24
	sub	sp, #24
	.cfi_def_cfa_offset 32
                                        @ kill: def $r2 killed $r1
                                        @ kill: def $r2 killed $r0
	str	r1, [sp, #20]
	str	r0, [sp, #16]
.Ltmp16:
	.loc	1 65 26 prologue_end            @ ../Source/SunPos.c:65:26
	ldr	r0, [sp, #16]
	str	r0, [sp]                        @ 4-byte Spill
	ldr	r1, [sp, #20]
	.loc	1 65 55 is_stmt 0               @ ../Source/SunPos.c:65:55
	str	r1, [sp, #4]                    @ 4-byte Spill
	ldr	r2, __arm_cp.6_0
	ldr	r3, __arm_cp.6_1
	bl	__aeabi_dmul
	ldr	r2, __arm_cp.6_2
	ldr	r3, __arm_cp.6_3
	.loc	1 65 43                         @ ../Source/SunPos.c:65:43
	bl	__aeabi_dadd
	mov	r2, r0
	ldr	r0, [sp]                        @ 4-byte Reload
	mov	r3, r1
	.loc	1 65 28                         @ ../Source/SunPos.c:65:28
	ldr	r1, [sp, #4]                    @ 4-byte Reload
	bl	__aeabi_dmul
	ldr	r2, __arm_cp.6_4
	ldr	r3, __arm_cp.6_5
	.loc	1 65 24                         @ ../Source/SunPos.c:65:24
	bl	__aeabi_dadd
	.loc	1 65 10                         @ ../Source/SunPos.c:65:10
	str	r1, [sp, #12]
	str	r0, [sp, #8]
	.loc	1 66 3 is_stmt 1                @ ../Source/SunPos.c:66:3
	ldr	r0, [sp, #8]
	ldr	r1, [sp, #12]
	add	sp, #24
	pop	{r7, pc}
.Ltmp17:
	.p2align	2
@ %bb.1:
	.loc	1 0 3 is_stmt 0                 @ ../Source/SunPos.c:0:3
__arm_cp.6_0:
	.long	4066433804                      @ 0xf260db0c
.Lcpi_end37:
	.size	__arm_cp.6_0, .Lcpi_end37-__arm_cp.6_0
__arm_cp.6_1:
	.long	3206817104                      @ 0xbf242550
.Lcpi_end38:
	.size	__arm_cp.6_1, .Lcpi_end38-__arm_cp.6_1
__arm_cp.6_2:
	.long	2616837674                      @ 0x9bf9c62a
.Lcpi_end39:
	.size	__arm_cp.6_2, .Lcpi_end39-__arm_cp.6_2
__arm_cp.6_3:
	.long	1088525281                      @ 0x40e193e1
.Lcpi_end40:
	.size	__arm_cp.6_3, .Lcpi_end40-__arm_cp.6_3
__arm_cp.6_4:
	.long	1007427529                      @ 0x3c0c1fc9
.Lcpi_end41:
	.size	__arm_cp.6_4, .Lcpi_end41-__arm_cp.6_4
__arm_cp.6_5:
	.long	1081497719                      @ 0x40765877
.Lcpi_end42:
	.size	__arm_cp.6_5, .Lcpi_end42-__arm_cp.6_5
.Lfunc_end6:
	.size	calcGeomMeanAnomalySun, .Lfunc_end6-calcGeomMeanAnomalySun
	.cfi_endproc
	.cantunwind
	.fnend
                                        @ -- End function
	.section	.text.calcEquationOfTime,"ax",%progbits
	.hidden	calcEquationOfTime              @ -- Begin function calcEquationOfTime
	.globl	calcEquationOfTime
	.p2align	2
	.type	calcEquationOfTime,%function
	.code	16                              @ @calcEquationOfTime
	.thumb_func
calcEquationOfTime:
.Lfunc_begin7:
	.loc	1 70 0 is_stmt 1                @ ../Source/SunPos.c:70:0
	.fnstart
	.cfi_startproc
@ %bb.0:
	.save	{r4, lr}
	push	{r4, lr}
	.cfi_def_cfa_offset 8
	.cfi_offset lr, -4
	.cfi_offset r4, -8
	.pad	#160
	sub	sp, #160
	.cfi_def_cfa_offset 168
                                        @ kill: def $r2 killed $r1
                                        @ kill: def $r2 killed $r0
	str	r1, [sp, #156]
	str	r0, [sp, #152]
.Ltmp18:
	.loc	1 73 20 prologue_end            @ ../Source/SunPos.c:73:20
	ldr	r1, [sp, #156]
	ldr	r0, [sp, #152]
	bl	calcObliquityCorrection
	.loc	1 73 10 is_stmt 0               @ ../Source/SunPos.c:73:10
	str	r1, [sp, #100]
	str	r0, [sp, #96]
	.loc	1 74 16 is_stmt 1               @ ../Source/SunPos.c:74:16
	ldr	r1, [sp, #156]
	ldr	r0, [sp, #152]
	bl	calcGeomMeanLongSun
	.loc	1 74 11 is_stmt 0               @ ../Source/SunPos.c:74:11
	str	r1, [sp, #92]
	str	r0, [sp, #88]
	.loc	1 75 14 is_stmt 1               @ ../Source/SunPos.c:75:14
	ldr	r1, [sp, #156]
	ldr	r0, [sp, #152]
	bl	calcEccentricityEarthOrbit
	.loc	1 75 10 is_stmt 0               @ ../Source/SunPos.c:75:10
	str	r1, [sp, #84]
	str	r0, [sp, #80]
	.loc	1 76 14 is_stmt 1               @ ../Source/SunPos.c:76:14
	ldr	r1, [sp, #156]
	ldr	r0, [sp, #152]
	bl	calcGeomMeanAnomalySun
	.loc	1 76 10 is_stmt 0               @ ../Source/SunPos.c:76:10
	str	r1, [sp, #76]
	str	r0, [sp, #72]
	.loc	1 77 18 is_stmt 1               @ ../Source/SunPos.c:77:18
	ldr	r1, [sp, #100]
	ldr	r0, [sp, #96]
	bl	degToRad
	movs	r2, #1
	lsls	r3, r2, #30
	movs	r2, #0
	.loc	1 77 35 is_stmt 0               @ ../Source/SunPos.c:77:35
	str	r2, [sp, #56]                   @ 4-byte Spill
	bl	__aeabi_ddiv
	.loc	1 77 14                         @ ../Source/SunPos.c:77:14
	bl	tan
	.loc	1 77 10                         @ ../Source/SunPos.c:77:10
	str	r1, [sp, #68]
	str	r0, [sp, #64]
	.loc	1 78 8 is_stmt 1                @ ../Source/SunPos.c:78:8
	ldr	r2, [sp, #64]
	ldr	r3, [sp, #68]
	.loc	1 78 5 is_stmt 0                @ ../Source/SunPos.c:78:5
	mov	r0, r2
	mov	r1, r3
	bl	__aeabi_dmul
	str	r1, [sp, #68]
	str	r0, [sp, #64]
	.loc	1 79 22 is_stmt 1               @ ../Source/SunPos.c:79:22
	ldr	r1, [sp, #92]
	ldr	r0, [sp, #88]
	bl	degToRad
	mov	r2, r0
	mov	r3, r1
	.loc	1 79 20 is_stmt 0               @ ../Source/SunPos.c:79:20
	mov	r0, r2
	mov	r1, r3
	bl	__aeabi_dadd
	.loc	1 79 12                         @ ../Source/SunPos.c:79:12
	bl	sin
	.loc	1 79 10                         @ ../Source/SunPos.c:79:10
	str	r1, [sp, #148]
	str	r0, [sp, #144]
	.loc	1 80 16 is_stmt 1               @ ../Source/SunPos.c:80:16
	ldr	r1, [sp, #76]
	ldr	r0, [sp, #72]
	bl	degToRad
	.loc	1 80 12 is_stmt 0               @ ../Source/SunPos.c:80:12
	bl	sin
	.loc	1 80 10                         @ ../Source/SunPos.c:80:10
	str	r1, [sp, #140]
	str	r0, [sp, #136]
	.loc	1 81 22 is_stmt 1               @ ../Source/SunPos.c:81:22
	ldr	r1, [sp, #92]
	ldr	r0, [sp, #88]
	bl	degToRad
	mov	r2, r0
	mov	r3, r1
	.loc	1 81 20 is_stmt 0               @ ../Source/SunPos.c:81:20
	mov	r0, r2
	mov	r1, r3
	bl	__aeabi_dadd
	.loc	1 81 12                         @ ../Source/SunPos.c:81:12
	bl	cos
	.loc	1 81 10                         @ ../Source/SunPos.c:81:10
	str	r1, [sp, #132]
	str	r0, [sp, #128]
	.loc	1 82 22 is_stmt 1               @ ../Source/SunPos.c:82:22
	ldr	r1, [sp, #92]
	ldr	r0, [sp, #88]
	bl	degToRad
	ldr	r2, [sp, #56]                   @ 4-byte Reload
	ldr	r3, __arm_cp.7_0
	.loc	1 82 20 is_stmt 0               @ ../Source/SunPos.c:82:20
	str	r3, [sp, #60]                   @ 4-byte Spill
	bl	__aeabi_dmul
	.loc	1 82 12                         @ ../Source/SunPos.c:82:12
	bl	sin
	.loc	1 82 10                         @ ../Source/SunPos.c:82:10
	str	r1, [sp, #124]
	str	r0, [sp, #120]
	.loc	1 83 22 is_stmt 1               @ ../Source/SunPos.c:83:22
	ldr	r1, [sp, #76]
	ldr	r0, [sp, #72]
	bl	degToRad
	mov	r2, r0
	mov	r3, r1
	.loc	1 83 20 is_stmt 0               @ ../Source/SunPos.c:83:20
	mov	r0, r2
	mov	r1, r3
	bl	__aeabi_dadd
	.loc	1 83 12                         @ ../Source/SunPos.c:83:12
	bl	sin
	.loc	1 83 10                         @ ../Source/SunPos.c:83:10
	str	r1, [sp, #116]
	str	r0, [sp, #112]
	.loc	1 84 11 is_stmt 1               @ ../Source/SunPos.c:84:11
	ldr	r0, [sp, #64]
	str	r0, [sp, #24]                   @ 4-byte Spill
	ldr	r1, [sp, #68]
	.loc	1 84 15 is_stmt 0               @ ../Source/SunPos.c:84:15
	str	r1, [sp, #28]                   @ 4-byte Spill
	ldr	r2, [sp, #144]
	ldr	r3, [sp, #148]
	.loc	1 84 13                         @ ../Source/SunPos.c:84:13
	bl	__aeabi_dmul
	str	r0, [sp]                        @ 4-byte Spill
	.loc	1 84 30                         @ ../Source/SunPos.c:84:30
	str	r1, [sp, #4]                    @ 4-byte Spill
	ldr	r2, [sp, #80]
	str	r2, [sp, #40]                   @ 4-byte Spill
	ldr	r3, [sp, #84]
	.loc	1 84 28                         @ ../Source/SunPos.c:84:28
	str	r3, [sp, #44]                   @ 4-byte Spill
	mov	r0, r2
	mov	r1, r3
	bl	__aeabi_dadd
	.loc	1 84 34                         @ ../Source/SunPos.c:84:34
	ldr	r2, [sp, #136]
	str	r2, [sp, #8]                    @ 4-byte Spill
	ldr	r3, [sp, #140]
	.loc	1 84 32                         @ ../Source/SunPos.c:84:32
	str	r3, [sp, #12]                   @ 4-byte Spill
	bl	__aeabi_dmul
	mov	r2, r0
	ldr	r0, [sp]                        @ 4-byte Reload
	mov	r3, r1
	.loc	1 84 22                         @ ../Source/SunPos.c:84:22
	ldr	r1, [sp, #4]                    @ 4-byte Reload
	bl	__aeabi_dsub
	ldr	r2, [sp, #56]                   @ 4-byte Reload
	ldr	r3, [sp, #60]                   @ 4-byte Reload
	mov	r4, r0
	ldr	r0, [sp, #40]                   @ 4-byte Reload
	str	r4, [sp, #16]                   @ 4-byte Spill
	mov	r4, r1
	.loc	1 84 45                         @ ../Source/SunPos.c:84:45
	ldr	r1, [sp, #44]                   @ 4-byte Reload
	str	r4, [sp, #20]                   @ 4-byte Spill
	bl	__aeabi_dmul
	ldr	r2, [sp, #24]                   @ 4-byte Reload
	ldr	r3, [sp, #28]                   @ 4-byte Reload
	.loc	1 84 49                         @ ../Source/SunPos.c:84:49
	bl	__aeabi_dmul
	ldr	r2, [sp, #8]                    @ 4-byte Reload
	ldr	r3, [sp, #12]                   @ 4-byte Reload
	.loc	1 84 53                         @ ../Source/SunPos.c:84:53
	bl	__aeabi_dmul
	.loc	1 84 62                         @ ../Source/SunPos.c:84:62
	ldr	r2, [sp, #128]
	ldr	r3, [sp, #132]
	.loc	1 84 60                         @ ../Source/SunPos.c:84:60
	bl	__aeabi_dmul
	mov	r2, r0
	ldr	r0, [sp, #16]                   @ 4-byte Reload
	mov	r3, r1
	.loc	1 84 39                         @ ../Source/SunPos.c:84:39
	ldr	r1, [sp, #20]                   @ 4-byte Reload
	bl	__aeabi_dadd
	ldr	r2, [sp, #56]                   @ 4-byte Reload
	mov	r3, r0
	ldr	r0, [sp, #24]                   @ 4-byte Reload
	str	r3, [sp, #32]                   @ 4-byte Spill
	mov	r3, r1
	.loc	1 85 11 is_stmt 1               @ ../Source/SunPos.c:85:11
	ldr	r1, [sp, #28]                   @ 4-byte Reload
	str	r3, [sp, #36]                   @ 4-byte Spill
	ldr	r3, __arm_cp.7_1
	bl	__aeabi_dmul
	ldr	r2, [sp, #24]                   @ 4-byte Reload
	ldr	r3, [sp, #28]                   @ 4-byte Reload
	.loc	1 85 15 is_stmt 0               @ ../Source/SunPos.c:85:15
	bl	__aeabi_dmul
	.loc	1 85 21                         @ ../Source/SunPos.c:85:21
	ldr	r2, [sp, #120]
	ldr	r3, [sp, #124]
	.loc	1 85 19                         @ ../Source/SunPos.c:85:19
	bl	__aeabi_dmul
	mov	r2, r0
	ldr	r0, [sp, #32]                   @ 4-byte Reload
	mov	r3, r1
	.loc	1 85 5                          @ ../Source/SunPos.c:85:5
	ldr	r1, [sp, #36]                   @ 4-byte Reload
	bl	__aeabi_dadd
	ldr	r2, [sp, #56]                   @ 4-byte Reload
	mov	r3, r0
	ldr	r0, [sp, #40]                   @ 4-byte Reload
	str	r3, [sp, #48]                   @ 4-byte Spill
	mov	r3, r1
	.loc	1 85 35                         @ ../Source/SunPos.c:85:35
	ldr	r1, [sp, #44]                   @ 4-byte Reload
	str	r3, [sp, #52]                   @ 4-byte Spill
	ldr	r3, __arm_cp.7_2
	bl	__aeabi_dmul
	ldr	r2, [sp, #40]                   @ 4-byte Reload
	ldr	r3, [sp, #44]                   @ 4-byte Reload
	.loc	1 85 39                         @ ../Source/SunPos.c:85:39
	bl	__aeabi_dmul
	.loc	1 85 45                         @ ../Source/SunPos.c:85:45
	ldr	r2, [sp, #112]
	ldr	r3, [sp, #116]
	.loc	1 85 43                         @ ../Source/SunPos.c:85:43
	bl	__aeabi_dmul
	mov	r2, r0
	ldr	r0, [sp, #48]                   @ 4-byte Reload
	mov	r3, r1
	.loc	1 85 28                         @ ../Source/SunPos.c:85:28
	ldr	r1, [sp, #52]                   @ 4-byte Reload
	bl	__aeabi_dadd
	.loc	1 84 9 is_stmt 1                @ ../Source/SunPos.c:84:9
	str	r1, [sp, #108]
	str	r0, [sp, #104]
	.loc	1 88 10                         @ ../Source/SunPos.c:88:10
	ldr	r1, [sp, #108]
	ldr	r0, [sp, #104]
	bl	radToDeg
	ldr	r2, [sp, #56]                   @ 4-byte Reload
	ldr	r3, [sp, #60]                   @ 4-byte Reload
	.loc	1 88 25 is_stmt 0               @ ../Source/SunPos.c:88:25
	bl	__aeabi_dmul
	.loc	1 88 3                          @ ../Source/SunPos.c:88:3
	add	sp, #160
	pop	{r4, pc}
.Ltmp19:
	.p2align	2
@ %bb.1:
	.loc	1 0 3                           @ ../Source/SunPos.c:0:3
__arm_cp.7_0:
	.long	1074790400                      @ 0x40100000
.Lcpi_end43:
	.size	__arm_cp.7_0, .Lcpi_end43-__arm_cp.7_0
__arm_cp.7_1:
	.long	3219128320                      @ 0xbfe00000
.Lcpi_end44:
	.size	__arm_cp.7_1, .Lcpi_end44-__arm_cp.7_1
__arm_cp.7_2:
	.long	3220439040                      @ 0xbff40000
.Lcpi_end45:
	.size	__arm_cp.7_2, .Lcpi_end45-__arm_cp.7_2
.Lfunc_end7:
	.size	calcEquationOfTime, .Lfunc_end7-calcEquationOfTime
	.cfi_endproc
	.cantunwind
	.fnend
                                        @ -- End function
	.section	.text.calcTimeJulianCent,"ax",%progbits
	.hidden	calcTimeJulianCent              @ -- Begin function calcTimeJulianCent
	.globl	calcTimeJulianCent
	.p2align	2
	.type	calcTimeJulianCent,%function
	.code	16                              @ @calcTimeJulianCent
	.thumb_func
calcTimeJulianCent:
.Lfunc_begin8:
	.loc	1 94 0 is_stmt 1                @ ../Source/SunPos.c:94:0
	.fnstart
	.cfi_startproc
@ %bb.0:
	.save	{r7, lr}
	push	{r7, lr}
	.cfi_def_cfa_offset 8
	.cfi_offset lr, -4
	.cfi_offset r7, -8
	.pad	#16
	sub	sp, #16
	.cfi_def_cfa_offset 24
                                        @ kill: def $r2 killed $r1
                                        @ kill: def $r2 killed $r0
	str	r1, [sp, #12]
	str	r0, [sp, #8]
.Ltmp20:
	.loc	1 96 16 prologue_end            @ ../Source/SunPos.c:96:16
	ldr	r0, [sp, #8]
	ldr	r1, [sp, #12]
	movs	r2, #1
	lsls	r2, r2, #31
	ldr	r3, __arm_cp.8_0
	.loc	1 96 19 is_stmt 0               @ ../Source/SunPos.c:96:19
	bl	__aeabi_dadd
	movs	r2, #0
	ldr	r3, __arm_cp.8_1
	.loc	1 96 31                         @ ../Source/SunPos.c:96:31
	bl	__aeabi_ddiv
	.loc	1 96 10                         @ ../Source/SunPos.c:96:10
	str	r1, [sp, #4]
	str	r0, [sp]
	.loc	1 97 3 is_stmt 1                @ ../Source/SunPos.c:97:3
	ldr	r0, [sp]
	ldr	r1, [sp, #4]
	add	sp, #16
	pop	{r7, pc}
.Ltmp21:
	.p2align	2
@ %bb.1:
	.loc	1 0 3 is_stmt 0                 @ ../Source/SunPos.c:0:3
__arm_cp.8_0:
	.long	3242374188                      @ 0xc142b42c
.Lcpi_end46:
	.size	__arm_cp.8_0, .Lcpi_end46-__arm_cp.8_0
__arm_cp.8_1:
	.long	1088542112                      @ 0x40e1d5a0
.Lcpi_end47:
	.size	__arm_cp.8_1, .Lcpi_end47-__arm_cp.8_1
.Lfunc_end8:
	.size	calcTimeJulianCent, .Lfunc_end8-calcTimeJulianCent
	.cfi_endproc
	.cantunwind
	.fnend
                                        @ -- End function
	.section	.text.calcSunTrueLong,"ax",%progbits
	.hidden	calcSunTrueLong                 @ -- Begin function calcSunTrueLong
	.globl	calcSunTrueLong
	.p2align	1
	.type	calcSunTrueLong,%function
	.code	16                              @ @calcSunTrueLong
	.thumb_func
calcSunTrueLong:
.Lfunc_begin9:
	.loc	1 101 0 is_stmt 1               @ ../Source/SunPos.c:101:0
	.fnstart
	.cfi_startproc
@ %bb.0:
	.save	{r7, lr}
	push	{r7, lr}
	.cfi_def_cfa_offset 8
	.cfi_offset lr, -4
	.cfi_offset r7, -8
	.pad	#32
	sub	sp, #32
	.cfi_def_cfa_offset 40
                                        @ kill: def $r2 killed $r1
                                        @ kill: def $r2 killed $r0
	str	r1, [sp, #28]
	str	r0, [sp, #24]
.Ltmp22:
	.loc	1 102 15 prologue_end           @ ../Source/SunPos.c:102:15
	ldr	r1, [sp, #28]
	ldr	r0, [sp, #24]
	bl	calcGeomMeanLongSun
	.loc	1 102 10 is_stmt 0              @ ../Source/SunPos.c:102:10
	str	r1, [sp, #20]
	str	r0, [sp, #16]
	.loc	1 103 14 is_stmt 1              @ ../Source/SunPos.c:103:14
	ldr	r1, [sp, #28]
	ldr	r0, [sp, #24]
	bl	calcSunEqOfCenter
	.loc	1 103 10 is_stmt 0              @ ../Source/SunPos.c:103:10
	str	r1, [sp, #12]
	str	r0, [sp, #8]
	.loc	1 105 14 is_stmt 1              @ ../Source/SunPos.c:105:14
	ldr	r0, [sp, #16]
	ldr	r1, [sp, #20]
	.loc	1 105 19 is_stmt 0              @ ../Source/SunPos.c:105:19
	ldr	r2, [sp, #8]
	ldr	r3, [sp, #12]
	.loc	1 105 17                        @ ../Source/SunPos.c:105:17
	bl	__aeabi_dadd
	.loc	1 105 10                        @ ../Source/SunPos.c:105:10
	str	r1, [sp, #4]
	str	r0, [sp]
	.loc	1 106 3 is_stmt 1               @ ../Source/SunPos.c:106:3
	ldr	r0, [sp]
	ldr	r1, [sp, #4]
	add	sp, #32
	pop	{r7, pc}
.Ltmp23:
.Lfunc_end9:
	.size	calcSunTrueLong, .Lfunc_end9-calcSunTrueLong
	.cfi_endproc
	.cantunwind
	.fnend
                                        @ -- End function
	.section	.text.calcSunEqOfCenter,"ax",%progbits
	.hidden	calcSunEqOfCenter               @ -- Begin function calcSunEqOfCenter
	.globl	calcSunEqOfCenter
	.p2align	2
	.type	calcSunEqOfCenter,%function
	.code	16                              @ @calcSunEqOfCenter
	.thumb_func
calcSunEqOfCenter:
.Lfunc_begin10:
	.loc	1 175 0                         @ ../Source/SunPos.c:175:0
	.fnstart
	.cfi_startproc
@ %bb.0:
	.save	{r7, lr}
	push	{r7, lr}
	.cfi_def_cfa_offset 8
	.cfi_offset lr, -4
	.cfi_offset r7, -8
	.pad	#104
	sub	sp, #104
	.cfi_def_cfa_offset 112
                                        @ kill: def $r2 killed $r1
                                        @ kill: def $r2 killed $r0
	str	r1, [sp, #100]
	str	r0, [sp, #96]
.Ltmp24:
	.loc	1 176 14 prologue_end           @ ../Source/SunPos.c:176:14
	ldr	r1, [sp, #100]
	ldr	r0, [sp, #96]
	bl	calcGeomMeanAnomalySun
	.loc	1 176 10 is_stmt 0              @ ../Source/SunPos.c:176:10
	str	r1, [sp, #92]
	str	r0, [sp, #88]
	.loc	1 178 17 is_stmt 1              @ ../Source/SunPos.c:178:17
	ldr	r1, [sp, #92]
	ldr	r0, [sp, #88]
	bl	degToRad
	.loc	1 178 10 is_stmt 0              @ ../Source/SunPos.c:178:10
	str	r1, [sp, #84]
	str	r0, [sp, #80]
	.loc	1 179 17 is_stmt 1              @ ../Source/SunPos.c:179:17
	ldr	r1, [sp, #84]
	ldr	r0, [sp, #80]
	bl	sin
	.loc	1 179 10 is_stmt 0              @ ../Source/SunPos.c:179:10
	str	r1, [sp, #76]
	str	r0, [sp, #72]
	.loc	1 180 22 is_stmt 1              @ ../Source/SunPos.c:180:22
	ldr	r2, [sp, #80]
	ldr	r3, [sp, #84]
	.loc	1 180 26 is_stmt 0              @ ../Source/SunPos.c:180:26
	mov	r0, r2
	mov	r1, r3
	bl	__aeabi_dadd
	.loc	1 180 18                        @ ../Source/SunPos.c:180:18
	bl	sin
	.loc	1 180 10                        @ ../Source/SunPos.c:180:10
	str	r1, [sp, #68]
	str	r0, [sp, #64]
	.loc	1 181 22 is_stmt 1              @ ../Source/SunPos.c:181:22
	ldr	r2, [sp, #80]
	str	r2, [sp]                        @ 4-byte Spill
	ldr	r3, [sp, #84]
	.loc	1 181 26 is_stmt 0              @ ../Source/SunPos.c:181:26
	str	r3, [sp, #4]                    @ 4-byte Spill
	mov	r0, r2
	mov	r1, r3
	bl	__aeabi_dadd
	ldr	r2, [sp]                        @ 4-byte Reload
	ldr	r3, [sp, #4]                    @ 4-byte Reload
	.loc	1 181 31                        @ ../Source/SunPos.c:181:31
	bl	__aeabi_dadd
	.loc	1 181 18                        @ ../Source/SunPos.c:181:18
	bl	sin
	.loc	1 181 10                        @ ../Source/SunPos.c:181:10
	str	r1, [sp, #60]
	str	r0, [sp, #56]
	.loc	1 183 14 is_stmt 1              @ ../Source/SunPos.c:183:14
	ldr	r0, [sp, #72]
	str	r0, [sp, #8]                    @ 4-byte Spill
	ldr	r0, [sp, #76]
	.loc	1 183 33 is_stmt 0              @ ../Source/SunPos.c:183:33
	str	r0, [sp, #12]                   @ 4-byte Spill
	ldr	r0, [sp, #96]
	str	r0, [sp, #16]                   @ 4-byte Spill
	ldr	r1, [sp, #100]
	.loc	1 183 58                        @ ../Source/SunPos.c:183:58
	str	r1, [sp, #20]                   @ 4-byte Spill
	ldr	r2, __arm_cp.10_0
	ldr	r3, __arm_cp.10_1
	bl	__aeabi_dmul
	ldr	r2, __arm_cp.10_2
	ldr	r3, __arm_cp.10_3
	.loc	1 183 47                        @ ../Source/SunPos.c:183:47
	bl	__aeabi_dadd
	mov	r2, r0
	ldr	r0, [sp, #16]                   @ 4-byte Reload
	mov	r3, r1
	.loc	1 183 35                        @ ../Source/SunPos.c:183:35
	ldr	r1, [sp, #20]                   @ 4-byte Reload
	bl	__aeabi_dmul
	ldr	r2, __arm_cp.10_4
	ldr	r3, __arm_cp.10_5
	.loc	1 183 31                        @ ../Source/SunPos.c:183:31
	bl	__aeabi_dadd
	mov	r2, r0
	ldr	r0, [sp, #8]                    @ 4-byte Reload
	mov	r3, r1
	.loc	1 183 19                        @ ../Source/SunPos.c:183:19
	ldr	r1, [sp, #12]                   @ 4-byte Reload
	bl	__aeabi_dmul
	mov	r2, r0
	ldr	r0, [sp, #16]                   @ 4-byte Reload
	str	r2, [sp, #32]                   @ 4-byte Spill
	mov	r2, r1
	.loc	1 183 66                        @ ../Source/SunPos.c:183:66
	ldr	r1, [sp, #20]                   @ 4-byte Reload
	str	r2, [sp, #36]                   @ 4-byte Spill
	ldr	r2, [sp, #64]
	str	r2, [sp, #24]                   @ 4-byte Spill
	ldr	r2, [sp, #68]
	.loc	1 183 95                        @ ../Source/SunPos.c:183:95
	str	r2, [sp, #28]                   @ 4-byte Spill
	ldr	r2, __arm_cp.10_6
	ldr	r3, __arm_cp.10_7
	bl	__aeabi_dmul
	ldr	r2, __arm_cp.10_8
	ldr	r3, __arm_cp.10_9
	.loc	1 183 84                        @ ../Source/SunPos.c:183:84
	bl	__aeabi_dadd
	mov	r2, r0
	ldr	r0, [sp, #24]                   @ 4-byte Reload
	mov	r3, r1
	.loc	1 183 72                        @ ../Source/SunPos.c:183:72
	ldr	r1, [sp, #28]                   @ 4-byte Reload
	bl	__aeabi_dmul
	mov	r2, r0
	ldr	r0, [sp, #32]                   @ 4-byte Reload
	mov	r3, r1
	.loc	1 183 64                        @ ../Source/SunPos.c:183:64
	ldr	r1, [sp, #36]                   @ 4-byte Reload
	bl	__aeabi_dadd
	str	r0, [sp, #40]                   @ 4-byte Spill
	.loc	1 183 102                       @ ../Source/SunPos.c:183:102
	str	r1, [sp, #44]                   @ 4-byte Spill
	ldr	r0, [sp, #56]
	ldr	r1, [sp, #60]
	ldr	r2, __arm_cp.10_10
	ldr	r3, __arm_cp.10_11
	.loc	1 183 108                       @ ../Source/SunPos.c:183:108
	bl	__aeabi_dmul
	mov	r2, r0
	ldr	r0, [sp, #40]                   @ 4-byte Reload
	mov	r3, r1
	.loc	1 183 100                       @ ../Source/SunPos.c:183:100
	ldr	r1, [sp, #44]                   @ 4-byte Reload
	bl	__aeabi_dadd
	.loc	1 183 10                        @ ../Source/SunPos.c:183:10
	str	r1, [sp, #52]
	str	r0, [sp, #48]
	.loc	1 184 3 is_stmt 1               @ ../Source/SunPos.c:184:3
	ldr	r0, [sp, #48]
	ldr	r1, [sp, #52]
	add	sp, #104
	pop	{r7, pc}
.Ltmp25:
	.p2align	2
@ %bb.1:
	.loc	1 0 3 is_stmt 0                 @ ../Source/SunPos.c:0:3
__arm_cp.10_0:
	.long	1497259959                      @ 0x593e5fb7
.Lcpi_end48:
	.size	__arm_cp.10_0, .Lcpi_end48-__arm_cp.10_0
__arm_cp.10_1:
	.long	3203226673                      @ 0xbeed5c31
.Lcpi_end49:
	.size	__arm_cp.10_1, .Lcpi_end49-__arm_cp.10_1
__arm_cp.10_2:
	.long	2540696494                      @ 0x976ff3ae
.Lcpi_end50:
	.size	__arm_cp.10_2, .Lcpi_end50-__arm_cp.10_2
__arm_cp.10_3:
	.long	3212032765                      @ 0xbf73bafd
.Lcpi_end51:
	.size	__arm_cp.10_3, .Lcpi_end51-__arm_cp.10_3
__arm_cp.10_4:
	.long	3035476726                      @ 0xb4edb2f6
.Lcpi_end52:
	.size	__arm_cp.10_4, .Lcpi_end52-__arm_cp.10_4
__arm_cp.10_5:
	.long	1073652277                      @ 0x3ffea235
.Lcpi_end53:
	.size	__arm_cp.10_5, .Lcpi_end53-__arm_cp.10_5
__arm_cp.10_6:
	.long	3382647523                      @ 0xc99f1ae3
.Lcpi_end54:
	.size	__arm_cp.10_6, .Lcpi_end54-__arm_cp.10_6
__arm_cp.10_7:
	.long	3206183422                      @ 0xbf1a79fe
.Lcpi_end55:
	.size	__arm_cp.10_7, .Lcpi_end55-__arm_cp.10_7
__arm_cp.10_8:
	.long	2224586901                      @ 0x84988095
.Lcpi_end56:
	.size	__arm_cp.10_8, .Lcpi_end56-__arm_cp.10_8
__arm_cp.10_9:
	.long	1066694923                      @ 0x3f94790b
.Lcpi_end57:
	.size	__arm_cp.10_9, .Lcpi_end57-__arm_cp.10_9
__arm_cp.10_10:
	.long	2355978540                      @ 0x8c6d612c
.Lcpi_end58:
	.size	__arm_cp.10_10, .Lcpi_end58-__arm_cp.10_10
__arm_cp.10_11:
	.long	1060303005                      @ 0x3f32f09d
.Lcpi_end59:
	.size	__arm_cp.10_11, .Lcpi_end59-__arm_cp.10_11
.Lfunc_end10:
	.size	calcSunEqOfCenter, .Lfunc_end10-calcSunEqOfCenter
	.cfi_endproc
	.cantunwind
	.fnend
                                        @ -- End function
	.section	.text.calcSunApparentLong,"ax",%progbits
	.hidden	calcSunApparentLong             @ -- Begin function calcSunApparentLong
	.globl	calcSunApparentLong
	.p2align	2
	.type	calcSunApparentLong,%function
	.code	16                              @ @calcSunApparentLong
	.thumb_func
calcSunApparentLong:
.Lfunc_begin11:
	.loc	1 110 0 is_stmt 1               @ ../Source/SunPos.c:110:0
	.fnstart
	.cfi_startproc
@ %bb.0:
	.save	{r7, lr}
	push	{r7, lr}
	.cfi_def_cfa_offset 8
	.cfi_offset lr, -4
	.cfi_offset r7, -8
	.pad	#40
	sub	sp, #40
	.cfi_def_cfa_offset 48
                                        @ kill: def $r2 killed $r1
                                        @ kill: def $r2 killed $r0
	str	r1, [sp, #36]
	str	r0, [sp, #32]
.Ltmp26:
	.loc	1 111 14 prologue_end           @ ../Source/SunPos.c:111:14
	ldr	r1, [sp, #36]
	ldr	r0, [sp, #32]
	bl	calcSunTrueLong
	.loc	1 111 10 is_stmt 0              @ ../Source/SunPos.c:111:10
	str	r1, [sp, #28]
	str	r0, [sp, #24]
	.loc	1 113 39 is_stmt 1              @ ../Source/SunPos.c:113:39
	ldr	r0, [sp, #32]
	ldr	r1, [sp, #36]
	ldr	r2, __arm_cp.11_0
	ldr	r3, __arm_cp.11_1
	.loc	1 113 37 is_stmt 0              @ ../Source/SunPos.c:113:37
	bl	__aeabi_dmul
	ldr	r2, __arm_cp.11_2
	ldr	r3, __arm_cp.11_3
	.loc	1 113 26                        @ ../Source/SunPos.c:113:26
	bl	__aeabi_dadd
	.loc	1 113 11                        @ ../Source/SunPos.c:113:11
	str	r1, [sp, #20]
	str	r0, [sp, #16]
	.loc	1 114 20 is_stmt 1              @ ../Source/SunPos.c:114:20
	ldr	r0, [sp, #24]
	ldr	r1, [sp, #28]
	ldr	r2, __arm_cp.11_4
	ldr	r3, __arm_cp.11_5
	.loc	1 114 22 is_stmt 0              @ ../Source/SunPos.c:114:22
	bl	__aeabi_dadd
	str	r0, [sp]                        @ 4-byte Spill
	.loc	1 114 48                        @ ../Source/SunPos.c:114:48
	str	r1, [sp, #4]                    @ 4-byte Spill
	ldr	r1, [sp, #20]
	ldr	r0, [sp, #16]
	bl	degToRad
	.loc	1 114 44                        @ ../Source/SunPos.c:114:44
	bl	sin
	ldr	r2, __arm_cp.11_6
	ldr	r3, __arm_cp.11_7
	.loc	1 114 42                        @ ../Source/SunPos.c:114:42
	bl	__aeabi_dmul
	mov	r2, r0
	ldr	r0, [sp]                        @ 4-byte Reload
	mov	r3, r1
	.loc	1 114 32                        @ ../Source/SunPos.c:114:32
	ldr	r1, [sp, #4]                    @ 4-byte Reload
	bl	__aeabi_dadd
	.loc	1 114 11                        @ ../Source/SunPos.c:114:11
	str	r1, [sp, #12]
	str	r0, [sp, #8]
	.loc	1 115 3 is_stmt 1               @ ../Source/SunPos.c:115:3
	ldr	r0, [sp, #8]
	ldr	r1, [sp, #12]
	add	sp, #40
	pop	{r7, pc}
.Ltmp27:
	.p2align	2
@ %bb.1:
	.loc	1 0 3 is_stmt 0                 @ ../Source/SunPos.c:0:3
__arm_cp.11_0:
	.long	1133871366                      @ 0x43958106
.Lcpi_end60:
	.size	__arm_cp.11_0, .Lcpi_end60-__arm_cp.11_0
__arm_cp.11_1:
	.long	3231594635                      @ 0xc09e388b
.Lcpi_end61:
	.size	__arm_cp.11_1, .Lcpi_end61-__arm_cp.11_1
__arm_cp.11_2:
	.long	1546188227                      @ 0x5c28f5c3
.Lcpi_end62:
	.size	__arm_cp.11_2, .Lcpi_end62-__arm_cp.11_2
__arm_cp.11_3:
	.long	1079984783                      @ 0x405f428f
.Lcpi_end63:
	.size	__arm_cp.11_3, .Lcpi_end63-__arm_cp.11_3
__arm_cp.11_4:
	.long	3198204447                      @ 0xbea0ba1f
.Lcpi_end64:
	.size	__arm_cp.11_4, .Lcpi_end64-__arm_cp.11_4
__arm_cp.11_5:
	.long	3212267109                      @ 0xbf774e65
.Lcpi_end65:
	.size	__arm_cp.11_5, .Lcpi_end65-__arm_cp.11_5
__arm_cp.11_6:
	.long	2060209913                      @ 0x7acc4ef9
.Lcpi_end66:
	.size	__arm_cp.11_6, .Lcpi_end66-__arm_cp.11_6
__arm_cp.11_7:
	.long	3212022833                      @ 0xbf739431
.Lcpi_end67:
	.size	__arm_cp.11_7, .Lcpi_end67-__arm_cp.11_7
.Lfunc_end11:
	.size	calcSunApparentLong, .Lfunc_end11-calcSunApparentLong
	.cfi_endproc
	.cantunwind
	.fnend
                                        @ -- End function
	.section	.text.calcSunDeclination,"ax",%progbits
	.hidden	calcSunDeclination              @ -- Begin function calcSunDeclination
	.globl	calcSunDeclination
	.p2align	1
	.type	calcSunDeclination,%function
	.code	16                              @ @calcSunDeclination
	.thumb_func
calcSunDeclination:
.Lfunc_begin12:
	.loc	1 119 0 is_stmt 1               @ ../Source/SunPos.c:119:0
	.fnstart
	.cfi_startproc
@ %bb.0:
	.save	{r7, lr}
	push	{r7, lr}
	.cfi_def_cfa_offset 8
	.cfi_offset lr, -4
	.cfi_offset r7, -8
	.pad	#48
	sub	sp, #48
	.cfi_def_cfa_offset 56
                                        @ kill: def $r2 killed $r1
                                        @ kill: def $r2 killed $r0
	str	r1, [sp, #44]
	str	r0, [sp, #40]
.Ltmp28:
	.loc	1 120 14 prologue_end           @ ../Source/SunPos.c:120:14
	ldr	r1, [sp, #44]
	ldr	r0, [sp, #40]
	bl	calcObliquityCorrection
	.loc	1 120 10 is_stmt 0              @ ../Source/SunPos.c:120:10
	str	r1, [sp, #36]
	str	r0, [sp, #32]
	.loc	1 121 19 is_stmt 1              @ ../Source/SunPos.c:121:19
	ldr	r1, [sp, #44]
	ldr	r0, [sp, #40]
	bl	calcSunApparentLong
	.loc	1 121 10 is_stmt 0              @ ../Source/SunPos.c:121:10
	str	r1, [sp, #28]
	str	r0, [sp, #24]
	.loc	1 123 21 is_stmt 1              @ ../Source/SunPos.c:123:21
	ldr	r1, [sp, #36]
	ldr	r0, [sp, #32]
	bl	degToRad
	.loc	1 123 17 is_stmt 0              @ ../Source/SunPos.c:123:17
	bl	sin
	str	r0, [sp]                        @ 4-byte Spill
	.loc	1 123 40                        @ ../Source/SunPos.c:123:40
	str	r1, [sp, #4]                    @ 4-byte Spill
	ldr	r1, [sp, #28]
	ldr	r0, [sp, #24]
	bl	degToRad
	.loc	1 123 36                        @ ../Source/SunPos.c:123:36
	bl	sin
	mov	r2, r0
	ldr	r0, [sp]                        @ 4-byte Reload
	mov	r3, r1
	.loc	1 123 34                        @ ../Source/SunPos.c:123:34
	ldr	r1, [sp, #4]                    @ 4-byte Reload
	bl	__aeabi_dmul
	.loc	1 123 10                        @ ../Source/SunPos.c:123:10
	str	r1, [sp, #20]
	str	r0, [sp, #16]
	.loc	1 124 27 is_stmt 1              @ ../Source/SunPos.c:124:27
	ldr	r1, [sp, #20]
	ldr	r0, [sp, #16]
	bl	asin
	.loc	1 124 18 is_stmt 0              @ ../Source/SunPos.c:124:18
	bl	radToDeg
	.loc	1 124 10                        @ ../Source/SunPos.c:124:10
	str	r1, [sp, #12]
	str	r0, [sp, #8]
	.loc	1 125 3 is_stmt 1               @ ../Source/SunPos.c:125:3
	ldr	r0, [sp, #8]
	ldr	r1, [sp, #12]
	add	sp, #48
	pop	{r7, pc}
.Ltmp29:
.Lfunc_end12:
	.size	calcSunDeclination, .Lfunc_end12-calcSunDeclination
	.cfi_endproc
	.cantunwind
	.fnend
                                        @ -- End function
	.section	.text.calcHourAngleSunrise,"ax",%progbits
	.hidden	calcHourAngleSunrise            @ -- Begin function calcHourAngleSunrise
	.globl	calcHourAngleSunrise
	.p2align	2
	.type	calcHourAngleSunrise,%function
	.code	16                              @ @calcHourAngleSunrise
	.thumb_func
calcHourAngleSunrise:
.Lfunc_begin13:
	.loc	1 130 0                         @ ../Source/SunPos.c:130:0
	.fnstart
	.cfi_startproc
@ %bb.0:
	.save	{r4, lr}
	push	{r4, lr}
	.cfi_def_cfa_offset 8
	.cfi_offset lr, -4
	.cfi_offset r4, -8
	.pad	#72
	sub	sp, #72
	.cfi_def_cfa_offset 80
                                        @ kill: def $r4 killed $r3
                                        @ kill: def $r4 killed $r2
                                        @ kill: def $r4 killed $r1
                                        @ kill: def $r4 killed $r0
	str	r1, [sp, #68]
	str	r0, [sp, #64]
	str	r3, [sp, #60]
	str	r2, [sp, #56]
.Ltmp30:
	.loc	1 131 19 prologue_end           @ ../Source/SunPos.c:131:19
	ldr	r1, [sp, #68]
	ldr	r0, [sp, #64]
	bl	degToRad
	.loc	1 131 10 is_stmt 0              @ ../Source/SunPos.c:131:10
	str	r1, [sp, #52]
	str	r0, [sp, #48]
	.loc	1 132 19 is_stmt 1              @ ../Source/SunPos.c:132:19
	ldr	r1, [sp, #60]
	ldr	r0, [sp, #56]
	bl	degToRad
	.loc	1 132 10 is_stmt 0              @ ../Source/SunPos.c:132:10
	str	r1, [sp, #44]
	str	r0, [sp, #40]
	ldr	r0, __arm_cp.13_0
	ldr	r1, __arm_cp.13_1
	.loc	1 136 25 is_stmt 1              @ ../Source/SunPos.c:136:25
	bl	degToRad
	.loc	1 136 21 is_stmt 0              @ ../Source/SunPos.c:136:21
	bl	cos
	str	r0, [sp, #8]                    @ 4-byte Spill
	.loc	1 136 44                        @ ../Source/SunPos.c:136:44
	str	r1, [sp, #12]                   @ 4-byte Spill
	ldr	r1, [sp, #52]
	ldr	r0, [sp, #48]
	bl	cos
	str	r0, [sp]                        @ 4-byte Spill
	.loc	1 136 56                        @ ../Source/SunPos.c:136:56
	str	r1, [sp, #4]                    @ 4-byte Spill
	ldr	r1, [sp, #44]
	ldr	r0, [sp, #40]
	bl	cos
	mov	r2, r0
	ldr	r0, [sp]                        @ 4-byte Reload
	mov	r3, r1
	.loc	1 136 55                        @ ../Source/SunPos.c:136:55
	ldr	r1, [sp, #4]                    @ 4-byte Reload
	bl	__aeabi_dmul
	mov	r2, r0
	ldr	r0, [sp, #8]                    @ 4-byte Reload
	mov	r3, r1
	.loc	1 136 42                        @ ../Source/SunPos.c:136:42
	ldr	r1, [sp, #12]                   @ 4-byte Reload
	bl	__aeabi_ddiv
	str	r0, [sp, #24]                   @ 4-byte Spill
	.loc	1 136 68                        @ ../Source/SunPos.c:136:68
	str	r1, [sp, #28]                   @ 4-byte Spill
	ldr	r1, [sp, #52]
	ldr	r0, [sp, #48]
	bl	tan
	str	r0, [sp, #16]                   @ 4-byte Spill
	.loc	1 136 82                        @ ../Source/SunPos.c:136:82
	str	r1, [sp, #20]                   @ 4-byte Spill
	ldr	r1, [sp, #44]
	ldr	r0, [sp, #40]
	bl	tan
	mov	r2, r0
	ldr	r0, [sp, #16]                   @ 4-byte Reload
	mov	r3, r1
	.loc	1 136 80                        @ ../Source/SunPos.c:136:80
	ldr	r1, [sp, #20]                   @ 4-byte Reload
	bl	__aeabi_dmul
	mov	r2, r0
	ldr	r0, [sp, #24]                   @ 4-byte Reload
	mov	r3, r1
	.loc	1 136 67                        @ ../Source/SunPos.c:136:67
	ldr	r1, [sp, #28]                   @ 4-byte Reload
	bl	__aeabi_dsub
	.loc	1 136 16                        @ ../Source/SunPos.c:136:16
	bl	acos
	.loc	1 136 10                        @ ../Source/SunPos.c:136:10
	str	r1, [sp, #36]
	str	r0, [sp, #32]
	.loc	1 138 3 is_stmt 1               @ ../Source/SunPos.c:138:3
	ldr	r0, [sp, #32]
	ldr	r1, [sp, #36]
	add	sp, #72
	pop	{r4, pc}
.Ltmp31:
	.p2align	2
@ %bb.1:
	.loc	1 0 3 is_stmt 0                 @ ../Source/SunPos.c:0:3
__arm_cp.13_0:
	.long	3745211482                      @ 0xdf3b645a
.Lcpi_end68:
	.size	__arm_cp.13_0, .Lcpi_end68-__arm_cp.13_0
__arm_cp.13_1:
	.long	1079424335                      @ 0x4056b54f
.Lcpi_end69:
	.size	__arm_cp.13_1, .Lcpi_end69-__arm_cp.13_1
.Lfunc_end13:
	.size	calcHourAngleSunrise, .Lfunc_end13-calcHourAngleSunrise
	.cfi_endproc
	.cantunwind
	.fnend
                                        @ -- End function
	.section	.text.calcHourAngleSunset,"ax",%progbits
	.hidden	calcHourAngleSunset             @ -- Begin function calcHourAngleSunset
	.globl	calcHourAngleSunset
	.p2align	2
	.type	calcHourAngleSunset,%function
	.code	16                              @ @calcHourAngleSunset
	.thumb_func
calcHourAngleSunset:
.Lfunc_begin14:
	.loc	1 142 0 is_stmt 1               @ ../Source/SunPos.c:142:0
	.fnstart
	.cfi_startproc
@ %bb.0:
	.save	{r4, lr}
	push	{r4, lr}
	.cfi_def_cfa_offset 8
	.cfi_offset lr, -4
	.cfi_offset r4, -8
	.pad	#72
	sub	sp, #72
	.cfi_def_cfa_offset 80
                                        @ kill: def $r4 killed $r3
                                        @ kill: def $r4 killed $r2
                                        @ kill: def $r4 killed $r1
                                        @ kill: def $r4 killed $r0
	str	r1, [sp, #68]
	str	r0, [sp, #64]
	str	r3, [sp, #60]
	str	r2, [sp, #56]
.Ltmp32:
	.loc	1 143 19 prologue_end           @ ../Source/SunPos.c:143:19
	ldr	r1, [sp, #68]
	ldr	r0, [sp, #64]
	bl	degToRad
	.loc	1 143 10 is_stmt 0              @ ../Source/SunPos.c:143:10
	str	r1, [sp, #52]
	str	r0, [sp, #48]
	.loc	1 144 19 is_stmt 1              @ ../Source/SunPos.c:144:19
	ldr	r1, [sp, #60]
	ldr	r0, [sp, #56]
	bl	degToRad
	.loc	1 144 10 is_stmt 0              @ ../Source/SunPos.c:144:10
	str	r1, [sp, #44]
	str	r0, [sp, #40]
	ldr	r0, __arm_cp.14_0
	ldr	r1, __arm_cp.14_1
	.loc	1 147 25 is_stmt 1              @ ../Source/SunPos.c:147:25
	bl	degToRad
	.loc	1 147 21 is_stmt 0              @ ../Source/SunPos.c:147:21
	bl	cos
	str	r0, [sp, #8]                    @ 4-byte Spill
	.loc	1 147 44                        @ ../Source/SunPos.c:147:44
	str	r1, [sp, #12]                   @ 4-byte Spill
	ldr	r1, [sp, #52]
	ldr	r0, [sp, #48]
	bl	cos
	str	r0, [sp]                        @ 4-byte Spill
	.loc	1 147 56                        @ ../Source/SunPos.c:147:56
	str	r1, [sp, #4]                    @ 4-byte Spill
	ldr	r1, [sp, #44]
	ldr	r0, [sp, #40]
	bl	cos
	mov	r2, r0
	ldr	r0, [sp]                        @ 4-byte Reload
	mov	r3, r1
	.loc	1 147 55                        @ ../Source/SunPos.c:147:55
	ldr	r1, [sp, #4]                    @ 4-byte Reload
	bl	__aeabi_dmul
	mov	r2, r0
	ldr	r0, [sp, #8]                    @ 4-byte Reload
	mov	r3, r1
	.loc	1 147 42                        @ ../Source/SunPos.c:147:42
	ldr	r1, [sp, #12]                   @ 4-byte Reload
	bl	__aeabi_ddiv
	str	r0, [sp, #24]                   @ 4-byte Spill
	.loc	1 147 68                        @ ../Source/SunPos.c:147:68
	str	r1, [sp, #28]                   @ 4-byte Spill
	ldr	r1, [sp, #52]
	ldr	r0, [sp, #48]
	bl	tan
	str	r0, [sp, #16]                   @ 4-byte Spill
	.loc	1 147 82                        @ ../Source/SunPos.c:147:82
	str	r1, [sp, #20]                   @ 4-byte Spill
	ldr	r1, [sp, #44]
	ldr	r0, [sp, #40]
	bl	tan
	mov	r2, r0
	ldr	r0, [sp, #16]                   @ 4-byte Reload
	mov	r3, r1
	.loc	1 147 80                        @ ../Source/SunPos.c:147:80
	ldr	r1, [sp, #20]                   @ 4-byte Reload
	bl	__aeabi_dmul
	mov	r2, r0
	ldr	r0, [sp, #24]                   @ 4-byte Reload
	mov	r3, r1
	.loc	1 147 67                        @ ../Source/SunPos.c:147:67
	ldr	r1, [sp, #28]                   @ 4-byte Reload
	bl	__aeabi_dsub
	.loc	1 147 16                        @ ../Source/SunPos.c:147:16
	bl	acos
	.loc	1 147 10                        @ ../Source/SunPos.c:147:10
	str	r1, [sp, #36]
	str	r0, [sp, #32]
	.loc	1 149 11 is_stmt 1              @ ../Source/SunPos.c:149:11
	ldr	r0, [sp, #32]
	ldr	r1, [sp, #36]
	movs	r2, #1
	lsls	r2, r2, #31
	.loc	1 149 3 is_stmt 0               @ ../Source/SunPos.c:149:3
	eors	r1, r2
	add	sp, #72
	pop	{r4, pc}
.Ltmp33:
	.p2align	2
@ %bb.1:
	.loc	1 0 3                           @ ../Source/SunPos.c:0:3
__arm_cp.14_0:
	.long	3745211482                      @ 0xdf3b645a
.Lcpi_end70:
	.size	__arm_cp.14_0, .Lcpi_end70-__arm_cp.14_0
__arm_cp.14_1:
	.long	1079424335                      @ 0x4056b54f
.Lcpi_end71:
	.size	__arm_cp.14_1, .Lcpi_end71-__arm_cp.14_1
.Lfunc_end14:
	.size	calcHourAngleSunset, .Lfunc_end14-calcHourAngleSunset
	.cfi_endproc
	.cantunwind
	.fnend
                                        @ -- End function
	.section	.text.calcJD,"ax",%progbits
	.hidden	calcJD                          @ -- Begin function calcJD
	.globl	calcJD
	.p2align	2
	.type	calcJD,%function
	.code	16                              @ @calcJD
	.thumb_func
calcJD:
.Lfunc_begin15:
	.loc	1 153 0 is_stmt 1               @ ../Source/SunPos.c:153:0
	.fnstart
	.cfi_startproc
@ %bb.0:
	.save	{r7, lr}
	push	{r7, lr}
	.cfi_def_cfa_offset 8
	.cfi_offset lr, -4
	.cfi_offset r7, -8
	.pad	#72
	sub	sp, #72
	.cfi_def_cfa_offset 80
	str	r0, [sp, #68]
	str	r1, [sp, #64]
	str	r2, [sp, #60]
.Ltmp34:
	.loc	1 156 6 prologue_end            @ ../Source/SunPos.c:156:6
	ldr	r0, [sp, #64]
.Ltmp35:
	.loc	1 156 6 is_stmt 0               @ ../Source/SunPos.c:156:6
	cmp	r0, #2
	bgt	.LBB15_2
	b	.LBB15_1
.LBB15_1:
.Ltmp36:
	.loc	1 157 8 is_stmt 1               @ ../Source/SunPos.c:157:8
	ldr	r0, [sp, #68]
	subs	r0, r0, #1
	str	r0, [sp, #68]
	.loc	1 158 9                         @ ../Source/SunPos.c:158:9
	ldr	r0, [sp, #64]
	adds	r0, #12
	str	r0, [sp, #64]
	.loc	1 159 2                         @ ../Source/SunPos.c:159:2
	b	.LBB15_2
.Ltmp37:
.LBB15_2:
	.loc	1 160 12                        @ ../Source/SunPos.c:160:12
	ldr	r0, [sp, #68]
	movs	r1, #100
	.loc	1 160 16 is_stmt 0              @ ../Source/SunPos.c:160:16
	bl	__aeabi_idiv
	.loc	1 160 12                        @ ../Source/SunPos.c:160:12
	bl	__aeabi_i2d
	.loc	1 160 6                         @ ../Source/SunPos.c:160:6
	bl	floor
	bl	__aeabi_d2iz
	.loc	1 160 4                         @ ../Source/SunPos.c:160:4
	str	r0, [sp, #56]
	.loc	1 161 10 is_stmt 1              @ ../Source/SunPos.c:161:10
	ldr	r1, [sp, #56]
	str	r1, [sp]                        @ 4-byte Spill
	movs	r0, #2
	.loc	1 161 8 is_stmt 0               @ ../Source/SunPos.c:161:8
	subs	r0, r0, r1
	.loc	1 161 6                         @ ../Source/SunPos.c:161:6
	bl	__aeabi_i2d
	mov	r2, r0
	ldr	r0, [sp]                        @ 4-byte Reload
	str	r2, [sp, #4]                    @ 4-byte Spill
	.loc	1 161 21                        @ ../Source/SunPos.c:161:21
	str	r1, [sp, #8]                    @ 4-byte Spill
	asrs	r1, r0, #31
	lsrs	r1, r1, #30
	adds	r0, r0, r1
	asrs	r0, r0, #2
	.loc	1 161 20                        @ ../Source/SunPos.c:161:20
	bl	__aeabi_i2d
	.loc	1 161 14                        @ ../Source/SunPos.c:161:14
	bl	floor
	mov	r2, r0
	ldr	r0, [sp, #4]                    @ 4-byte Reload
	mov	r3, r1
	.loc	1 161 12                        @ ../Source/SunPos.c:161:12
	ldr	r1, [sp, #8]                    @ 4-byte Reload
	bl	__aeabi_dadd
	.loc	1 161 6                         @ ../Source/SunPos.c:161:6
	bl	__aeabi_d2iz
	.loc	1 161 4                         @ ../Source/SunPos.c:161:4
	str	r0, [sp, #52]
	.loc	1 163 21 is_stmt 1              @ ../Source/SunPos.c:163:21
	ldr	r0, [sp, #68]
	ldr	r1, __arm_cp.15_0
	.loc	1 163 26 is_stmt 0              @ ../Source/SunPos.c:163:26
	adds	r0, r0, r1
	.loc	1 163 20                        @ ../Source/SunPos.c:163:20
	bl	__aeabi_i2d
	movs	r2, #0
	str	r2, [sp, #36]                   @ 4-byte Spill
	ldr	r3, __arm_cp.15_1
	.loc	1 163 19                        @ ../Source/SunPos.c:163:19
	bl	__aeabi_dmul
	.loc	1 163 7                         @ ../Source/SunPos.c:163:7
	bl	floor
	str	r0, [sp, #12]                   @ 4-byte Spill
	.loc	1 163 52                        @ ../Source/SunPos.c:163:52
	str	r1, [sp, #16]                   @ 4-byte Spill
	ldr	r0, [sp, #64]
	.loc	1 163 57                        @ ../Source/SunPos.c:163:57
	adds	r0, r0, #1
	.loc	1 163 51                        @ ../Source/SunPos.c:163:51
	bl	__aeabi_i2d
	ldr	r2, __arm_cp.15_2
	ldr	r3, __arm_cp.15_3
	.loc	1 163 50                        @ ../Source/SunPos.c:163:50
	bl	__aeabi_dmul
	.loc	1 163 37                        @ ../Source/SunPos.c:163:37
	bl	floor
	mov	r2, r0
	ldr	r0, [sp, #12]                   @ 4-byte Reload
	mov	r3, r1
	.loc	1 163 35                        @ ../Source/SunPos.c:163:35
	ldr	r1, [sp, #16]                   @ 4-byte Reload
	bl	__aeabi_dadd
	str	r0, [sp, #20]                   @ 4-byte Spill
	.loc	1 163 64                        @ ../Source/SunPos.c:163:64
	str	r1, [sp, #24]                   @ 4-byte Spill
	ldr	r0, [sp, #60]
	bl	__aeabi_i2d
	mov	r2, r0
	ldr	r0, [sp, #20]                   @ 4-byte Reload
	mov	r3, r1
	.loc	1 163 62                        @ ../Source/SunPos.c:163:62
	ldr	r1, [sp, #24]                   @ 4-byte Reload
	bl	__aeabi_dadd
	str	r0, [sp, #28]                   @ 4-byte Spill
	.loc	1 163 70                        @ ../Source/SunPos.c:163:70
	str	r1, [sp, #32]                   @ 4-byte Spill
	ldr	r0, [sp, #52]
	bl	__aeabi_i2d
	mov	r2, r0
	ldr	r0, [sp, #28]                   @ 4-byte Reload
	mov	r3, r1
	.loc	1 163 68                        @ ../Source/SunPos.c:163:68
	ldr	r1, [sp, #32]                   @ 4-byte Reload
	bl	__aeabi_dadd
	ldr	r2, [sp, #36]                   @ 4-byte Reload
	ldr	r3, __arm_cp.15_4
	.loc	1 163 72                        @ ../Source/SunPos.c:163:72
	bl	__aeabi_dadd
	.loc	1 163 5                         @ ../Source/SunPos.c:163:5
	str	r1, [sp, #44]
	str	r0, [sp, #40]
	.loc	1 164 2 is_stmt 1               @ ../Source/SunPos.c:164:2
	ldr	r0, [sp, #40]
	ldr	r1, [sp, #44]
	add	sp, #72
	pop	{r7, pc}
.Ltmp38:
	.p2align	2
@ %bb.3:
	.loc	1 0 2 is_stmt 0                 @ ../Source/SunPos.c:0:2
__arm_cp.15_0:
	.long	4716                            @ 0x126c
.Lcpi_end72:
	.size	__arm_cp.15_0, .Lcpi_end72-__arm_cp.15_0
__arm_cp.15_1:
	.long	1081529344                      @ 0x4076d400
.Lcpi_end73:
	.size	__arm_cp.15_1, .Lcpi_end73-__arm_cp.15_1
__arm_cp.15_2:
	.long	659706977                       @ 0x27525461
.Lcpi_end74:
	.size	__arm_cp.15_2, .Lcpi_end74-__arm_cp.15_2
__arm_cp.15_3:
	.long	1077844384                      @ 0x403e99a0
.Lcpi_end75:
	.size	__arm_cp.15_3, .Lcpi_end75-__arm_cp.15_3
__arm_cp.15_4:
	.long	3231175168                      @ 0xc097d200
.Lcpi_end76:
	.size	__arm_cp.15_4, .Lcpi_end76-__arm_cp.15_4
.Lfunc_end15:
	.size	calcJD, .Lfunc_end15-calcJD
	.cfi_endproc
	.cantunwind
	.fnend
                                        @ -- End function
	.section	.text.calcJDFromJulianCent,"ax",%progbits
	.hidden	calcJDFromJulianCent            @ -- Begin function calcJDFromJulianCent
	.globl	calcJDFromJulianCent
	.p2align	2
	.type	calcJDFromJulianCent,%function
	.code	16                              @ @calcJDFromJulianCent
	.thumb_func
calcJDFromJulianCent:
.Lfunc_begin16:
	.loc	1 168 0 is_stmt 1               @ ../Source/SunPos.c:168:0
	.fnstart
	.cfi_startproc
@ %bb.0:
	.save	{r7, lr}
	push	{r7, lr}
	.cfi_def_cfa_offset 8
	.cfi_offset lr, -4
	.cfi_offset r7, -8
	.pad	#16
	sub	sp, #16
	.cfi_def_cfa_offset 24
                                        @ kill: def $r2 killed $r1
                                        @ kill: def $r2 killed $r0
	str	r1, [sp, #12]
	str	r0, [sp, #8]
.Ltmp39:
	.loc	1 169 15 prologue_end           @ ../Source/SunPos.c:169:15
	ldr	r0, [sp, #8]
	ldr	r1, [sp, #12]
	movs	r2, #0
	ldr	r3, __arm_cp.16_0
	.loc	1 169 17 is_stmt 0              @ ../Source/SunPos.c:169:17
	bl	__aeabi_dmul
	movs	r2, #1
	lsls	r2, r2, #31
	ldr	r3, __arm_cp.16_1
	.loc	1 169 27                        @ ../Source/SunPos.c:169:27
	bl	__aeabi_dadd
	.loc	1 169 10                        @ ../Source/SunPos.c:169:10
	str	r1, [sp, #4]
	str	r0, [sp]
	.loc	1 170 3 is_stmt 1               @ ../Source/SunPos.c:170:3
	ldr	r0, [sp]
	ldr	r1, [sp, #4]
	add	sp, #16
	pop	{r7, pc}
.Ltmp40:
	.p2align	2
@ %bb.1:
	.loc	1 0 3 is_stmt 0                 @ ../Source/SunPos.c:0:3
__arm_cp.16_0:
	.long	1088542112                      @ 0x40e1d5a0
.Lcpi_end77:
	.size	__arm_cp.16_0, .Lcpi_end77-__arm_cp.16_0
__arm_cp.16_1:
	.long	1094890540                      @ 0x4142b42c
.Lcpi_end78:
	.size	__arm_cp.16_1, .Lcpi_end78-__arm_cp.16_1
.Lfunc_end16:
	.size	calcJDFromJulianCent, .Lfunc_end16-calcJDFromJulianCent
	.cfi_endproc
	.cantunwind
	.fnend
                                        @ -- End function
	.section	.text.calcSunriseUTC,"ax",%progbits
	.hidden	calcSunriseUTC                  @ -- Begin function calcSunriseUTC
	.globl	calcSunriseUTC
	.p2align	2
	.type	calcSunriseUTC,%function
	.code	16                              @ @calcSunriseUTC
	.thumb_func
calcSunriseUTC:
.Lfunc_begin17:
	.loc	1 188 0 is_stmt 1               @ ../Source/SunPos.c:188:0
	.fnstart
	.cfi_startproc
@ %bb.0:
	.save	{r4, r5, r6, lr}
	push	{r4, r5, r6, lr}
	.cfi_def_cfa_offset 16
	.cfi_offset lr, -4
	.cfi_offset r6, -8
	.cfi_offset r5, -12
	.cfi_offset r4, -16
	.pad	#128
	sub	sp, #128
	.cfi_def_cfa_offset 144
	mov	r5, r1
	mov	r4, r0
	ldr	r1, [sp, #148]
	ldr	r0, [sp, #144]
                                        @ kill: def $r6 killed $r3
                                        @ kill: def $r6 killed $r2
                                        @ kill: def $r6 killed $r5
                                        @ kill: def $r6 killed $r4
	str	r5, [sp, #124]
	str	r4, [sp, #120]
	str	r3, [sp, #116]
	str	r2, [sp, #112]
	str	r1, [sp, #108]
	str	r0, [sp, #104]
.Ltmp41:
	.loc	1 190 13 prologue_end           @ ../Source/SunPos.c:190:13
	ldr	r1, [sp, #124]
	ldr	r0, [sp, #120]
	bl	calcTimeJulianCent
	.loc	1 190 9 is_stmt 0               @ ../Source/SunPos.c:190:9
	str	r1, [sp, #100]
	str	r0, [sp, #96]
	.loc	1 192 19 is_stmt 1              @ ../Source/SunPos.c:192:19
	ldr	r1, [sp, #100]
	ldr	r0, [sp, #96]
	bl	calcEquationOfTime
	.loc	1 192 10 is_stmt 0              @ ../Source/SunPos.c:192:10
	str	r1, [sp, #92]
	str	r0, [sp, #88]
	.loc	1 193 21 is_stmt 1              @ ../Source/SunPos.c:193:21
	ldr	r1, [sp, #100]
	ldr	r0, [sp, #96]
	bl	calcSunDeclination
	.loc	1 193 10 is_stmt 0              @ ../Source/SunPos.c:193:10
	str	r1, [sp, #84]
	str	r0, [sp, #80]
	.loc	1 194 22 is_stmt 1              @ ../Source/SunPos.c:194:22
	ldr	r3, [sp, #84]
	ldr	r2, [sp, #80]
	ldr	r1, [sp, #116]
	ldr	r0, [sp, #112]
	bl	calcHourAngleSunrise
	.loc	1 194 10 is_stmt 0              @ ../Source/SunPos.c:194:10
	str	r1, [sp, #76]
	str	r0, [sp, #72]
	.loc	1 195 25 is_stmt 1              @ ../Source/SunPos.c:195:25
	ldr	r0, [sp, #108]
	str	r0, [sp, #8]                    @ 4-byte Spill
	ldr	r0, [sp, #104]
	.loc	1 195 37 is_stmt 0              @ ../Source/SunPos.c:195:37
	str	r0, [sp, #4]                    @ 4-byte Spill
	ldr	r1, [sp, #76]
	ldr	r0, [sp, #72]
	bl	radToDeg
	mov	r2, r0
	ldr	r0, [sp, #4]                    @ 4-byte Reload
	mov	r3, r1
	.loc	1 195 35                        @ ../Source/SunPos.c:195:35
	ldr	r1, [sp, #8]                    @ 4-byte Reload
	bl	__aeabi_dsub
	.loc	1 195 17                        @ ../Source/SunPos.c:195:17
	str	r1, [sp, #68]
	str	r0, [sp, #64]
	.loc	1 196 25 is_stmt 1              @ ../Source/SunPos.c:196:25
	ldr	r0, [sp, #64]
	ldr	r1, [sp, #68]
	movs	r2, #0
	str	r2, [sp, #32]                   @ 4-byte Spill
	ldr	r3, __arm_cp.17_0
	.loc	1 196 23 is_stmt 0              @ ../Source/SunPos.c:196:23
	str	r3, [sp, #28]                   @ 4-byte Spill
	bl	__aeabi_dmul
	ldr	r2, [sp, #32]                   @ 4-byte Reload
	.loc	1 196 10                        @ ../Source/SunPos.c:196:10
	str	r1, [sp, #60]
	str	r0, [sp, #56]
	.loc	1 197 26 is_stmt 1              @ ../Source/SunPos.c:197:26
	ldr	r0, [sp, #56]
	ldr	r1, [sp, #60]
	ldr	r3, __arm_cp.17_1
	.loc	1 197 24 is_stmt 0              @ ../Source/SunPos.c:197:24
	str	r3, [sp, #36]                   @ 4-byte Spill
	bl	__aeabi_dadd
	.loc	1 197 37                        @ ../Source/SunPos.c:197:37
	ldr	r2, [sp, #88]
	ldr	r3, [sp, #92]
	.loc	1 197 35                        @ ../Source/SunPos.c:197:35
	bl	__aeabi_dsub
	.loc	1 197 10                        @ ../Source/SunPos.c:197:10
	str	r1, [sp, #52]
	str	r0, [sp, #48]
	.loc	1 198 43 is_stmt 1              @ ../Source/SunPos.c:198:43
	ldr	r1, [sp, #100]
	ldr	r0, [sp, #96]
	bl	calcJDFromJulianCent
	ldr	r2, [sp, #32]                   @ 4-byte Reload
	str	r0, [sp, #12]                   @ 4-byte Spill
	.loc	1 198 69 is_stmt 0              @ ../Source/SunPos.c:198:69
	str	r1, [sp, #16]                   @ 4-byte Spill
	ldr	r0, [sp, #48]
	ldr	r1, [sp, #52]
	ldr	r3, __arm_cp.17_2
	.loc	1 198 76                        @ ../Source/SunPos.c:198:76
	bl	__aeabi_ddiv
	mov	r2, r0
	ldr	r0, [sp, #12]                   @ 4-byte Reload
	mov	r3, r1
	.loc	1 198 67                        @ ../Source/SunPos.c:198:67
	ldr	r1, [sp, #16]                   @ 4-byte Reload
	bl	__aeabi_dadd
	.loc	1 198 24                        @ ../Source/SunPos.c:198:24
	bl	calcTimeJulianCent
	.loc	1 198 17                        @ ../Source/SunPos.c:198:17
	str	r1, [sp, #44]
	str	r0, [sp, #40]
	.loc	1 201 19 is_stmt 1              @ ../Source/SunPos.c:201:19
	ldr	r1, [sp, #44]
	ldr	r0, [sp, #40]
	bl	calcEquationOfTime
	.loc	1 201 17 is_stmt 0              @ ../Source/SunPos.c:201:17
	str	r1, [sp, #92]
	str	r0, [sp, #88]
	.loc	1 202 21 is_stmt 1              @ ../Source/SunPos.c:202:21
	ldr	r1, [sp, #44]
	ldr	r0, [sp, #40]
	bl	calcSunDeclination
	.loc	1 202 19 is_stmt 0              @ ../Source/SunPos.c:202:19
	str	r1, [sp, #84]
	str	r0, [sp, #80]
	.loc	1 205 15 is_stmt 1              @ ../Source/SunPos.c:205:15
	ldr	r3, [sp, #84]
	ldr	r2, [sp, #80]
	ldr	r1, [sp, #116]
	ldr	r0, [sp, #112]
	bl	calcHourAngleSunrise
	.loc	1 205 13 is_stmt 0              @ ../Source/SunPos.c:205:13
	str	r1, [sp, #76]
	str	r0, [sp, #72]
	.loc	1 206 11 is_stmt 1              @ ../Source/SunPos.c:206:11
	ldr	r0, [sp, #108]
	str	r0, [sp, #24]                   @ 4-byte Spill
	ldr	r0, [sp, #104]
	.loc	1 206 23 is_stmt 0              @ ../Source/SunPos.c:206:23
	str	r0, [sp, #20]                   @ 4-byte Spill
	ldr	r1, [sp, #76]
	ldr	r0, [sp, #72]
	bl	radToDeg
	mov	r2, r0
	ldr	r0, [sp, #20]                   @ 4-byte Reload
	mov	r3, r1
	.loc	1 206 21                        @ ../Source/SunPos.c:206:21
	ldr	r1, [sp, #24]                   @ 4-byte Reload
	bl	__aeabi_dsub
	ldr	r3, [sp, #28]                   @ 4-byte Reload
	ldr	r2, [sp, #32]                   @ 4-byte Reload
	.loc	1 206 9                         @ ../Source/SunPos.c:206:9
	str	r1, [sp, #68]
	str	r0, [sp, #64]
	.loc	1 207 18 is_stmt 1              @ ../Source/SunPos.c:207:18
	ldr	r0, [sp, #64]
	ldr	r1, [sp, #68]
	.loc	1 207 16 is_stmt 0              @ ../Source/SunPos.c:207:16
	bl	__aeabi_dmul
	ldr	r2, [sp, #32]                   @ 4-byte Reload
	ldr	r3, [sp, #36]                   @ 4-byte Reload
	.loc	1 207 12                        @ ../Source/SunPos.c:207:12
	str	r1, [sp, #60]
	str	r0, [sp, #56]
	.loc	1 208 19 is_stmt 1              @ ../Source/SunPos.c:208:19
	ldr	r0, [sp, #56]
	ldr	r1, [sp, #60]
	.loc	1 208 17 is_stmt 0              @ ../Source/SunPos.c:208:17
	bl	__aeabi_dadd
	.loc	1 208 30                        @ ../Source/SunPos.c:208:30
	ldr	r2, [sp, #88]
	ldr	r3, [sp, #92]
	.loc	1 208 28                        @ ../Source/SunPos.c:208:28
	bl	__aeabi_dsub
	.loc	1 208 11                        @ ../Source/SunPos.c:208:11
	str	r1, [sp, #52]
	str	r0, [sp, #48]
	.loc	1 212 3 is_stmt 1               @ ../Source/SunPos.c:212:3
	ldr	r0, [sp, #48]
	ldr	r1, [sp, #52]
	add	sp, #128
	pop	{r4, r5, r6, pc}
.Ltmp42:
	.p2align	2
@ %bb.1:
	.loc	1 0 3 is_stmt 0                 @ ../Source/SunPos.c:0:3
__arm_cp.17_0:
	.long	1074790400                      @ 0x40100000
.Lcpi_end79:
	.size	__arm_cp.17_0, .Lcpi_end79-__arm_cp.17_0
__arm_cp.17_1:
	.long	1082556416                      @ 0x40868000
.Lcpi_end80:
	.size	__arm_cp.17_1, .Lcpi_end80-__arm_cp.17_1
__arm_cp.17_2:
	.long	1083604992                      @ 0x40968000
.Lcpi_end81:
	.size	__arm_cp.17_2, .Lcpi_end81-__arm_cp.17_2
.Lfunc_end17:
	.size	calcSunriseUTC, .Lfunc_end17-calcSunriseUTC
	.cfi_endproc
	.cantunwind
	.fnend
                                        @ -- End function
	.section	.text.calcSunsetUTC,"ax",%progbits
	.hidden	calcSunsetUTC                   @ -- Begin function calcSunsetUTC
	.globl	calcSunsetUTC
	.p2align	2
	.type	calcSunsetUTC,%function
	.code	16                              @ @calcSunsetUTC
	.thumb_func
calcSunsetUTC:
.Lfunc_begin18:
	.loc	1 216 0 is_stmt 1               @ ../Source/SunPos.c:216:0
	.fnstart
	.cfi_startproc
@ %bb.0:
	.save	{r4, r5, r6, lr}
	push	{r4, r5, r6, lr}
	.cfi_def_cfa_offset 16
	.cfi_offset lr, -4
	.cfi_offset r6, -8
	.cfi_offset r5, -12
	.cfi_offset r4, -16
	.pad	#128
	sub	sp, #128
	.cfi_def_cfa_offset 144
	mov	r5, r1
	mov	r4, r0
	ldr	r1, [sp, #148]
	ldr	r0, [sp, #144]
                                        @ kill: def $r6 killed $r3
                                        @ kill: def $r6 killed $r2
                                        @ kill: def $r6 killed $r5
                                        @ kill: def $r6 killed $r4
	str	r5, [sp, #124]
	str	r4, [sp, #120]
	str	r3, [sp, #116]
	str	r2, [sp, #112]
	str	r1, [sp, #108]
	str	r0, [sp, #104]
.Ltmp43:
	.loc	1 218 13 prologue_end           @ ../Source/SunPos.c:218:13
	ldr	r1, [sp, #124]
	ldr	r0, [sp, #120]
	bl	calcTimeJulianCent
	.loc	1 218 9 is_stmt 0               @ ../Source/SunPos.c:218:9
	str	r1, [sp, #100]
	str	r0, [sp, #96]
	.loc	1 220 19 is_stmt 1              @ ../Source/SunPos.c:220:19
	ldr	r1, [sp, #100]
	ldr	r0, [sp, #96]
	bl	calcEquationOfTime
	.loc	1 220 10 is_stmt 0              @ ../Source/SunPos.c:220:10
	str	r1, [sp, #92]
	str	r0, [sp, #88]
	.loc	1 221 21 is_stmt 1              @ ../Source/SunPos.c:221:21
	ldr	r1, [sp, #100]
	ldr	r0, [sp, #96]
	bl	calcSunDeclination
	.loc	1 221 10 is_stmt 0              @ ../Source/SunPos.c:221:10
	str	r1, [sp, #84]
	str	r0, [sp, #80]
	.loc	1 222 22 is_stmt 1              @ ../Source/SunPos.c:222:22
	ldr	r3, [sp, #84]
	ldr	r2, [sp, #80]
	ldr	r1, [sp, #116]
	ldr	r0, [sp, #112]
	bl	calcHourAngleSunset
	.loc	1 222 10 is_stmt 0              @ ../Source/SunPos.c:222:10
	str	r1, [sp, #76]
	str	r0, [sp, #72]
	.loc	1 223 25 is_stmt 1              @ ../Source/SunPos.c:223:25
	ldr	r0, [sp, #108]
	str	r0, [sp, #8]                    @ 4-byte Spill
	ldr	r0, [sp, #104]
	.loc	1 223 37 is_stmt 0              @ ../Source/SunPos.c:223:37
	str	r0, [sp, #4]                    @ 4-byte Spill
	ldr	r1, [sp, #76]
	ldr	r0, [sp, #72]
	bl	radToDeg
	mov	r2, r0
	ldr	r0, [sp, #4]                    @ 4-byte Reload
	mov	r3, r1
	.loc	1 223 35                        @ ../Source/SunPos.c:223:35
	ldr	r1, [sp, #8]                    @ 4-byte Reload
	bl	__aeabi_dsub
	.loc	1 223 17                        @ ../Source/SunPos.c:223:17
	str	r1, [sp, #68]
	str	r0, [sp, #64]
	.loc	1 224 25 is_stmt 1              @ ../Source/SunPos.c:224:25
	ldr	r0, [sp, #64]
	ldr	r1, [sp, #68]
	movs	r2, #0
	str	r2, [sp, #32]                   @ 4-byte Spill
	ldr	r3, __arm_cp.18_0
	.loc	1 224 23 is_stmt 0              @ ../Source/SunPos.c:224:23
	str	r3, [sp, #28]                   @ 4-byte Spill
	bl	__aeabi_dmul
	ldr	r2, [sp, #32]                   @ 4-byte Reload
	.loc	1 224 10                        @ ../Source/SunPos.c:224:10
	str	r1, [sp, #60]
	str	r0, [sp, #56]
	.loc	1 225 26 is_stmt 1              @ ../Source/SunPos.c:225:26
	ldr	r0, [sp, #56]
	ldr	r1, [sp, #60]
	ldr	r3, __arm_cp.18_1
	.loc	1 225 24 is_stmt 0              @ ../Source/SunPos.c:225:24
	str	r3, [sp, #36]                   @ 4-byte Spill
	bl	__aeabi_dadd
	.loc	1 225 37                        @ ../Source/SunPos.c:225:37
	ldr	r2, [sp, #88]
	ldr	r3, [sp, #92]
	.loc	1 225 35                        @ ../Source/SunPos.c:225:35
	bl	__aeabi_dsub
	.loc	1 225 10                        @ ../Source/SunPos.c:225:10
	str	r1, [sp, #52]
	str	r0, [sp, #48]
	.loc	1 226 43 is_stmt 1              @ ../Source/SunPos.c:226:43
	ldr	r1, [sp, #100]
	ldr	r0, [sp, #96]
	bl	calcJDFromJulianCent
	ldr	r2, [sp, #32]                   @ 4-byte Reload
	str	r0, [sp, #12]                   @ 4-byte Spill
	.loc	1 226 69 is_stmt 0              @ ../Source/SunPos.c:226:69
	str	r1, [sp, #16]                   @ 4-byte Spill
	ldr	r0, [sp, #48]
	ldr	r1, [sp, #52]
	ldr	r3, __arm_cp.18_2
	.loc	1 226 76                        @ ../Source/SunPos.c:226:76
	bl	__aeabi_ddiv
	mov	r2, r0
	ldr	r0, [sp, #12]                   @ 4-byte Reload
	mov	r3, r1
	.loc	1 226 67                        @ ../Source/SunPos.c:226:67
	ldr	r1, [sp, #16]                   @ 4-byte Reload
	bl	__aeabi_dadd
	.loc	1 226 24                        @ ../Source/SunPos.c:226:24
	bl	calcTimeJulianCent
	.loc	1 226 17                        @ ../Source/SunPos.c:226:17
	str	r1, [sp, #44]
	str	r0, [sp, #40]
	.loc	1 229 19 is_stmt 1              @ ../Source/SunPos.c:229:19
	ldr	r1, [sp, #44]
	ldr	r0, [sp, #40]
	bl	calcEquationOfTime
	.loc	1 229 17 is_stmt 0              @ ../Source/SunPos.c:229:17
	str	r1, [sp, #92]
	str	r0, [sp, #88]
	.loc	1 230 21 is_stmt 1              @ ../Source/SunPos.c:230:21
	ldr	r1, [sp, #44]
	ldr	r0, [sp, #40]
	bl	calcSunDeclination
	.loc	1 230 19 is_stmt 0              @ ../Source/SunPos.c:230:19
	str	r1, [sp, #84]
	str	r0, [sp, #80]
	.loc	1 233 15 is_stmt 1              @ ../Source/SunPos.c:233:15
	ldr	r3, [sp, #84]
	ldr	r2, [sp, #80]
	ldr	r1, [sp, #116]
	ldr	r0, [sp, #112]
	bl	calcHourAngleSunset
	.loc	1 233 13 is_stmt 0              @ ../Source/SunPos.c:233:13
	str	r1, [sp, #76]
	str	r0, [sp, #72]
	.loc	1 234 11 is_stmt 1              @ ../Source/SunPos.c:234:11
	ldr	r0, [sp, #108]
	str	r0, [sp, #24]                   @ 4-byte Spill
	ldr	r0, [sp, #104]
	.loc	1 234 23 is_stmt 0              @ ../Source/SunPos.c:234:23
	str	r0, [sp, #20]                   @ 4-byte Spill
	ldr	r1, [sp, #76]
	ldr	r0, [sp, #72]
	bl	radToDeg
	mov	r2, r0
	ldr	r0, [sp, #20]                   @ 4-byte Reload
	mov	r3, r1
	.loc	1 234 21                        @ ../Source/SunPos.c:234:21
	ldr	r1, [sp, #24]                   @ 4-byte Reload
	bl	__aeabi_dsub
	ldr	r3, [sp, #28]                   @ 4-byte Reload
	ldr	r2, [sp, #32]                   @ 4-byte Reload
	.loc	1 234 9                         @ ../Source/SunPos.c:234:9
	str	r1, [sp, #68]
	str	r0, [sp, #64]
	.loc	1 235 18 is_stmt 1              @ ../Source/SunPos.c:235:18
	ldr	r0, [sp, #64]
	ldr	r1, [sp, #68]
	.loc	1 235 16 is_stmt 0              @ ../Source/SunPos.c:235:16
	bl	__aeabi_dmul
	ldr	r2, [sp, #32]                   @ 4-byte Reload
	ldr	r3, [sp, #36]                   @ 4-byte Reload
	.loc	1 235 12                        @ ../Source/SunPos.c:235:12
	str	r1, [sp, #60]
	str	r0, [sp, #56]
	.loc	1 236 19 is_stmt 1              @ ../Source/SunPos.c:236:19
	ldr	r0, [sp, #56]
	ldr	r1, [sp, #60]
	.loc	1 236 17 is_stmt 0              @ ../Source/SunPos.c:236:17
	bl	__aeabi_dadd
	.loc	1 236 30                        @ ../Source/SunPos.c:236:30
	ldr	r2, [sp, #88]
	ldr	r3, [sp, #92]
	.loc	1 236 28                        @ ../Source/SunPos.c:236:28
	bl	__aeabi_dsub
	.loc	1 236 11                        @ ../Source/SunPos.c:236:11
	str	r1, [sp, #52]
	str	r0, [sp, #48]
	.loc	1 238 3 is_stmt 1               @ ../Source/SunPos.c:238:3
	ldr	r0, [sp, #48]
	ldr	r1, [sp, #52]
	add	sp, #128
	pop	{r4, r5, r6, pc}
.Ltmp44:
	.p2align	2
@ %bb.1:
	.loc	1 0 3 is_stmt 0                 @ ../Source/SunPos.c:0:3
__arm_cp.18_0:
	.long	1074790400                      @ 0x40100000
.Lcpi_end82:
	.size	__arm_cp.18_0, .Lcpi_end82-__arm_cp.18_0
__arm_cp.18_1:
	.long	1082556416                      @ 0x40868000
.Lcpi_end83:
	.size	__arm_cp.18_1, .Lcpi_end83-__arm_cp.18_1
__arm_cp.18_2:
	.long	1083604992                      @ 0x40968000
.Lcpi_end84:
	.size	__arm_cp.18_2, .Lcpi_end84-__arm_cp.18_2
.Lfunc_end18:
	.size	calcSunsetUTC, .Lfunc_end18-calcSunsetUTC
	.cfi_endproc
	.cantunwind
	.fnend
                                        @ -- End function
	.section	".note.GNU-stack","",%progbits
	.eabi_attribute	30, 6	@ Tag_ABI_optimization_goals
	.ARM_attribute	16, 1	@ Tag_AV_eba