	.text
	.syntax unified
	.eabi_attribute	67, "2.09"	@ Tag_conformance
	.cpu	cortex-m0
	.eabi_attribute	6, 12	@ Tag_CPU_arch
	.eabi_attribute	7, 77	@ Tag_CPU_arch_profile
	.eabi_attribute	8, 0	@ Tag_ARM_ISA_use
	.eabi_attribute	9, 1	@ Tag_THUMB_ISA_use
	.eabi_attribute	34, 0	@ Tag_CPU_unaligned_access
	.eabi_attribute	17, 1	@ Tag_ABI_PCS_GOT_use
	.eabi_attribute	20, 2	@ Tag_ABI_FP_denormal
	.eabi_attribute	21, 0	@ Tag_ABI_FP_exceptions
	.eabi_attribute	23, 1	@ Tag_ABI_FP_number_model
	.eabi_attribute	24, 1	@ Tag_ABI_align_needed
	.eabi_attribute	25, 1	@ Tag_ABI_align_preserved
	.eabi_attribute	38, 1	@ Tag_ABI_FP_16bit_format
	.eabi_attribute	18, 2	@ Tag_ABI_PCS_wchar_t
	.eabi_attribute	26, 1	@ Tag_ABI_enum_size
	.eabi_attribute	14, 0	@ Tag_ABI_PCS_R9_use
	.file	"main.c"
	.file	1 "C:\\Keil_v5\\ARM\\ARMCLANG\\Bin\\..\\include" "stdint.h"
	.file	2 "D:\\Projects\\CCMS\\CCMSFlorida\\BootLoader\\Keil" "../Source/main.c"
	.file	3 "D:\\Projects\\CCMS\\CCMSFlorida\\BootLoader\\Keil" "../../Library/Device/Nuvoton/M031/Include\\M031Series.h"
	.file	4 "D:\\Projects\\CCMS\\CCMSFlorida\\BootLoader\\Keil" "../../Library/Device/Nuvoton/M031/Include/fmc_reg.h"
	.file	5 "D:\\Projects\\CCMS\\CCMSFlorida\\BootLoader\\Keil" "../../Library/Device/Nuvoton/M031/Include/sys_reg.h"
	.file	6 "D:\\Projects\\CCMS\\CCMSFlorida\\BootLoader\\Keil" "../../Library/CMSIS/Include\\core_cm0.h"
	.section	.text.__set_SP,"ax",%progbits
	.hidden	__set_SP                        @ -- Begin function __set_SP
	.globl	__set_SP
	.p2align	1
	.type	__set_SP,%function
	.code	16                              @ @__set_SP
	.thumb_func
__set_SP:
.Lfunc_begin0:
	.loc	2 19 0                          @ ../Source/main.c:19:0
	.fnstart
	.cfi_sections .debug_frame
	.cfi_startproc
@ %bb.0:
	.pad	#4
	sub	sp, #4
	.cfi_def_cfa_offset 4
	str	r0, [sp]
.Ltmp0:
	.loc	2 20 2 prologue_end             @ ../Source/main.c:20:2
	@APP
	msr	msp, r0
	@NO_APP
	.loc	2 21 2                          @ ../Source/main.c:21:2
	@APP
	bx	lr
	@NO_APP
	.loc	2 24 1                          @ ../Source/main.c:24:1
	add	sp, #4
	bx	lr
.Ltmp1:
.Lfunc_end0:
	.size	__set_SP, .Lfunc_end0-__set_SP
	.cfi_endproc
	.cantunwind
	.fnend
                                        @ -- End function
	.section	.text.DelayMS,"ax",%progbits
	.hidden	DelayMS                         @ -- Begin function DelayMS
	.globl	DelayMS
	.p2align	2
	.type	DelayMS,%function
	.code	16                              @ @DelayMS
	.thumb_func
DelayMS:
.Lfunc_begin1:
	.loc	2 37 0                          @ ../Source/main.c:37:0
	.fnstart
	.cfi_startproc
@ %bb.0:
	.pad	#4
	sub	sp, #4
	.cfi_def_cfa_offset 4
	str	r0, [sp]
.Ltmp2:
	.loc	2 38 17 prologue_end            @ ../Source/main.c:38:17
	ldr	r0, [sp]
	.loc	2 38 15 is_stmt 0               @ ../Source/main.c:38:15
	ldr	r1, __arm_cp.1_0
	str	r0, [r1]
	.loc	2 40 4 is_stmt 1                @ ../Source/main.c:40:4
	b	.LBB1_1
.LBB1_1:                                @ =>This Inner Loop Header: Depth=1
	.loc	2 40 10 is_stmt 0               @ ../Source/main.c:40:10
	ldr	r0, __arm_cp.1_0
	ldr	r0, [r0]
	.loc	2 40 4                          @ ../Source/main.c:40:4
	cmp	r0, #0
	beq	.LBB1_3
	b	.LBB1_2
.LBB1_2:                                @   in Loop: Header=BB1_1 Depth=1
	b	.LBB1_1
.LBB1_3:
	.loc	2 41 1 is_stmt 1                @ ../Source/main.c:41:1
	add	sp, #4
	bx	lr
.Ltmp3:
	.p2align	2
@ %bb.4:
	.loc	2 0 1 is_stmt 0                 @ ../Source/main.c:0:1
__arm_cp.1_0:
	.long	TimingDelay
.Lcpi_end0:
	.size	__arm_cp.1_0, .Lcpi_end0-__arm_cp.1_0
.Lfunc_end1:
	.size	DelayMS, .Lfunc_end1-DelayMS
	.cfi_endproc
	.cantunwind
	.fnend
                                        @ -- End function
	.section	.text.TimingDelay_Decrement,"ax",%progbits
	.hidden	TimingDelay_Decrement           @ -- Begin function TimingDelay_Decrement
	.globl	TimingDelay_Decrement
	.p2align	2
	.type	TimingDelay_Decrement,%function
	.code	16                              @ @TimingDelay_Decrement
	.thumb_func
TimingDelay_Decrement:
.Lfunc_begin2:
	.loc	2 44 0 is_stmt 1                @ ../Source/main.c:44:0
	.fnstart
	.cfi_startproc
@ %bb.0:
	.loc	2 45 6 prologue_end             @ ../Source/main.c:45:6
	ldr	r0, __arm_cp.2_0
	ldr	r0, [r0]
.Ltmp4:
	.loc	2 45 6 is_stmt 0                @ ../Source/main.c:45:6
	cmp	r0, #0
	beq	.LBB2_2
	b	.LBB2_1
.LBB2_1:
.Ltmp5:
	.loc	2 47 16 is_stmt 1               @ ../Source/main.c:47:16
	ldr	r1, __arm_cp.2_0
	ldr	r0, [r1]
	subs	r0, r0, #1
	str	r0, [r1]
	.loc	2 48 3                          @ ../Source/main.c:48:3
	b	.LBB2_2
.Ltmp6:
.LBB2_2:
	.loc	2 49 11                         @ ../Source/main.c:49:11
	ldr	r0, __arm_cp.2_1
	ldrh	r1, [r0]
	adds	r1, r1, #1
	strh	r1, [r0]
.Ltmp7:
	.loc	2 50 5                          @ ../Source/main.c:50:5
	ldrh	r0, [r0]
	movs	r1, #245
	lsls	r1, r1, #2
.Ltmp8:
	.loc	2 50 5 is_stmt 0                @ ../Source/main.c:50:5
	cmp	r0, r1
	blt	.LBB2_4
	b	.LBB2_3
.LBB2_3:
.Ltmp9:
	.loc	2 52 12 is_stmt 1               @ ../Source/main.c:52:12
	ldr	r1, __arm_cp.2_1
	movs	r0, #0
	strh	r0, [r1]
	.loc	2 53 2                          @ ../Source/main.c:53:2
	b	.LBB2_4
.Ltmp10:
.LBB2_4:
	.loc	2 54 1                          @ ../Source/main.c:54:1
	bx	lr
.Ltmp11:
	.p2align	2
@ %bb.5:
	.loc	2 0 1 is_stmt 0                 @ ../Source/main.c:0:1
__arm_cp.2_0:
	.long	TimingDelay
.Lcpi_end1:
	.size	__arm_cp.2_0, .Lcpi_end1-__arm_cp.2_0
__arm_cp.2_1:
	.long	Count1Sec
.Lcpi_end2:
	.size	__arm_cp.2_1, .Lcpi_end2-__arm_cp.2_1
.Lfunc_end2:
	.size	TimingDelay_Decrement, .Lfunc_end2-TimingDelay_Decrement
	.cfi_endproc
	.cantunwind
	.fnend
                                        @ -- End function
	.section	.text.SysTick_Handler,"ax",%progbits
	.hidden	SysTick_Handler                 @ -- Begin function SysTick_Handler
	.globl	SysTick_Handler
	.p2align	1
	.type	SysTick_Handler,%function
	.code	16                              @ @SysTick_Handler
	.thumb_func
SysTick_Handler:
.Lfunc_begin3:
	.loc	2 57 0 is_stmt 1                @ ../Source/main.c:57:0
	.fnstart
	.cfi_startproc
@ %bb.0:
	.save	{r7, lr}
	push	{r7, lr}
	.cfi_def_cfa_offset 8
	.cfi_offset lr, -4
	.cfi_offset r7, -8
.Ltmp12:
	.loc	2 58 2 prologue_end             @ ../Source/main.c:58:2
	bl	TimingDelay_Decrement
	.loc	2 60 1                          @ ../Source/main.c:60:1
	pop	{r7, pc}
.Ltmp13:
.Lfunc_end3:
	.size	SysTick_Handler, .Lfunc_end3-SysTick_Handler
	.cfi_endproc
	.cantunwind
	.fnend
                                        @ -- End function
	.section	.text.set_IAP_boot_mode,"ax",%progbits
	.hidden	set_IAP_boot_mode               @ -- Begin function set_IAP_boot_mode
	.globl	set_IAP_boot_mode
	.p2align	2
	.type	set_IAP_boot_mode,%function
	.code	16                              @ @set_IAP_boot_mode
	.thumb_func
set_IAP_boot_mode:
.Lfunc_begin4:
	.loc	2 63 0                          @ ../Source/main.c:63:0
	.fnstart
	.cfi_startproc
@ %bb.0:
	.save	{r7, lr}
	push	{r7, lr}
	.cfi_def_cfa_offset 8
	.cfi_offset lr, -4
	.cfi_offset r7, -8
	.pad	#16
	sub	sp, #16
	.cfi_def_cfa_offset 24
	add	r0, sp, #4
	movs	r1, #2
.Ltmp14:
	.loc	2 65 9 prologue_end             @ ../Source/main.c:65:9
	bl	FMC_ReadConfig
.Ltmp15:
	.loc	2 65 9 is_stmt 0                @ ../Source/main.c:65:9
	cmp	r0, #0
	bpl	.LBB4_2
	b	.LBB4_1
.LBB4_1:
	.loc	2 0 9                           @ ../Source/main.c:0:9
	add	r1, sp, #12
	movs	r0, #0
.Ltmp16:
	.loc	2 67 9 is_stmt 1                @ ../Source/main.c:67:9
	strb	r0, [r1]
	b	.LBB4_5
.Ltmp17:
.LBB4_2:
	.loc	2 0 9 is_stmt 0                 @ ../Source/main.c:0:9
	add	r0, sp, #4
	.loc	2 77 9 is_stmt 1                @ ../Source/main.c:77:9
	ldrb	r0, [r0]
	lsls	r0, r0, #25
	cmp	r0, #0
	bpl	.LBB4_4
	b	.LBB4_3
.LBB4_3:
	.loc	2 0 9 is_stmt 0                 @ ../Source/main.c:0:9
	ldr	r1, __arm_cp.4_0
.Ltmp18:
	.loc	2 79 9 is_stmt 1                @ ../Source/main.c:79:9
	ldr	r0, [r1]
	movs	r2, #16
	orrs	r0, r2
	str	r0, [r1]
	.loc	2 80 23                         @ ../Source/main.c:80:23
	ldr	r0, [sp, #4]
	movs	r1, #64
	bics	r0, r1
	str	r0, [sp, #4]
	add	r0, sp, #4
	movs	r1, #2
	.loc	2 81 9                          @ ../Source/main.c:81:9
	bl	FMC_WriteConfig
	.loc	2 83 9                          @ ../Source/main.c:83:9
	bl	SYS_ResetChip
	.loc	2 85 5                          @ ../Source/main.c:85:5
	b	.LBB4_4
.Ltmp19:
.LBB4_4:
	.loc	2 0 5 is_stmt 0                 @ ../Source/main.c:0:5
	add	r1, sp, #12
	movs	r0, #1
	.loc	2 86 5 is_stmt 1                @ ../Source/main.c:86:5
	strb	r0, [r1]
	b	.LBB4_5
.LBB4_5:
	.loc	2 0 5 is_stmt 0                 @ ../Source/main.c:0:5
	add	r0, sp, #12
	.loc	2 87 1 is_stmt 1                @ ../Source/main.c:87:1
	ldrb	r0, [r0]
	add	sp, #16
	pop	{r7, pc}
.Ltmp20:
	.p2align	2
@ %bb.6:
	.loc	2 0 1 is_stmt 0                 @ ../Source/main.c:0:1
__arm_cp.4_0:
	.long	1073790976                      @ 0x4000c000
.Lcpi_end3:
	.size	__arm_cp.4_0, .Lcpi_end3-__arm_cp.4_0
.Lfunc_end4:
	.size	set_IAP_boot_mode, .Lfunc_end4-set_IAP_boot_mode
	.cfi_endproc
	.cantunwind
	.fnend
                                        @ -- End function
	.section	.text.InitSystem,"ax",%progbits
	.hidden	InitSystem                      @ -- Begin function InitSystem
	.globl	InitSystem
	.p2align	2
	.type	InitSystem,%function
	.code	16                              @ @InitSystem
	.thumb_func
InitSystem:
.Lfunc_begin5:
	.loc	2 90 0 is_stmt 1                @ ../Source/main.c:90:0
	.fnstart
	.cfi_startproc
@ %bb.0:
	.save	{r7, lr}
	push	{r7, lr}
	.cfi_def_cfa_offset 8
	.cfi_offset lr, -4
	.cfi_offset r7, -8
	.pad	#8
	sub	sp, #8
	.cfi_def_cfa_offset 16
.Ltmp21:
	.loc	2 91 9 prologue_end             @ ../Source/main.c:91:9
	ldr	r1, __arm_cp.5_0
	movs	r0, #0
	str	r0, [sp, #4]                    @ 4-byte Spill
	strb	r0, [r1]
	.loc	2 92 2                          @ ../Source/main.c:92:2
	bl	SYS_UnlockReg
	.loc	2 93 2                          @ ../Source/main.c:93:2
	bl	SYS_Init
	ldr	r0, [sp, #4]                    @ 4-byte Reload
	mvns	r0, r0
	.loc	2 94 2                          @ ../Source/main.c:94:2
	bl	NVIC_EnableIRQ
	movs	r0, #2
	.loc	2 95 2                          @ ../Source/main.c:95:2
	bl	CLK_EnableModuleClock
	.loc	2 96 2                          @ ../Source/main.c:96:2
	bl	FMC_Open
	.loc	2 97 2                          @ ../Source/main.c:97:2
	bl	set_IAP_boot_mode
	.loc	2 102 1                         @ ../Source/main.c:102:1
	add	sp, #8
	pop	{r7, pc}
.Ltmp22:
	.p2align	2
@ %bb.1:
	.loc	2 0 1 is_stmt 0                 @ ../Source/main.c:0:1
__arm_cp.5_0:
	.long	IsInit
.Lcpi_end4:
	.size	__arm_cp.5_0, .Lcpi_end4-__arm_cp.5_0
.Lfunc_end5:
	.size	InitSystem, .Lfunc_end5-InitSystem
	.cfi_endproc
	.cantunwind
	.fnend
                                        @ -- End function
	.section	.text.SYS_UnlockReg,"ax",%progbits
	.p2align	2                               @ -- Begin function SYS_UnlockReg
	.type	SYS_UnlockReg,%function
	.code	16                              @ @SYS_UnlockReg
	.thumb_func
SYS_UnlockReg:
.Lfunc_begin6:
	.file	7 "D:\\Projects\\CCMS\\CCMSFlorida\\BootLoader\\Keil" "../../Library/StdDriver/inc\\sys.h"
	.loc	7 1344 0 is_stmt 1              @ ../../Library/StdDriver/inc\sys.h:1344:0
	.fnstart
	.cfi_startproc
@ %bb.0:
	.loc	7 1345 5 prologue_end           @ ../../Library/StdDriver/inc\sys.h:1345:5
	b	.LBB6_1
.LBB6_1:                                @ =>This Inner Loop Header: Depth=1
	.loc	7 0 5 is_stmt 0                 @ ../../Library/StdDriver/inc\sys.h:0:5
	ldr	r1, __arm_cp.6_0
	movs	r0, #89
.Ltmp23:
	.loc	7 1346 22 is_stmt 1             @ ../../Library/StdDriver/inc\sys.h:1346:22
	str	r0, [r1]
	movs	r0, #22
	.loc	7 1347 22                       @ ../../Library/StdDriver/inc\sys.h:1347:22
	str	r0, [r1]
	movs	r0, #136
	.loc	7 1348 22                       @ ../../Library/StdDriver/inc\sys.h:1348:22
	str	r0, [r1]
	.loc	7 1349 5                        @ ../../Library/StdDriver/inc\sys.h:1349:5
	b	.LBB6_2
.Ltmp24:
.LBB6_2:                                @   in Loop: Header=BB6_1 Depth=1
	.loc	7 0 5 is_stmt 0                 @ ../../Library/StdDriver/inc\sys.h:0:5
	ldr	r0, __arm_cp.6_0
	.loc	7 1349 19                       @ ../../Library/StdDriver/inc\sys.h:1349:19
	ldr	r0, [r0]
.Ltmp25:
	.loc	7 1349 5                        @ ../../Library/StdDriver/inc\sys.h:1349:5
	cmp	r0, #0
	beq	.LBB6_1
	b	.LBB6_3
.Ltmp26:
.LBB6_3:
	.loc	7 1350 1 is_stmt 1              @ ../../Library/StdDriver/inc\sys.h:1350:1
	bx	lr
.Ltmp27:
	.p2align	2
@ %bb.4:
	.loc	7 0 1 is_stmt 0                 @ ../../Library/StdDriver/inc\sys.h:0:1
__arm_cp.6_0:
	.long	1073742080                      @ 0x40000100
.Lcpi_end5:
	.size	__arm_cp.6_0, .Lcpi_end5-__arm_cp.6_0
.Lfunc_end6:
	.size	SYS_UnlockReg, .Lfunc_end6-SYS_UnlockReg
	.cfi_endproc
	.cantunwind
	.fnend
                                        @ -- End function
	.section	.text.NVIC_EnableIRQ,"ax",%progbits
	.p2align	2                               @ -- Begin function NVIC_EnableIRQ
	.type	NVIC_EnableIRQ,%function
	.code	16                              @ @NVIC_EnableIRQ
	.thumb_func
NVIC_EnableIRQ:
.Lfunc_begin7:
	.loc	6 630 0 is_stmt 1               @ ../../Library/CMSIS/Include\core_cm0.h:630:0
	.fnstart
	.cfi_startproc
@ %bb.0:
	.pad	#4
	sub	sp, #4
	.cfi_def_cfa_offset 4
	mov	r1, r0
                                        @ kill: def $r0 killed $r1
	mov	r0, sp
	strb	r1, [r0]
.Ltmp28:
	.loc	6 631 50 prologue_end           @ ../../Library/CMSIS/Include\core_cm0.h:631:50
	ldrb	r1, [r0]
	movs	r0, #31
	.loc	6 631 65 is_stmt 0              @ ../../Library/CMSIS/Include\core_cm0.h:631:65
	ands	r1, r0
	movs	r0, #1
	.loc	6 631 35                        @ ../../Library/CMSIS/Include\core_cm0.h:631:35
	lsls	r0, r1
	ldr	r1, __arm_cp.7_0
	.loc	6 631 18                        @ ../../Library/CMSIS/Include\core_cm0.h:631:18
	str	r0, [r1]
	.loc	6 632 1 is_stmt 1               @ ../../Library/CMSIS/Include\core_cm0.h:632:1
	add	sp, #4
	bx	lr
.Ltmp29:
	.p2align	2
@ %bb.1:
	.loc	6 0 1 is_stmt 0                 @ ../../Library/CMSIS/Include\core_cm0.h:0:1
__arm_cp.7_0:
	.long	3758153984                      @ 0xe000e100
.Lcpi_end6:
	.size	__arm_cp.7_0, .Lcpi_end6-__arm_cp.7_0
.Lfunc_end7:
	.size	NVIC_EnableIRQ, .Lfunc_end7-NVIC_EnableIRQ
	.cfi_endproc
	.cantunwind
	.fnend
                                        @ -- End function
	.section	.text.main,"ax",%progbits
	.hidden	main                            @ -- Begin function main
	.globl	main
	.p2align	2
	.type	main,%function
	.code	16                              @ @main
	.thumb_func
main:
.Lfunc_begin8:
	.loc	2 105 0 is_stmt 1               @ ../Source/main.c:105:0
	.fnstart
	.cfi_startproc
@ %bb.0:
	.save	{r7, lr}
	push	{r7, lr}
	.cfi_def_cfa_offset 8
	.cfi_offset lr, -4
	.cfi_offset r7, -8
	.pad	#16
	sub	sp, #16
	.cfi_def_cfa_offset 24
	movs	r0, #0
	str	r0, [sp, #12]
.Ltmp30:
	.loc	2 107 3 prologue_end            @ ../Source/main.c:107:3
	bl	InitSystem
	.loc	2 108 3                         @ ../Source/main.c:108:3
	bl	LoadBootConfig
	b	.LBB8_1
.LBB8_1:
.Ltmp31:
	@DEBUG_LABEL: main:_JUMPTOAPP
	.loc	2 0 3 is_stmt 0                 @ ../Source/main.c:0:3
	movs	r0, #10
	.loc	2 111 2 is_stmt 1               @ ../Source/main.c:111:2
	bl	DelayMS
.Ltmp32:
	.file	8 "D:\\Projects\\CCMS\\CCMSFlorida\\BootLoader\\Keil" "../../Library/CMSIS/Include/cmsis_armcc_V6.h"
	.loc	8 63 3                          @ ../../Library/CMSIS/Include/cmsis_armcc_V6.h:63:3
	@APP
	cpsid i
	@NO_APP
	movs	r0, #2
.Ltmp33:
	.loc	2 116 2                         @ ../Source/main.c:116:2
	bl	CLK_EnableModuleClock
	movs	r0, #1
	lsls	r0, r0, #13
	.loc	2 121 13                        @ ../Source/main.c:121:13
	str	r0, [sp, #4]                    @ 4-byte Spill
	bl	FMC_SetVectorPageAddr
	.loc	2 122 7                         @ ../Source/main.c:122:7
	bl	SYS_ResetCPU
	.loc	2 123 7                         @ ../Source/main.c:123:7
	bl	SYS_LockReg
	ldr	r0, [sp, #4]                    @ 4-byte Reload
	ldr	r1, __arm_cp.8_0
	.loc	2 125 33                        @ ../Source/main.c:125:33
	ldr	r1, [r1]
	.loc	2 125 18 is_stmt 0              @ ../Source/main.c:125:18
	ldr	r2, __arm_cp.8_1
	str	r2, [sp, #8]                    @ 4-byte Spill
	str	r1, [r2]
	.loc	2 129 22 is_stmt 1              @ ../Source/main.c:129:22
	ldr	r0, [r0]
	.loc	2 129 13 is_stmt 0              @ ../Source/main.c:129:13
	bl	__set_SP
	ldr	r0, [sp, #8]                    @ 4-byte Reload
	.loc	2 130 13 is_stmt 1              @ ../Source/main.c:130:13
	ldr	r0, [r0]
	blx	r0
	.loc	2 132 5                         @ ../Source/main.c:132:5
	b	.LBB8_2
.LBB8_2:                                @ =>This Inner Loop Header: Depth=1
	b	.LBB8_2
.Ltmp34:
	.p2align	2
@ %bb.3:
	.loc	2 0 5 is_stmt 0                 @ ../Source/main.c:0:5
__arm_cp.8_0:
	.long	8196                            @ 0x2004
.Lcpi_end7:
	.size	__arm_cp.8_0, .Lcpi_end7-__arm_cp.8_0
__arm_cp.8_1:
	.long	func
.Lcpi_end8:
	.size	__arm_cp.8_1, .Lcpi_end8-__arm_cp.8_1
.Lfunc_end8:
	.size	main, .Lfunc_end8-main
	.cfi_endproc
	.cantunwind
	.fnend
                                        @ -- End function
	.section	.text.FMC_SetVectorPageAddr,"ax",%progbits
	.p2align	2                               @ -- Begin function FMC_SetVectorPageAddr
	.type	FMC_SetVectorPageAddr,%function
	.code	16                              @ @FMC_SetVectorPageAddr
	.thumb_func
FMC_SetVectorPageAddr:
.Lfunc_begin9:
	.file	9 "D:\\Projects\\CCMS\\CCMSFlorida\\BootLoader\\Keil" "../../Library/StdDriver/inc\\fmc.h"
	.loc	9 298 0 is_stmt 1               @ ../../Library/StdDriver/inc\fmc.h:298:0
	.fnstart
	.cfi_startproc
@ %bb.0:
	.save	{r7, lr}
	push	{r7, lr}
	.cfi_def_cfa_offset 8
	.cfi_offset lr, -4
	.cfi_offset r7, -8
	.pad	#16
	sub	sp, #16
	.cfi_def_cfa_offset 24
	str	r0, [sp, #8]
.Ltmp35:
	.loc	9 299 22 prologue_end           @ ../../Library/StdDriver/inc\fmc.h:299:22
	ldr	r0, __arm_cp.9_0
	ldr	r0, [r0]
	movs	r1, #10
	bl	__aeabi_uidiv
	lsrs	r0, r0, #2
	.loc	9 299 15 is_stmt 0              @ ../../Library/StdDriver/inc\fmc.h:299:15
	str	r0, [sp, #4]
	.loc	9 301 22 is_stmt 1              @ ../../Library/StdDriver/inc\fmc.h:301:22
	ldr	r1, __arm_cp.9_1
	movs	r0, #0
	str	r0, [r1]
	ldr	r1, __arm_cp.9_2
	movs	r0, #46
	.loc	9 303 17                        @ ../../Library/StdDriver/inc\fmc.h:303:17
	str	r0, [r1]
	.loc	9 304 20                        @ ../../Library/StdDriver/inc\fmc.h:304:20
	ldr	r0, [sp, #8]
	ldr	r1, __arm_cp.9_3
	.loc	9 304 18 is_stmt 0              @ ../../Library/StdDriver/inc\fmc.h:304:18
	str	r0, [r1]
	ldr	r1, __arm_cp.9_4
	movs	r0, #1
	.loc	9 305 17 is_stmt 1              @ ../../Library/StdDriver/inc\fmc.h:305:17
	str	r0, [r1]
	.loc	9 309 5                         @ ../../Library/StdDriver/inc\fmc.h:309:5
	b	.LBB9_1
.LBB9_1:                                @ =>This Inner Loop Header: Depth=1
	.loc	9 309 16 is_stmt 0              @ ../../Library/StdDriver/inc\fmc.h:309:16
	ldr	r0, [sp, #4]
	subs	r1, r0, #1
	str	r1, [sp, #4]
	.loc	9 309 5                         @ ../../Library/StdDriver/inc\fmc.h:309:5
	cmp	r0, #0
	beq	.LBB9_5
	b	.LBB9_2
.LBB9_2:                                @   in Loop: Header=BB9_1 Depth=1
	.loc	9 0 5                           @ ../../Library/StdDriver/inc\fmc.h:0:5
	ldr	r0, __arm_cp.9_4
.Ltmp36:
	.loc	9 311 19 is_stmt 1              @ ../../Library/StdDriver/inc\fmc.h:311:19
	ldr	r0, [r0]
.Ltmp37:
	.loc	9 311 13 is_stmt 0              @ ../../Library/StdDriver/inc\fmc.h:311:13
	cmp	r0, #0
	bne	.LBB9_4
	b	.LBB9_3
.LBB9_3:
	.loc	9 0 13                          @ ../../Library/StdDriver/inc\fmc.h:0:13
	movs	r0, #0
.Ltmp38:
	.loc	9 312 13 is_stmt 1              @ ../../Library/StdDriver/inc\fmc.h:312:13
	str	r0, [sp, #12]
	b	.LBB9_6
.Ltmp39:
.LBB9_4:                                @   in Loop: Header=BB9_1 Depth=1
	.loc	9 309 5                         @ ../../Library/StdDriver/inc\fmc.h:309:5
	b	.LBB9_1
.LBB9_5:
	.loc	9 314 22                        @ ../../Library/StdDriver/inc\fmc.h:314:22
	ldr	r1, __arm_cp.9_1
	movs	r0, #0
	mvns	r0, r0
	str	r0, [r1]
	.loc	9 315 5                         @ ../../Library/StdDriver/inc\fmc.h:315:5
	str	r0, [sp, #12]
	b	.LBB9_6
.LBB9_6:
	.loc	9 316 1                         @ ../../Library/StdDriver/inc\fmc.h:316:1
	ldr	r0, [sp, #12]
	add	sp, #16
	pop	{r7, pc}
.Ltmp40:
	.p2align	2
@ %bb.7:
	.loc	9 0 1 is_stmt 0                 @ ../../Library/StdDriver/inc\fmc.h:0:1
__arm_cp.9_0:
	.long	SystemCoreClock
.Lcpi_end9:
	.size	__arm_cp.9_0, .Lcpi_end9-__arm_cp.9_0
__arm_cp.9_1:
	.long	g_FMC_i32ErrCode
.Lcpi_end10:
	.size	__arm_cp.9_1, .Lcpi_end10-__arm_cp.9_1
__arm_cp.9_2:
	.long	1073790988                      @ 0x4000c00c
.Lcpi_end11:
	.size	__arm_cp.9_2, .Lcpi_end11-__arm_cp.9_2
__arm_cp.9_3:
	.long	1073790980                      @ 0x4000c004
.Lcpi_end12:
	.size	__arm_cp.9_3, .Lcpi_end12-__arm_cp.9_3
__arm_cp.9_4:
	.long	1073790992                      @ 0x4000c010
.Lcpi_end13:
	.size	__arm_cp.9_4, .Lcpi_end13-__arm_cp.9_4
.Lfunc_end9:
	.size	FMC_SetVectorPageAddr, .Lfunc_end9-FMC_SetVectorPageAddr
	.cfi_endproc
	.cantunwind
	.fnend
                                        @ -- End function
	.section	.text.SYS_LockReg,"ax",%progbits
	.p2align	2                               @ -- Begin function SYS_LockReg
	.type	SYS_LockReg,%function
	.code	16                              @ @SYS_LockReg
	.thumb_func
SYS_LockReg:
.Lfunc_begin10:
	.loc	7 1361 0 is_stmt 1              @ ../../Library/StdDriver/inc\sys.h:1361:0
	.fnstart
	.cfi_startproc
@ %bb.0:
	ldr	r1, __arm_cp.10_0
	movs	r0, #0
.Ltmp41:
	.loc	7 1362 18 prologue_end          @ ../../Library/StdDriver/inc\sys.h:1362:18
	str	r0, [r1]
	.loc	7 1363 1                        @ ../../Library/StdDriver/inc\sys.h:1363:1
	bx	lr
.Ltmp42:
	.p2align	2
@ %bb.1:
	.loc	7 0 1 is_stmt 0                 @ ../../Library/StdDriver/inc\sys.h:0:1
__arm_cp.10_0:
	.long	1073742080                      @ 0x40000100
.Lcpi_end14:
	.size	__arm_cp.10_0, .Lcpi_end14-__arm_cp.10_0
.Lfunc_end10:
	.size	SYS_LockReg, .Lfunc_end10-SYS_LockReg
	.cfi_endproc
	.cantunwind
	.fnend
                                        @ -- End function
	.hidden	TimingDelay                     @ @TimingDelay
	.type	TimingDelay,%object
	.section	.bss.TimingDelay,"aw",%nobits
	.globl	TimingDelay
	.p2align	2
TimingDelay:
	.long	0                               @ 0x0
	.size	TimingDelay, 4

	.hidden	Count1Sec                       @ @Count1Sec
	.type	Count1Sec,%object
	.section	.bss.Count1Sec,"aw",%nobits
	.globl	Count1Sec
	.p2align	1
Count1Sec:
	.short	0                               @ 0x0
	.size	Count1Sec, 2

	.hidden	IsInit                          @ @IsInit
	.type	IsInit,%object
	.section	.bss.IsInit,"aw",%nobits
	.globl	IsInit
IsInit:
	.byte	0                               @ 0x0
	.size	IsInit, 1

	.hidden	func                            @ @func
	.type	func,%object
	.section	.bss.func,"aw",%nobits
	.globl	func
	.p2align	2
func:
	.long	0
	.size	func, 4

	.hidden	JumpAddress                     @ @JumpAddress
	.type	JumpAddress,%object
	.section	.bss.JumpAddress,"aw",%nobits
	.globl	JumpAddress
	.p2align	2
JumpAddress:
	.long	0                               @ 0x0
	.size	JumpAddress, 4

	.hidden	FlashReq                        @ @FlashReq
	.type	FlashReq,%object
	.section	.bss.FlashReq,"aw",%nobits
	.globl	FlashReq
FlashReq:
	.byte	0                               @ 0x0
	.size	FlashReq, 1

	.type	__ARM_use_no_argv,%object       @ @__ARM_use_no_argv
	.section	.ARM.use_no_argv,"aw",%progbits
	.globl	__ARM_use_no_argv
	.p2align	2
__ARM_use_no_argv:
	.long	1                               @ 0x1
	.size	__ARM_use_no_argv, 4

	.globl	__ARM_use_no_argv
	.section	".note.GNU-stack","",%progbits
	.eabi_attribute	30, 6	@ Tag_ABI_optimization_goals
	.ARM_attribute	16, 1	@ Tag_AV_eba